
./update_files/dev_flash/sys/external/libmp3dec.sprx.elf:     file format elf64-powerpc


Disassembly of section :

0000000000000000 <>:
       0:	f8 21 ff c1 	stdu    r1,-64(r1)
       4:	fb e1 00 38 	std     r31,56(r1)
       8:	7c 3f 0b 78 	mr      r31,r1
       c:	7c 60 1b 78 	mr      r0,r3
      10:	7c 89 23 78 	mr      r9,r4
      14:	90 1f 00 70 	stw     r0,112(r31)
      18:	91 3f 00 78 	stw     r9,120(r31)
      1c:	38 00 00 00 	li      r0,0
      20:	7c 00 07 b4 	extsw   r0,r0
      24:	7c 03 03 78 	mr      r3,r0
      28:	e9 61 00 00 	ld      r11,0(r1)
      2c:	eb eb ff f8 	ld      r31,-8(r11)
      30:	7d 61 5b 78 	mr      r1,r11
      34:	4e 80 00 20 	blr
      38:	f8 21 ff c1 	stdu    r1,-64(r1)
      3c:	fb e1 00 38 	std     r31,56(r1)
      40:	7c 3f 0b 78 	mr      r31,r1
      44:	7c 60 1b 78 	mr      r0,r3
      48:	7c 89 23 78 	mr      r9,r4
      4c:	90 1f 00 70 	stw     r0,112(r31)
      50:	91 3f 00 78 	stw     r9,120(r31)
      54:	38 00 00 00 	li      r0,0
      58:	7c 00 07 b4 	extsw   r0,r0
      5c:	7c 03 03 78 	mr      r3,r0
      60:	e9 61 00 00 	ld      r11,0(r1)
      64:	eb eb ff f8 	ld      r31,-8(r11)
      68:	7d 61 5b 78 	mr      r1,r11
      6c:	4e 80 00 20 	blr
      70:	f8 21 ff b1 	stdu    r1,-80(r1)
      74:	fb e1 00 48 	std     r31,72(r1)
      78:	7c 3f 0b 78 	mr      r31,r1
      7c:	7c 60 1b 78 	mr      r0,r3
      80:	7c 89 23 78 	mr      r9,r4
      84:	90 1f 00 80 	stw     r0,128(r31)
      88:	91 3f 00 88 	stw     r9,136(r31)
      8c:	80 1f 00 80 	lwz     r0,128(r31)
      90:	78 09 00 20 	clrldi  r9,r0,32
      94:	80 09 00 88 	lwz     r0,136(r9)
      98:	2f 80 00 03 	cmpwi   cr7,r0,3
      9c:	40 9d 00 1c 	ble-    cr7,0xb8
      a0:	3c 00 80 61 	lis     r0,-32671
      a4:	90 1f 00 30 	stw     r0,48(r31)
      a8:	81 3f 00 30 	lwz     r9,48(r31)
      ac:	61 29 27 64 	ori     r9,r9,10084
      b0:	91 3f 00 30 	stw     r9,48(r31)
      b4:	48 00 00 cc 	b       0x180
      b8:	80 1f 00 80 	lwz     r0,128(r31)
      bc:	78 09 00 20 	clrldi  r9,r0,32
      c0:	81 29 00 84 	lwz     r9,132(r9)
      c4:	80 1f 00 80 	lwz     r0,128(r31)
      c8:	78 0a 00 20 	clrldi  r10,r0,32
      cc:	7d 20 4b 78 	mr      r0,r9
      d0:	54 09 10 3a 	rlwinm  r9,r0,2,0,29
      d4:	55 20 18 38 	rlwinm  r0,r9,3,0,28
      d8:	7d 29 00 50 	subf    r9,r9,r0
      dc:	39 29 00 10 	addi    r9,r9,16
      e0:	7d 2b 07 b4 	extsw   r11,r9
      e4:	80 1f 00 88 	lwz     r0,136(r31)
      e8:	78 09 00 20 	clrldi  r9,r0,32
      ec:	80 c9 00 00 	lwz     r6,0(r9)
      f0:	7c aa 5a 14 	add     r5,r10,r11
      f4:	80 89 00 04 	lwz     r4,4(r9)
      f8:	7c 6a 5a 14 	add     r3,r10,r11
      fc:	80 09 00 08 	lwz     r0,8(r9)
     100:	7d 0a 5a 14 	add     r8,r10,r11
     104:	80 e9 00 0c 	lwz     r7,12(r9)
     108:	7c ca 59 2e 	stwx    r6,r10,r11
     10c:	90 85 00 04 	stw     r4,4(r5)
     110:	90 03 00 08 	stw     r0,8(r3)
     114:	90 e8 00 0c 	stw     r7,12(r8)
     118:	7c aa 5a 14 	add     r5,r10,r11
     11c:	81 09 00 10 	lwz     r8,16(r9)
     120:	7c ea 5a 14 	add     r7,r10,r11
     124:	80 c9 00 14 	lwz     r6,20(r9)
     128:	7d 6a 5a 14 	add     r11,r10,r11
     12c:	80 09 00 18 	lwz     r0,24(r9)
     130:	91 05 00 10 	stw     r8,16(r5)
     134:	90 c7 00 14 	stw     r6,20(r7)
     138:	90 0b 00 18 	stw     r0,24(r11)
     13c:	80 1f 00 80 	lwz     r0,128(r31)
     140:	78 09 00 20 	clrldi  r9,r0,32
     144:	81 29 00 84 	lwz     r9,132(r9)
     148:	38 09 00 01 	addi    r0,r9,1
     14c:	54 0b 07 be 	clrlwi  r11,r0,30
     150:	80 1f 00 80 	lwz     r0,128(r31)
     154:	78 09 00 20 	clrldi  r9,r0,32
     158:	91 69 00 84 	stw     r11,132(r9)
     15c:	80 1f 00 80 	lwz     r0,128(r31)
     160:	78 09 00 20 	clrldi  r9,r0,32
     164:	81 29 00 88 	lwz     r9,136(r9)
     168:	39 69 00 01 	addi    r11,r9,1
     16c:	80 1f 00 80 	lwz     r0,128(r31)
     170:	78 09 00 20 	clrldi  r9,r0,32
     174:	91 69 00 88 	stw     r11,136(r9)
     178:	38 00 00 00 	li      r0,0
     17c:	90 1f 00 30 	stw     r0,48(r31)
     180:	81 3f 00 30 	lwz     r9,48(r31)
     184:	7d 20 07 b4 	extsw   r0,r9
     188:	7c 03 03 78 	mr      r3,r0
     18c:	e9 61 00 00 	ld      r11,0(r1)
     190:	eb eb ff f8 	ld      r31,-8(r11)
     194:	7d 61 5b 78 	mr      r1,r11
     198:	4e 80 00 20 	blr
     19c:	f8 21 ff 91 	stdu    r1,-112(r1)
     1a0:	fb e1 00 68 	std     r31,104(r1)
     1a4:	7c 3f 0b 78 	mr      r31,r1
     1a8:	7c 60 1b 78 	mr      r0,r3
     1ac:	7c 89 23 78 	mr      r9,r4
     1b0:	91 3f 00 a8 	stw     r9,168(r31)
     1b4:	78 08 00 20 	clrldi  r8,r0,32
     1b8:	f9 1f 00 50 	std     r8,80(r31)
     1bc:	80 1f 00 a8 	lwz     r0,168(r31)
     1c0:	78 09 00 20 	clrldi  r9,r0,32
     1c4:	80 09 00 88 	lwz     r0,136(r9)
     1c8:	2f 80 00 00 	cmpwi   cr7,r0,0
     1cc:	41 9d 00 64 	bgt-    cr7,0x230
     1d0:	38 00 00 00 	li      r0,0
     1d4:	90 1f 00 30 	stw     r0,48(r31)
     1d8:	80 1f 00 30 	lwz     r0,48(r31)
     1dc:	81 3f 00 34 	lwz     r9,52(r31)
     1e0:	81 7f 00 38 	lwz     r11,56(r31)
     1e4:	81 5f 00 3c 	lwz     r10,60(r31)
     1e8:	e9 1f 00 50 	ld      r8,80(r31)
     1ec:	90 08 00 00 	stw     r0,0(r8)
     1f0:	e9 1f 00 50 	ld      r8,80(r31)
     1f4:	91 28 00 04 	stw     r9,4(r8)
     1f8:	e9 3f 00 50 	ld      r9,80(r31)
     1fc:	91 69 00 08 	stw     r11,8(r9)
     200:	e9 1f 00 50 	ld      r8,80(r31)
     204:	91 48 00 0c 	stw     r10,12(r8)
     208:	80 1f 00 40 	lwz     r0,64(r31)
     20c:	81 3f 00 44 	lwz     r9,68(r31)
     210:	81 7f 00 48 	lwz     r11,72(r31)
     214:	e9 5f 00 50 	ld      r10,80(r31)
     218:	90 0a 00 10 	stw     r0,16(r10)
     21c:	e9 1f 00 50 	ld      r8,80(r31)
     220:	91 28 00 14 	stw     r9,20(r8)
     224:	e9 3f 00 50 	ld      r9,80(r31)
     228:	91 69 00 18 	stw     r11,24(r9)
     22c:	48 00 01 48 	b       0x374
     230:	80 1f 00 a8 	lwz     r0,168(r31)
     234:	78 09 00 20 	clrldi  r9,r0,32
     238:	81 29 00 80 	lwz     r9,128(r9)
     23c:	80 1f 00 a8 	lwz     r0,168(r31)
     240:	78 0b 00 20 	clrldi  r11,r0,32
     244:	7d 20 4b 78 	mr      r0,r9
     248:	54 09 10 3a 	rlwinm  r9,r0,2,0,29
     24c:	55 20 18 38 	rlwinm  r0,r9,3,0,28
     250:	7d 29 00 50 	subf    r9,r9,r0
     254:	39 29 00 10 	addi    r9,r9,16
     258:	7d 20 07 b4 	extsw   r0,r9
     25c:	7d 0b 00 2e 	lwzx    r8,r11,r0
     260:	7d 2b 02 14 	add     r9,r11,r0
     264:	80 e9 00 04 	lwz     r7,4(r9)
     268:	7d 2b 02 14 	add     r9,r11,r0
     26c:	81 49 00 08 	lwz     r10,8(r9)
     270:	7d 2b 02 14 	add     r9,r11,r0
     274:	81 29 00 0c 	lwz     r9,12(r9)
     278:	91 1f 00 30 	stw     r8,48(r31)
     27c:	90 ff 00 34 	stw     r7,52(r31)
     280:	91 5f 00 38 	stw     r10,56(r31)
     284:	91 3f 00 3c 	stw     r9,60(r31)
     288:	7d 2b 02 14 	add     r9,r11,r0
     28c:	81 49 00 10 	lwz     r10,16(r9)
     290:	7d 2b 02 14 	add     r9,r11,r0
     294:	81 09 00 14 	lwz     r8,20(r9)
     298:	7d 2b 02 14 	add     r9,r11,r0
     29c:	80 09 00 18 	lwz     r0,24(r9)
     2a0:	91 5f 00 40 	stw     r10,64(r31)
     2a4:	91 1f 00 44 	stw     r8,68(r31)
     2a8:	90 1f 00 48 	stw     r0,72(r31)
     2ac:	80 1f 00 a8 	lwz     r0,168(r31)
     2b0:	78 09 00 20 	clrldi  r9,r0,32
     2b4:	81 29 00 80 	lwz     r9,128(r9)
     2b8:	80 1f 00 a8 	lwz     r0,168(r31)
     2bc:	78 0b 00 20 	clrldi  r11,r0,32
     2c0:	7d 20 4b 78 	mr      r0,r9
     2c4:	54 09 10 3a 	rlwinm  r9,r0,2,0,29
     2c8:	55 20 18 38 	rlwinm  r0,r9,3,0,28
     2cc:	7d 29 00 50 	subf    r9,r9,r0
     2d0:	39 29 00 10 	addi    r9,r9,16
     2d4:	7d 20 07 b4 	extsw   r0,r9
     2d8:	7d 2b 02 14 	add     r9,r11,r0
     2dc:	38 00 00 ff 	li      r0,255
     2e0:	90 09 00 04 	stw     r0,4(r9)
     2e4:	80 1f 00 a8 	lwz     r0,168(r31)
     2e8:	78 09 00 20 	clrldi  r9,r0,32
     2ec:	81 29 00 80 	lwz     r9,128(r9)
     2f0:	38 09 00 01 	addi    r0,r9,1
     2f4:	54 0b 07 be 	clrlwi  r11,r0,30
     2f8:	80 1f 00 a8 	lwz     r0,168(r31)
     2fc:	78 09 00 20 	clrldi  r9,r0,32
     300:	91 69 00 80 	stw     r11,128(r9)
     304:	80 1f 00 a8 	lwz     r0,168(r31)
     308:	78 09 00 20 	clrldi  r9,r0,32
     30c:	81 29 00 88 	lwz     r9,136(r9)
     310:	39 69 ff ff 	addi    r11,r9,-1
     314:	80 1f 00 a8 	lwz     r0,168(r31)
     318:	78 09 00 20 	clrldi  r9,r0,32
     31c:	91 69 00 88 	stw     r11,136(r9)
     320:	80 1f 00 30 	lwz     r0,48(r31)
     324:	81 3f 00 34 	lwz     r9,52(r31)
     328:	81 7f 00 38 	lwz     r11,56(r31)
     32c:	81 5f 00 3c 	lwz     r10,60(r31)
     330:	e9 1f 00 50 	ld      r8,80(r31)
     334:	90 08 00 00 	stw     r0,0(r8)
     338:	e9 1f 00 50 	ld      r8,80(r31)
     33c:	91 28 00 04 	stw     r9,4(r8)
     340:	e9 3f 00 50 	ld      r9,80(r31)
     344:	91 69 00 08 	stw     r11,8(r9)
     348:	e9 1f 00 50 	ld      r8,80(r31)
     34c:	91 48 00 0c 	stw     r10,12(r8)
     350:	80 1f 00 40 	lwz     r0,64(r31)
     354:	81 3f 00 44 	lwz     r9,68(r31)
     358:	81 7f 00 48 	lwz     r11,72(r31)
     35c:	e9 5f 00 50 	ld      r10,80(r31)
     360:	90 0a 00 10 	stw     r0,16(r10)
     364:	e9 1f 00 50 	ld      r8,80(r31)
     368:	91 28 00 14 	stw     r9,20(r8)
     36c:	e9 3f 00 50 	ld      r9,80(r31)
     370:	91 69 00 18 	stw     r11,24(r9)
     374:	e8 7f 00 50 	ld      r3,80(r31)
     378:	e9 61 00 00 	ld      r11,0(r1)
     37c:	eb eb ff f8 	ld      r31,-8(r11)
     380:	7d 61 5b 78 	mr      r1,r11
     384:	4e 80 00 20 	blr
     388:	f8 21 ff b1 	stdu    r1,-80(r1)
     38c:	fb e1 00 48 	std     r31,72(r1)
     390:	7c 3f 0b 78 	mr      r31,r1
     394:	7c 60 1b 78 	mr      r0,r3
     398:	90 1f 00 80 	stw     r0,128(r31)
     39c:	80 1f 00 80 	lwz     r0,128(r31)
     3a0:	78 09 00 20 	clrldi  r9,r0,32
     3a4:	38 00 00 00 	li      r0,0
     3a8:	90 09 00 80 	stw     r0,128(r9)
     3ac:	80 1f 00 80 	lwz     r0,128(r31)
     3b0:	78 09 00 20 	clrldi  r9,r0,32
     3b4:	38 00 00 00 	li      r0,0
     3b8:	90 09 00 84 	stw     r0,132(r9)
     3bc:	80 1f 00 80 	lwz     r0,128(r31)
     3c0:	78 09 00 20 	clrldi  r9,r0,32
     3c4:	38 00 00 00 	li      r0,0
     3c8:	90 09 00 88 	stw     r0,136(r9)
     3cc:	38 00 00 00 	li      r0,0
     3d0:	90 1f 00 30 	stw     r0,48(r31)
     3d4:	48 00 00 40 	b       0x414
     3d8:	81 3f 00 30 	lwz     r9,48(r31)
     3dc:	80 1f 00 80 	lwz     r0,128(r31)
     3e0:	78 0b 00 20 	clrldi  r11,r0,32
     3e4:	7d 20 4b 78 	mr      r0,r9
     3e8:	54 09 10 3a 	rlwinm  r9,r0,2,0,29
     3ec:	55 20 18 38 	rlwinm  r0,r9,3,0,28
     3f0:	7d 29 00 50 	subf    r9,r9,r0
     3f4:	39 29 00 10 	addi    r9,r9,16
     3f8:	7d 20 07 b4 	extsw   r0,r9
     3fc:	7d 2b 02 14 	add     r9,r11,r0
     400:	38 00 00 ff 	li      r0,255
     404:	90 09 00 04 	stw     r0,4(r9)
     408:	81 3f 00 30 	lwz     r9,48(r31)
     40c:	38 09 00 01 	addi    r0,r9,1
     410:	90 1f 00 30 	stw     r0,48(r31)
     414:	80 1f 00 30 	lwz     r0,48(r31)
     418:	2f 80 00 03 	cmpwi   cr7,r0,3
     41c:	40 9d ff bc 	ble+    cr7,0x3d8
     420:	e9 61 00 00 	ld      r11,0(r1)
     424:	eb eb ff f8 	ld      r31,-8(r11)
     428:	7d 61 5b 78 	mr      r1,r11
     42c:	4e 80 00 20 	blr
     430:	f8 21 fe f1 	stdu    r1,-272(r1)
     434:	7c 08 02 a6 	mflr    r0
     438:	fb 81 00 f0 	std     r28,240(r1)
     43c:	fb a1 00 f8 	std     r29,248(r1)
     440:	fb e1 01 08 	std     r31,264(r1)
     444:	f8 01 01 20 	std     r0,288(r1)
     448:	7c 3f 0b 78 	mr      r31,r1
     44c:	7c 60 1b 78 	mr      r0,r3
     450:	90 1f 01 40 	stw     r0,320(r31)
     454:	48 00 00 04 	b       0x458
     458:	80 1f 01 40 	lwz     r0,320(r31)
     45c:	78 09 00 20 	clrldi  r9,r0,32
     460:	80 09 00 08 	lwz     r0,8(r9)
     464:	78 00 00 20 	clrldi  r0,r0,32
     468:	7c 03 03 78 	mr      r3,r0
     46c:	38 80 00 00 	li      r4,0
     470:	48 00 37 55 	bl      0x3bc4
     474:	60 00 00 00 	nop
     478:	38 1f 00 c0 	addi    r0,r31,192
     47c:	78 09 00 20 	clrldi  r9,r0,32
     480:	80 1f 01 40 	lwz     r0,320(r31)
     484:	78 00 00 20 	clrldi  r0,r0,32
     488:	7d 23 4b 78 	mr      r3,r9
     48c:	7c 04 03 78 	mr      r4,r0
     490:	4b ff fd 0d 	bl      0x19c
     494:	80 1f 00 c0 	lwz     r0,192(r31)
     498:	81 3f 00 c4 	lwz     r9,196(r31)
     49c:	81 7f 00 c8 	lwz     r11,200(r31)
     4a0:	81 5f 00 cc 	lwz     r10,204(r31)
     4a4:	90 1f 00 98 	stw     r0,152(r31)
     4a8:	91 3f 00 9c 	stw     r9,156(r31)
     4ac:	91 7f 00 a0 	stw     r11,160(r31)
     4b0:	91 5f 00 a4 	stw     r10,164(r31)
     4b4:	80 1f 00 d0 	lwz     r0,208(r31)
     4b8:	81 3f 00 d4 	lwz     r9,212(r31)
     4bc:	81 7f 00 d8 	lwz     r11,216(r31)
     4c0:	90 1f 00 a8 	stw     r0,168(r31)
     4c4:	91 3f 00 ac 	stw     r9,172(r31)
     4c8:	91 7f 00 b0 	stw     r11,176(r31)
     4cc:	80 1f 00 98 	lwz     r0,152(r31)
     4d0:	2f 80 00 00 	cmpwi   cr7,r0,0
     4d4:	40 9e 00 44 	bne-    cr7,0x518
     4d8:	80 1f 01 40 	lwz     r0,320(r31)
     4dc:	78 09 00 20 	clrldi  r9,r0,32
     4e0:	80 09 00 0c 	lwz     r0,12(r9)
     4e4:	78 00 00 20 	clrldi  r0,r0,32
     4e8:	7c 03 03 78 	mr      r3,r0
     4ec:	38 80 00 00 	li      r4,0
     4f0:	48 00 37 75 	bl      0x3c64
     4f4:	60 00 00 00 	nop
     4f8:	80 1f 01 40 	lwz     r0,320(r31)
     4fc:	78 09 00 20 	clrldi  r9,r0,32
     500:	80 09 00 08 	lwz     r0,8(r9)
     504:	78 00 00 20 	clrldi  r0,r0,32
     508:	7c 03 03 78 	mr      r3,r0
     50c:	48 00 36 f9 	bl      0x3c04
     510:	60 00 00 00 	nop
     514:	4b ff ff 44 	b       0x458
     518:	80 1f 01 40 	lwz     r0,320(r31)
     51c:	78 09 00 20 	clrldi  r9,r0,32
     520:	80 09 00 08 	lwz     r0,8(r9)
     524:	78 00 00 20 	clrldi  r0,r0,32
     528:	7c 03 03 78 	mr      r3,r0
     52c:	48 00 36 d9 	bl      0x3c04
     530:	60 00 00 00 	nop
     534:	80 1f 01 40 	lwz     r0,320(r31)
     538:	78 09 00 20 	clrldi  r9,r0,32
     53c:	80 09 00 98 	lwz     r0,152(r9)
     540:	78 00 00 20 	clrldi  r0,r0,32
     544:	7c 03 03 78 	mr      r3,r0
     548:	38 80 00 00 	li      r4,0
     54c:	48 00 36 79 	bl      0x3bc4
     550:	60 00 00 00 	nop
     554:	80 1f 01 40 	lwz     r0,320(r31)
     558:	78 09 00 20 	clrldi  r9,r0,32
     55c:	80 09 00 a0 	lwz     r0,160(r9)
     560:	2f 80 00 00 	cmpwi   cr7,r0,0
     564:	40 9e 00 24 	bne-    cr7,0x588
     568:	80 1f 01 40 	lwz     r0,320(r31)
     56c:	78 09 00 20 	clrldi  r9,r0,32
     570:	80 09 00 98 	lwz     r0,152(r9)
     574:	78 00 00 20 	clrldi  r0,r0,32
     578:	7c 03 03 78 	mr      r3,r0
     57c:	48 00 36 89 	bl      0x3c04
     580:	60 00 00 00 	nop
     584:	48 00 04 78 	b       0x9fc
     588:	80 1f 01 40 	lwz     r0,320(r31)
     58c:	78 09 00 20 	clrldi  r9,r0,32
     590:	80 09 00 98 	lwz     r0,152(r9)
     594:	78 00 00 20 	clrldi  r0,r0,32
     598:	7c 03 03 78 	mr      r3,r0
     59c:	48 00 36 69 	bl      0x3c04
     5a0:	60 00 00 00 	nop
     5a4:	80 1f 00 98 	lwz     r0,152(r31)
     5a8:	2f 80 00 01 	cmpwi   cr7,r0,1
     5ac:	40 9e 00 28 	bne-    cr7,0x5d4
     5b0:	80 1f 01 40 	lwz     r0,320(r31)
     5b4:	78 0b 00 20 	clrldi  r11,r0,32
     5b8:	39 3f 00 98 	addi    r9,r31,152
     5bc:	38 09 00 18 	addi    r0,r9,24
     5c0:	78 00 00 20 	clrldi  r0,r0,32
     5c4:	7d 63 5b 78 	mr      r3,r11
     5c8:	7c 04 03 78 	mr      r4,r0
     5cc:	48 00 14 f9 	bl      0x1ac4
     5d0:	4b ff fe 88 	b       0x458
     5d4:	80 1f 00 98 	lwz     r0,152(r31)
     5d8:	2f 80 00 03 	cmpwi   cr7,r0,3
     5dc:	40 9e 00 58 	bne-    cr7,0x634
     5e0:	80 1f 01 40 	lwz     r0,320(r31)
     5e4:	78 09 00 20 	clrldi  r9,r0,32
     5e8:	80 09 00 bc 	lwz     r0,188(r9)
     5ec:	2f 80 00 00 	cmpwi   cr7,r0,0
     5f0:	41 9e fe 68 	beq+    cr7,0x458
     5f4:	80 1f 01 40 	lwz     r0,320(r31)
     5f8:	78 09 00 20 	clrldi  r9,r0,32
     5fc:	81 69 00 bc 	lwz     r11,188(r9)
     600:	80 1f 01 40 	lwz     r0,320(r31)
     604:	78 09 00 20 	clrldi  r9,r0,32
     608:	80 09 00 c0 	lwz     r0,192(r9)
     60c:	78 00 00 20 	clrldi  r0,r0,32
     610:	79 69 00 20 	clrldi  r9,r11,32
     614:	7c 03 03 78 	mr      r3,r0
     618:	80 09 00 00 	lwz     r0,0(r9)
     61c:	7c 09 03 a6 	mtctr   r0
     620:	f8 41 00 28 	std     r2,40(r1)
     624:	80 49 00 04 	lwz     r2,4(r9)
     628:	4e 80 04 21 	bctrl
     62c:	e8 41 00 28 	ld      r2,40(r1)
     630:	4b ff fe 28 	b       0x458
     634:	80 1f 01 40 	lwz     r0,320(r31)
     638:	78 09 00 20 	clrldi  r9,r0,32
     63c:	80 09 00 8c 	lwz     r0,140(r9)
     640:	78 00 00 20 	clrldi  r0,r0,32
     644:	7c 03 03 78 	mr      r3,r0
     648:	38 80 00 00 	li      r4,0
     64c:	48 00 35 79 	bl      0x3bc4
     650:	60 00 00 00 	nop
     654:	48 00 00 24 	b       0x678
     658:	80 1f 01 40 	lwz     r0,320(r31)
     65c:	78 09 00 20 	clrldi  r9,r0,32
     660:	80 09 00 90 	lwz     r0,144(r9)
     664:	78 00 00 20 	clrldi  r0,r0,32
     668:	7c 03 03 78 	mr      r3,r0
     66c:	38 80 00 00 	li      r4,0
     670:	48 00 35 f5 	bl      0x3c64
     674:	60 00 00 00 	nop
     678:	80 1f 01 40 	lwz     r0,320(r31)
     67c:	78 09 00 20 	clrldi  r9,r0,32
     680:	80 09 00 94 	lwz     r0,148(r9)
     684:	2f 80 00 00 	cmpwi   cr7,r0,0
     688:	40 9e ff d0 	bne+    cr7,0x658
     68c:	80 1f 01 40 	lwz     r0,320(r31)
     690:	78 09 00 20 	clrldi  r9,r0,32
     694:	80 09 00 98 	lwz     r0,152(r9)
     698:	78 00 00 20 	clrldi  r0,r0,32
     69c:	7c 03 03 78 	mr      r3,r0
     6a0:	38 80 00 00 	li      r4,0
     6a4:	48 00 35 21 	bl      0x3bc4
     6a8:	60 00 00 00 	nop
     6ac:	80 1f 01 40 	lwz     r0,320(r31)
     6b0:	78 09 00 20 	clrldi  r9,r0,32
     6b4:	80 09 00 a0 	lwz     r0,160(r9)
     6b8:	2f 80 00 00 	cmpwi   cr7,r0,0
     6bc:	40 9e 00 40 	bne-    cr7,0x6fc
     6c0:	80 1f 01 40 	lwz     r0,320(r31)
     6c4:	78 09 00 20 	clrldi  r9,r0,32
     6c8:	80 09 00 98 	lwz     r0,152(r9)
     6cc:	78 00 00 20 	clrldi  r0,r0,32
     6d0:	7c 03 03 78 	mr      r3,r0
     6d4:	48 00 35 31 	bl      0x3c04
     6d8:	60 00 00 00 	nop
     6dc:	80 1f 01 40 	lwz     r0,320(r31)
     6e0:	78 09 00 20 	clrldi  r9,r0,32
     6e4:	80 09 00 8c 	lwz     r0,140(r9)
     6e8:	78 00 00 20 	clrldi  r0,r0,32
     6ec:	7c 03 03 78 	mr      r3,r0
     6f0:	48 00 35 15 	bl      0x3c04
     6f4:	60 00 00 00 	nop
     6f8:	48 00 03 04 	b       0x9fc
     6fc:	80 1f 01 40 	lwz     r0,320(r31)
     700:	78 09 00 20 	clrldi  r9,r0,32
     704:	80 09 00 98 	lwz     r0,152(r9)
     708:	78 00 00 20 	clrldi  r0,r0,32
     70c:	7c 03 03 78 	mr      r3,r0
     710:	48 00 34 f5 	bl      0x3c04
     714:	60 00 00 00 	nop
     718:	80 1f 01 40 	lwz     r0,320(r31)
     71c:	78 09 00 20 	clrldi  r9,r0,32
     720:	80 09 00 c4 	lwz     r0,196(r9)
     724:	90 1f 00 a8 	stw     r0,168(r31)
     728:	80 1f 00 a0 	lwz     r0,160(r31)
     72c:	7c 0b 03 78 	mr      r11,r0
     730:	81 5f 00 a4 	lwz     r10,164(r31)
     734:	80 1f 00 a8 	lwz     r0,168(r31)
     738:	7c 09 03 78 	mr      r9,r0
     73c:	80 1f 01 40 	lwz     r0,320(r31)
     740:	78 08 00 20 	clrldi  r8,r0,32
     744:	79 6b 00 20 	clrldi  r11,r11,32
     748:	79 4a 00 20 	clrldi  r10,r10,32
     74c:	79 27 00 20 	clrldi  r7,r9,32
     750:	39 3f 00 98 	addi    r9,r31,152
     754:	38 09 00 14 	addi    r0,r9,20
     758:	78 09 00 20 	clrldi  r9,r0,32
     75c:	38 1f 00 7c 	addi    r0,r31,124
     760:	78 00 00 20 	clrldi  r0,r0,32
     764:	7d 03 43 78 	mr      r3,r8
     768:	7d 64 5b 78 	mr      r4,r11
     76c:	7d 45 53 78 	mr      r5,r10
     770:	7c e6 3b 78 	mr      r6,r7
     774:	7d 27 4b 78 	mr      r7,r9
     778:	7c 08 03 78 	mr      r8,r0
     77c:	48 00 1a 65 	bl      0x21e0
     780:	7c 60 1b 78 	mr      r0,r3
     784:	90 1f 00 74 	stw     r0,116(r31)
     788:	80 1f 00 74 	lwz     r0,116(r31)
     78c:	2f 80 00 00 	cmpwi   cr7,r0,0
     790:	41 9e 00 c0 	beq-    cr7,0x850
     794:	80 1f 00 94 	lwz     r0,148(r31)
     798:	90 1f 00 bc 	stw     r0,188(r31)
     79c:	38 1f 00 bc 	addi    r0,r31,188
     7a0:	78 09 00 20 	clrldi  r9,r0,32
     7a4:	38 1f 00 b8 	addi    r0,r31,184
     7a8:	78 00 00 20 	clrldi  r0,r0,32
     7ac:	7d 23 4b 78 	mr      r3,r9
     7b0:	7c 04 03 78 	mr      r4,r0
     7b4:	48 00 1b 71 	bl      0x2324
     7b8:	7c 60 1b 78 	mr      r0,r3
     7bc:	90 1f 00 78 	stw     r0,120(r31)
     7c0:	80 1f 00 78 	lwz     r0,120(r31)
     7c4:	2f 80 00 00 	cmpwi   cr7,r0,0
     7c8:	41 9e 00 28 	beq-    cr7,0x7f0
     7cc:	80 1f 00 bc 	lwz     r0,188(r31)
     7d0:	7c 00 07 b4 	extsw   r0,r0
     7d4:	80 62 80 00 	lwz     r3,-32768(r2)
     7d8:	7c 04 03 78 	mr      r4,r0
     7dc:	48 00 39 a9 	bl      0x4184
     7e0:	e8 41 00 28 	ld      r2,40(r1)
     7e4:	3c 00 80 61 	lis     r0,-32671
     7e8:	60 00 27 81 	ori     r0,r0,10113
     7ec:	90 1f 00 b8 	stw     r0,184(r31)
     7f0:	80 1f 01 40 	lwz     r0,320(r31)
     7f4:	78 09 00 20 	clrldi  r9,r0,32
     7f8:	80 09 00 b4 	lwz     r0,180(r9)
     7fc:	2f 80 00 00 	cmpwi   cr7,r0,0
     800:	41 9e 00 58 	beq-    cr7,0x858
     804:	80 1f 01 40 	lwz     r0,320(r31)
     808:	78 09 00 20 	clrldi  r9,r0,32
     80c:	81 49 00 b4 	lwz     r10,180(r9)
     810:	81 7f 00 b8 	lwz     r11,184(r31)
     814:	80 1f 01 40 	lwz     r0,320(r31)
     818:	78 09 00 20 	clrldi  r9,r0,32
     81c:	80 09 00 b8 	lwz     r0,184(r9)
     820:	7d 69 07 b4 	extsw   r9,r11
     824:	78 00 00 20 	clrldi  r0,r0,32
     828:	79 4b 00 20 	clrldi  r11,r10,32
     82c:	7d 23 4b 78 	mr      r3,r9
     830:	7c 04 03 78 	mr      r4,r0
     834:	80 0b 00 00 	lwz     r0,0(r11)
     838:	7c 09 03 a6 	mtctr   r0
     83c:	f8 41 00 28 	std     r2,40(r1)
     840:	80 4b 00 04 	lwz     r2,4(r11)
     844:	4e 80 04 21 	bctrl
     848:	e8 41 00 28 	ld      r2,40(r1)
     84c:	48 00 00 0c 	b       0x858
     850:	38 00 00 00 	li      r0,0
     854:	90 1f 00 b8 	stw     r0,184(r31)
     858:	80 1f 01 40 	lwz     r0,320(r31)
     85c:	78 09 00 20 	clrldi  r9,r0,32
     860:	80 09 00 a4 	lwz     r0,164(r9)
     864:	2f 80 00 00 	cmpwi   cr7,r0,0
     868:	41 9e 00 4c 	beq-    cr7,0x8b4
     86c:	80 1f 01 40 	lwz     r0,320(r31)
     870:	78 09 00 20 	clrldi  r9,r0,32
     874:	81 49 00 a4 	lwz     r10,164(r9)
     878:	81 7f 00 9c 	lwz     r11,156(r31)
     87c:	80 1f 01 40 	lwz     r0,320(r31)
     880:	78 09 00 20 	clrldi  r9,r0,32
     884:	80 09 00 a8 	lwz     r0,168(r9)
     888:	79 69 00 20 	clrldi  r9,r11,32
     88c:	78 00 00 20 	clrldi  r0,r0,32
     890:	79 4b 00 20 	clrldi  r11,r10,32
     894:	7d 23 4b 78 	mr      r3,r9
     898:	7c 04 03 78 	mr      r4,r0
     89c:	80 0b 00 00 	lwz     r0,0(r11)
     8a0:	7c 09 03 a6 	mtctr   r0
     8a4:	f8 41 00 28 	std     r2,40(r1)
     8a8:	80 4b 00 04 	lwz     r2,4(r11)
     8ac:	4e 80 04 21 	bctrl
     8b0:	e8 41 00 28 	ld      r2,40(r1)
     8b4:	80 1f 01 40 	lwz     r0,320(r31)
     8b8:	78 09 00 20 	clrldi  r9,r0,32
     8bc:	38 00 00 01 	li      r0,1
     8c0:	90 09 00 94 	stw     r0,148(r9)
     8c4:	80 1f 01 40 	lwz     r0,320(r31)
     8c8:	78 09 00 20 	clrldi  r9,r0,32
     8cc:	80 09 00 8c 	lwz     r0,140(r9)
     8d0:	78 00 00 20 	clrldi  r0,r0,32
     8d4:	7c 03 03 78 	mr      r3,r0
     8d8:	48 00 33 2d 	bl      0x3c04
     8dc:	60 00 00 00 	nop
     8e0:	80 1f 01 40 	lwz     r0,320(r31)
     8e4:	78 09 00 20 	clrldi  r9,r0,32
     8e8:	80 09 00 ac 	lwz     r0,172(r9)
     8ec:	2f 80 00 00 	cmpwi   cr7,r0,0
     8f0:	41 9e fb 68 	beq+    cr7,0x458
     8f4:	38 1f 00 7c 	addi    r0,r31,124
     8f8:	90 1f 00 b4 	stw     r0,180(r31)
     8fc:	80 1f 00 7c 	lwz     r0,124(r31)
     900:	54 09 05 2a 	rlwinm  r9,r0,0,20,21
     904:	91 3f 00 e0 	stw     r9,224(r31)
     908:	80 1f 00 e0 	lwz     r0,224(r31)
     90c:	2f 80 04 00 	cmpwi   cr7,r0,1024
     910:	41 9e 00 38 	beq-    cr7,0x948
     914:	81 3f 00 e0 	lwz     r9,224(r31)
     918:	2f 89 08 00 	cmpwi   cr7,r9,2048
     91c:	41 9e 00 14 	beq-    cr7,0x930
     920:	80 1f 00 e0 	lwz     r0,224(r31)
     924:	2f 80 00 00 	cmpwi   cr7,r0,0
     928:	41 9e 00 14 	beq-    cr7,0x93c
     92c:	48 00 00 28 	b       0x954
     930:	38 00 00 09 	li      r0,9
     934:	98 1f 00 70 	stb     r0,112(r31)
     938:	48 00 00 40 	b       0x978
     93c:	38 00 00 08 	li      r0,8
     940:	98 1f 00 70 	stb     r0,112(r31)
     944:	48 00 00 34 	b       0x978
     948:	38 00 00 07 	li      r0,7
     94c:	98 1f 00 70 	stb     r0,112(r31)
     950:	48 00 00 28 	b       0x978
     954:	80 1f 00 7c 	lwz     r0,124(r31)
     958:	54 00 05 2a 	rlwinm  r0,r0,0,20,21
     95c:	78 00 00 20 	clrldi  r0,r0,32
     960:	80 62 80 04 	lwz     r3,-32764(r2)
     964:	7c 04 03 78 	mr      r4,r0
     968:	48 00 38 1d 	bl      0x4184
     96c:	e8 41 00 28 	ld      r2,40(r1)
     970:	38 00 ff ff 	li      r0,-1
     974:	98 1f 00 70 	stb     r0,112(r31)
     978:	80 1f 01 40 	lwz     r0,320(r31)
     97c:	78 09 00 20 	clrldi  r9,r0,32
     980:	80 c9 00 ac 	lwz     r6,172(r9)
     984:	81 7f 00 9c 	lwz     r11,156(r31)
     988:	81 5f 00 a8 	lwz     r10,168(r31)
     98c:	81 1f 00 ac 	lwz     r8,172(r31)
     990:	80 1f 01 40 	lwz     r0,320(r31)
     994:	78 09 00 20 	clrldi  r9,r0,32
     998:	80 09 00 b0 	lwz     r0,176(r9)
     99c:	81 3f 00 b8 	lwz     r9,184(r31)
     9a0:	79 6b 00 20 	clrldi  r11,r11,32
     9a4:	79 4a 00 20 	clrldi  r10,r10,32
     9a8:	79 08 00 20 	clrldi  r8,r8,32
     9ac:	78 07 00 20 	clrldi  r7,r0,32
     9b0:	38 1f 00 b4 	addi    r0,r31,180
     9b4:	78 1d 00 20 	clrldi  r29,r0,32
     9b8:	88 1f 00 70 	lbz     r0,112(r31)
     9bc:	7c 00 07 74 	extsb   r0,r0
     9c0:	7d 29 07 b4 	extsw   r9,r9
     9c4:	78 dc 00 20 	clrldi  r28,r6,32
     9c8:	7d 63 5b 78 	mr      r3,r11
     9cc:	7d 44 53 78 	mr      r4,r10
     9d0:	7d 05 43 78 	mr      r5,r8
     9d4:	7c e6 3b 78 	mr      r6,r7
     9d8:	7f a7 eb 78 	mr      r7,r29
     9dc:	7c 08 03 78 	mr      r8,r0
     9e0:	80 1c 00 00 	lwz     r0,0(r28)
     9e4:	7c 09 03 a6 	mtctr   r0
     9e8:	f8 41 00 28 	std     r2,40(r1)
     9ec:	80 5c 00 04 	lwz     r2,4(r28)
     9f0:	4e 80 04 21 	bctrl
     9f4:	e8 41 00 28 	ld      r2,40(r1)
     9f8:	4b ff fa 60 	b       0x458
     9fc:	38 60 00 00 	li      r3,0
     a00:	48 00 37 a5 	bl      0x41a4
     a04:	e8 41 00 28 	ld      r2,40(r1)
     a08:	e9 61 00 00 	ld      r11,0(r1)
     a0c:	e8 0b 00 10 	ld      r0,16(r11)
     a10:	7c 08 03 a6 	mtlr    r0
     a14:	eb 8b ff e0 	ld      r28,-32(r11)
     a18:	eb ab ff e8 	ld      r29,-24(r11)
     a1c:	eb eb ff f8 	ld      r31,-8(r11)
     a20:	7d 61 5b 78 	mr      r1,r11
     a24:	4e 80 00 20 	blr
     a28:	f8 21 ff 41 	stdu    r1,-192(r1)
     a2c:	7c 08 02 a6 	mflr    r0
     a30:	fb e1 00 b8 	std     r31,184(r1)
     a34:	f8 01 00 d0 	std     r0,208(r1)
     a38:	7c 3f 0b 78 	mr      r31,r1
     a3c:	7c 60 1b 78 	mr      r0,r3
     a40:	7c 89 23 78 	mr      r9,r4
     a44:	90 1f 00 f0 	stw     r0,240(r31)
     a48:	91 3f 00 f8 	stw     r9,248(r31)
     a4c:	38 00 00 02 	li      r0,2
     a50:	90 1f 00 70 	stw     r0,112(r31)
     a54:	38 00 00 20 	li      r0,32
     a58:	90 1f 00 74 	stw     r0,116(r31)
     a5c:	38 00 02 00 	li      r0,512
     a60:	90 1f 00 78 	stw     r0,120(r31)
     a64:	38 00 20 00 	li      r0,8192
     a68:	90 1f 00 7c 	stw     r0,124(r31)
     a6c:	38 00 00 00 	li      r0,0
     a70:	f8 1f 00 80 	std     r0,128(r31)
     a74:	38 00 00 00 	li      r0,0
     a78:	90 1f 00 88 	stw     r0,136(r31)
     a7c:	38 00 00 00 	li      r0,0
     a80:	98 1f 00 90 	stb     r0,144(r31)
     a84:	38 00 02 00 	li      r0,512
     a88:	90 1f 00 98 	stw     r0,152(r31)
     a8c:	38 00 00 00 	li      r0,0
     a90:	f8 1f 00 a0 	std     r0,160(r31)
     a94:	38 00 00 00 	li      r0,0
     a98:	90 1f 00 9c 	stw     r0,156(r31)
     a9c:	38 00 00 00 	li      r0,0
     aa0:	98 1f 00 a8 	stb     r0,168(r31)
     aa4:	38 1f 00 90 	addi    r0,r31,144
     aa8:	78 00 00 20 	clrldi  r0,r0,32
     aac:	7c 03 03 78 	mr      r3,r0
     ab0:	80 82 80 08 	lwz     r4,-32760(r2)
     ab4:	48 00 30 29 	bl      0x3adc
     ab8:	60 00 00 00 	nop
     abc:	39 3f 00 98 	addi    r9,r31,152
     ac0:	38 09 00 10 	addi    r0,r9,16
     ac4:	78 00 00 20 	clrldi  r0,r0,32
     ac8:	7c 03 03 78 	mr      r3,r0
     acc:	80 82 80 0c 	lwz     r4,-32756(r2)
     ad0:	48 00 30 25 	bl      0x3af4
     ad4:	60 00 00 00 	nop
     ad8:	81 3f 00 f0 	lwz     r9,240(r31)
     adc:	38 09 00 08 	addi    r0,r9,8
     ae0:	78 09 00 20 	clrldi  r9,r0,32
     ae4:	38 1f 00 70 	addi    r0,r31,112
     ae8:	78 00 00 20 	clrldi  r0,r0,32
     aec:	7d 23 4b 78 	mr      r3,r9
     af0:	7c 04 03 78 	mr      r4,r0
     af4:	48 00 30 91 	bl      0x3b84
     af8:	60 00 00 00 	nop
     afc:	81 3f 00 f0 	lwz     r9,240(r31)
     b00:	39 69 00 0c 	addi    r11,r9,12
     b04:	80 1f 00 f0 	lwz     r0,240(r31)
     b08:	78 09 00 20 	clrldi  r9,r0,32
     b0c:	80 09 00 08 	lwz     r0,8(r9)
     b10:	79 69 00 20 	clrldi  r9,r11,32
     b14:	78 0b 00 20 	clrldi  r11,r0,32
     b18:	38 1f 00 98 	addi    r0,r31,152
     b1c:	78 00 00 20 	clrldi  r0,r0,32
     b20:	7d 23 4b 78 	mr      r3,r9
     b24:	7d 64 5b 78 	mr      r4,r11
     b28:	7c 05 03 78 	mr      r5,r0
     b2c:	48 00 30 f9 	bl      0x3c24
     b30:	60 00 00 00 	nop
     b34:	38 1f 00 90 	addi    r0,r31,144
     b38:	78 00 00 20 	clrldi  r0,r0,32
     b3c:	7c 03 03 78 	mr      r3,r0
     b40:	80 82 80 10 	lwz     r4,-32752(r2)
     b44:	48 00 2f 99 	bl      0x3adc
     b48:	60 00 00 00 	nop
     b4c:	39 3f 00 98 	addi    r9,r31,152
     b50:	38 09 00 10 	addi    r0,r9,16
     b54:	78 00 00 20 	clrldi  r0,r0,32
     b58:	7c 03 03 78 	mr      r3,r0
     b5c:	80 82 80 14 	lwz     r4,-32748(r2)
     b60:	48 00 2f 95 	bl      0x3af4
     b64:	60 00 00 00 	nop
     b68:	81 3f 00 f0 	lwz     r9,240(r31)
     b6c:	38 09 00 98 	addi    r0,r9,152
     b70:	78 09 00 20 	clrldi  r9,r0,32
     b74:	38 1f 00 70 	addi    r0,r31,112
     b78:	78 00 00 20 	clrldi  r0,r0,32
     b7c:	7d 23 4b 78 	mr      r3,r9
     b80:	7c 04 03 78 	mr      r4,r0
     b84:	48 00 30 01 	bl      0x3b84
     b88:	60 00 00 00 	nop
     b8c:	81 3f 00 f0 	lwz     r9,240(r31)
     b90:	39 69 00 9c 	addi    r11,r9,156
     b94:	80 1f 00 f0 	lwz     r0,240(r31)
     b98:	78 09 00 20 	clrldi  r9,r0,32
     b9c:	80 09 00 98 	lwz     r0,152(r9)
     ba0:	79 69 00 20 	clrldi  r9,r11,32
     ba4:	78 0b 00 20 	clrldi  r11,r0,32
     ba8:	38 1f 00 98 	addi    r0,r31,152
     bac:	78 00 00 20 	clrldi  r0,r0,32
     bb0:	7d 23 4b 78 	mr      r3,r9
     bb4:	7d 64 5b 78 	mr      r4,r11
     bb8:	7c 05 03 78 	mr      r5,r0
     bbc:	48 00 30 69 	bl      0x3c24
     bc0:	60 00 00 00 	nop
     bc4:	38 1f 00 90 	addi    r0,r31,144
     bc8:	78 00 00 20 	clrldi  r0,r0,32
     bcc:	7c 03 03 78 	mr      r3,r0
     bd0:	80 82 80 18 	lwz     r4,-32744(r2)
     bd4:	48 00 2f 09 	bl      0x3adc
     bd8:	60 00 00 00 	nop
     bdc:	39 3f 00 98 	addi    r9,r31,152
     be0:	38 09 00 10 	addi    r0,r9,16
     be4:	78 00 00 20 	clrldi  r0,r0,32
     be8:	7c 03 03 78 	mr      r3,r0
     bec:	80 82 80 1c 	lwz     r4,-32740(r2)
     bf0:	48 00 2f 05 	bl      0x3af4
     bf4:	60 00 00 00 	nop
     bf8:	81 3f 00 f0 	lwz     r9,240(r31)
     bfc:	38 09 00 8c 	addi    r0,r9,140
     c00:	78 09 00 20 	clrldi  r9,r0,32
     c04:	38 1f 00 70 	addi    r0,r31,112
     c08:	78 00 00 20 	clrldi  r0,r0,32
     c0c:	7d 23 4b 78 	mr      r3,r9
     c10:	7c 04 03 78 	mr      r4,r0
     c14:	48 00 2f 71 	bl      0x3b84
     c18:	60 00 00 00 	nop
     c1c:	81 3f 00 f0 	lwz     r9,240(r31)
     c20:	39 69 00 90 	addi    r11,r9,144
     c24:	80 1f 00 f0 	lwz     r0,240(r31)
     c28:	78 09 00 20 	clrldi  r9,r0,32
     c2c:	80 09 00 8c 	lwz     r0,140(r9)
     c30:	79 69 00 20 	clrldi  r9,r11,32
     c34:	78 0b 00 20 	clrldi  r11,r0,32
     c38:	38 1f 00 98 	addi    r0,r31,152
     c3c:	78 00 00 20 	clrldi  r0,r0,32
     c40:	7d 23 4b 78 	mr      r3,r9
     c44:	7d 64 5b 78 	mr      r4,r11
     c48:	7c 05 03 78 	mr      r5,r0
     c4c:	48 00 2f d9 	bl      0x3c24
     c50:	60 00 00 00 	nop
     c54:	80 1f 00 f0 	lwz     r0,240(r31)
     c58:	78 09 00 20 	clrldi  r9,r0,32
     c5c:	80 09 00 8c 	lwz     r0,140(r9)
     c60:	78 00 00 20 	clrldi  r0,r0,32
     c64:	7c 03 03 78 	mr      r3,r0
     c68:	38 80 00 00 	li      r4,0
     c6c:	48 00 2f 59 	bl      0x3bc4
     c70:	60 00 00 00 	nop
     c74:	80 1f 00 f0 	lwz     r0,240(r31)
     c78:	78 09 00 20 	clrldi  r9,r0,32
     c7c:	38 00 00 00 	li      r0,0
     c80:	90 09 00 94 	stw     r0,148(r9)
     c84:	80 1f 00 f0 	lwz     r0,240(r31)
     c88:	78 09 00 20 	clrldi  r9,r0,32
     c8c:	80 09 00 90 	lwz     r0,144(r9)
     c90:	78 00 00 20 	clrldi  r0,r0,32
     c94:	7c 03 03 78 	mr      r3,r0
     c98:	48 00 2f ed 	bl      0x3c84
     c9c:	60 00 00 00 	nop
     ca0:	80 1f 00 f0 	lwz     r0,240(r31)
     ca4:	78 09 00 20 	clrldi  r9,r0,32
     ca8:	80 09 00 8c 	lwz     r0,140(r9)
     cac:	78 00 00 20 	clrldi  r0,r0,32
     cb0:	7c 03 03 78 	mr      r3,r0
     cb4:	48 00 2f 51 	bl      0x3c04
     cb8:	60 00 00 00 	nop
     cbc:	81 7f 00 f0 	lwz     r11,240(r31)
     cc0:	81 02 80 20 	lwz     r8,-32736(r2)
     cc4:	80 1f 00 f0 	lwz     r0,240(r31)
     cc8:	78 07 00 20 	clrldi  r7,r0,32
     ccc:	80 1f 00 f8 	lwz     r0,248(r31)
     cd0:	78 09 00 20 	clrldi  r9,r0,32
     cd4:	80 09 00 08 	lwz     r0,8(r9)
     cd8:	7c 0a 03 78 	mr      r10,r0
     cdc:	80 1f 00 f8 	lwz     r0,248(r31)
     ce0:	78 09 00 20 	clrldi  r9,r0,32
     ce4:	80 09 00 10 	lwz     r0,16(r9)
     ce8:	79 69 00 20 	clrldi  r9,r11,32
     cec:	79 0b 00 20 	clrldi  r11,r8,32
     cf0:	7d 4a 07 b4 	extsw   r10,r10
     cf4:	78 00 00 20 	clrldi  r0,r0,32
     cf8:	7d 23 4b 78 	mr      r3,r9
     cfc:	7d 64 5b 78 	mr      r4,r11
     d00:	7c e5 3b 78 	mr      r5,r7
     d04:	7d 46 53 78 	mr      r6,r10
     d08:	7c 07 03 78 	mr      r7,r0
     d0c:	39 00 00 01 	li      r8,1
     d10:	81 22 80 24 	lwz     r9,-32732(r2)
     d14:	48 00 34 31 	bl      0x4144
     d18:	e8 41 00 28 	ld      r2,40(r1)
     d1c:	38 00 00 00 	li      r0,0
     d20:	7c 00 07 b4 	extsw   r0,r0
     d24:	7c 03 03 78 	mr      r3,r0
     d28:	e9 61 00 00 	ld      r11,0(r1)
     d2c:	e8 0b 00 10 	ld      r0,16(r11)
     d30:	7c 08 03 a6 	mtlr    r0
     d34:	eb eb ff f8 	ld      r31,-8(r11)
     d38:	7d 61 5b 78 	mr      r1,r11
     d3c:	4e 80 00 20 	blr
     d40:	f8 21 ff 71 	stdu    r1,-144(r1)
     d44:	7c 08 02 a6 	mflr    r0
     d48:	fb a1 00 78 	std     r29,120(r1)
     d4c:	fb e1 00 88 	std     r31,136(r1)
     d50:	f8 01 00 a0 	std     r0,160(r1)
     d54:	7c 3f 0b 78 	mr      r31,r1
     d58:	7c 60 1b 78 	mr      r0,r3
     d5c:	90 1f 00 c0 	stw     r0,192(r31)
     d60:	80 1f 00 c0 	lwz     r0,192(r31)
     d64:	78 09 00 20 	clrldi  r9,r0,32
     d68:	38 00 29 d4 	li      r0,10708
     d6c:	90 09 00 00 	stw     r0,0(r9)
     d70:	80 1f 00 c0 	lwz     r0,192(r31)
     d74:	78 09 00 20 	clrldi  r9,r0,32
     d78:	83 a9 00 00 	lwz     r29,0(r9)
     d7c:	48 00 00 61 	bl      0xddc
     d80:	7c 60 1b 78 	mr      r0,r3
     d84:	7d 7d 02 14 	add     r11,r29,r0
     d88:	80 1f 00 c0 	lwz     r0,192(r31)
     d8c:	78 09 00 20 	clrldi  r9,r0,32
     d90:	91 69 00 00 	stw     r11,0(r9)
     d94:	80 1f 00 c0 	lwz     r0,192(r31)
     d98:	78 09 00 20 	clrldi  r9,r0,32
     d9c:	81 29 00 00 	lwz     r9,0(r9)
     da0:	38 09 00 7f 	addi    r0,r9,127
     da4:	54 0b 00 30 	rlwinm  r11,r0,0,0,24
     da8:	80 1f 00 c0 	lwz     r0,192(r31)
     dac:	78 09 00 20 	clrldi  r9,r0,32
     db0:	91 69 00 00 	stw     r11,0(r9)
     db4:	38 00 00 00 	li      r0,0
     db8:	78 00 00 20 	clrldi  r0,r0,32
     dbc:	7c 03 03 78 	mr      r3,r0
     dc0:	e9 61 00 00 	ld      r11,0(r1)
     dc4:	e8 0b 00 10 	ld      r0,16(r11)
     dc8:	7c 08 03 a6 	mtlr    r0
     dcc:	eb ab ff e8 	ld      r29,-24(r11)
     dd0:	eb eb ff f8 	ld      r31,-8(r11)
     dd4:	7d 61 5b 78 	mr      r1,r11
     dd8:	4e 80 00 20 	blr
     ddc:	f8 21 ff 71 	stdu    r1,-144(r1)
     de0:	7c 08 02 a6 	mflr    r0
     de4:	fb e1 00 88 	std     r31,136(r1)
     de8:	f8 01 00 a0 	std     r0,160(r1)
     dec:	7c 3f 0b 78 	mr      r31,r1
     df0:	38 00 00 00 	li      r0,0
     df4:	90 1f 00 70 	stw     r0,112(r31)
     df8:	81 3f 00 70 	lwz     r9,112(r31)
     dfc:	38 09 10 7f 	addi    r0,r9,4223
     e00:	90 1f 00 70 	stw     r0,112(r31)
     e04:	81 3f 00 70 	lwz     r9,112(r31)
     e08:	38 09 19 7f 	addi    r0,r9,6527
     e0c:	90 1f 00 70 	stw     r0,112(r31)
     e10:	81 3f 00 70 	lwz     r9,112(r31)
     e14:	38 09 00 ff 	addi    r0,r9,255
     e18:	90 1f 00 70 	stw     r0,112(r31)
     e1c:	81 3f 00 70 	lwz     r9,112(r31)
     e20:	38 09 00 1f 	addi    r0,r9,31
     e24:	90 1f 00 70 	stw     r0,112(r31)
     e28:	81 3f 00 70 	lwz     r9,112(r31)
     e2c:	38 09 00 ff 	addi    r0,r9,255
     e30:	90 1f 00 70 	stw     r0,112(r31)
     e34:	81 3f 00 70 	lwz     r9,112(r31)
     e38:	38 09 00 1f 	addi    r0,r9,31
     e3c:	90 1f 00 70 	stw     r0,112(r31)
     e40:	81 3f 00 70 	lwz     r9,112(r31)
     e44:	38 09 00 1f 	addi    r0,r9,31
     e48:	90 1f 00 70 	stw     r0,112(r31)
     e4c:	48 00 27 65 	bl      0x35b0
     e50:	60 00 00 00 	nop
     e54:	7c 60 1b 78 	mr      r0,r3
     e58:	7c 09 03 78 	mr      r9,r0
     e5c:	80 1f 00 70 	lwz     r0,112(r31)
     e60:	7d 29 02 14 	add     r9,r9,r0
     e64:	38 09 00 7f 	addi    r0,r9,127
     e68:	90 1f 00 70 	stw     r0,112(r31)
     e6c:	80 1f 00 70 	lwz     r0,112(r31)
     e70:	78 00 00 20 	clrldi  r0,r0,32
     e74:	7c 03 03 78 	mr      r3,r0
     e78:	e9 61 00 00 	ld      r11,0(r1)
     e7c:	e8 0b 00 10 	ld      r0,16(r11)
     e80:	7c 08 03 a6 	mtlr    r0
     e84:	eb eb ff f8 	ld      r31,-8(r11)
     e88:	7d 61 5b 78 	mr      r1,r11
     e8c:	4e 80 00 20 	blr
     e90:	f8 21 ff 31 	stdu    r1,-208(r1)
     e94:	7c 08 02 a6 	mflr    r0
     e98:	fb 61 00 a8 	std     r27,168(r1)
     e9c:	fb 81 00 b0 	std     r28,176(r1)
     ea0:	fb a1 00 b8 	std     r29,184(r1)
     ea4:	fb e1 00 c8 	std     r31,200(r1)
     ea8:	f8 01 00 e0 	std     r0,224(r1)
     eac:	7c 3f 0b 78 	mr      r31,r1
     eb0:	7c 60 1b 78 	mr      r0,r3
     eb4:	7c 8b 23 78 	mr      r11,r4
     eb8:	90 1f 01 00 	stw     r0,256(r31)
     ebc:	91 7f 01 08 	stw     r11,264(r31)
     ec0:	90 bf 01 10 	stw     r5,272(r31)
     ec4:	90 df 01 18 	stw     r6,280(r31)
     ec8:	90 ff 01 20 	stw     r7,288(r31)
     ecc:	91 1f 01 28 	stw     r8,296(r31)
     ed0:	91 3f 01 30 	stw     r9,304(r31)
     ed4:	91 5f 01 38 	stw     r10,312(r31)
     ed8:	80 1f 01 00 	lwz     r0,256(r31)
     edc:	78 09 00 20 	clrldi  r9,r0,32
     ee0:	80 1f 01 08 	lwz     r0,264(r31)
     ee4:	78 0b 00 20 	clrldi  r11,r0,32
     ee8:	80 1f 01 10 	lwz     r0,272(r31)
     eec:	78 0a 00 20 	clrldi  r10,r0,32
     ef0:	80 1f 01 18 	lwz     r0,280(r31)
     ef4:	78 08 00 20 	clrldi  r8,r0,32
     ef8:	80 1f 01 20 	lwz     r0,288(r31)
     efc:	78 07 00 20 	clrldi  r7,r0,32
     f00:	80 1f 01 28 	lwz     r0,296(r31)
     f04:	78 1d 00 20 	clrldi  r29,r0,32
     f08:	80 1f 01 30 	lwz     r0,304(r31)
     f0c:	78 1c 00 20 	clrldi  r28,r0,32
     f10:	80 1f 01 38 	lwz     r0,312(r31)
     f14:	78 1b 00 20 	clrldi  r27,r0,32
     f18:	80 1f 01 44 	lwz     r0,324(r31)
     f1c:	78 00 00 20 	clrldi  r0,r0,32
     f20:	f8 01 00 70 	std     r0,112(r1)
     f24:	80 1f 01 4c 	lwz     r0,332(r31)
     f28:	78 00 00 20 	clrldi  r0,r0,32
     f2c:	f8 01 00 78 	std     r0,120(r1)
     f30:	38 00 00 00 	li      r0,0
     f34:	f8 01 00 80 	std     r0,128(r1)
     f38:	7d 23 4b 78 	mr      r3,r9
     f3c:	7d 64 5b 78 	mr      r4,r11
     f40:	7d 45 53 78 	mr      r5,r10
     f44:	7d 06 43 78 	mr      r6,r8
     f48:	7f a8 eb 78 	mr      r8,r29
     f4c:	7f 89 e3 78 	mr      r9,r28
     f50:	7f 6a db 78 	mr      r10,r27
     f54:	48 00 00 3d 	bl      0xf90
     f58:	7c 60 1b 78 	mr      r0,r3
     f5c:	90 1f 00 90 	stw     r0,144(r31)
     f60:	80 1f 00 90 	lwz     r0,144(r31)
     f64:	7c 00 07 b4 	extsw   r0,r0
     f68:	7c 03 03 78 	mr      r3,r0
     f6c:	e9 61 00 00 	ld      r11,0(r1)
     f70:	e8 0b 00 10 	ld      r0,16(r11)
     f74:	7c 08 03 a6 	mtlr    r0
     f78:	eb 6b ff d8 	ld      r27,-40(r11)
     f7c:	eb 8b ff e0 	ld      r28,-32(r11)
     f80:	eb ab ff e8 	ld      r29,-24(r11)
     f84:	eb eb ff f8 	ld      r31,-8(r11)
     f88:	7d 61 5b 78 	mr      r1,r11
     f8c:	4e 80 00 20 	blr
     f90:	f8 21 ff 61 	stdu    r1,-160(r1)
     f94:	7c 08 02 a6 	mflr    r0
     f98:	fb e1 00 98 	std     r31,152(r1)
     f9c:	f8 01 00 b0 	std     r0,176(r1)
     fa0:	7c 3f 0b 78 	mr      r31,r1
     fa4:	7c 60 1b 78 	mr      r0,r3
     fa8:	7c 8b 23 78 	mr      r11,r4
     fac:	90 1f 00 d0 	stw     r0,208(r31)
     fb0:	91 7f 00 d8 	stw     r11,216(r31)
     fb4:	90 bf 00 e0 	stw     r5,224(r31)
     fb8:	90 df 00 e8 	stw     r6,232(r31)
     fbc:	90 ff 00 f0 	stw     r7,240(r31)
     fc0:	91 1f 00 f8 	stw     r8,248(r31)
     fc4:	91 3f 01 00 	stw     r9,256(r31)
     fc8:	91 5f 01 08 	stw     r10,264(r31)
     fcc:	80 1f 00 d0 	lwz     r0,208(r31)
     fd0:	90 1f 00 70 	stw     r0,112(r31)
     fd4:	80 1f 00 d0 	lwz     r0,208(r31)
     fd8:	78 09 00 20 	clrldi  r9,r0,32
     fdc:	38 00 00 00 	li      r0,0
     fe0:	90 09 00 a4 	stw     r0,164(r9)
     fe4:	80 1f 00 d0 	lwz     r0,208(r31)
     fe8:	78 09 00 20 	clrldi  r9,r0,32
     fec:	38 00 00 00 	li      r0,0
     ff0:	90 09 00 ac 	stw     r0,172(r9)
     ff4:	80 1f 00 d0 	lwz     r0,208(r31)
     ff8:	78 09 00 20 	clrldi  r9,r0,32
     ffc:	38 00 00 00 	li      r0,0
    1000:	90 09 00 b4 	stw     r0,180(r9)
    1004:	80 1f 00 d0 	lwz     r0,208(r31)
    1008:	78 09 00 20 	clrldi  r9,r0,32
    100c:	38 00 00 00 	li      r0,0
    1010:	90 09 00 bc 	stw     r0,188(r9)
    1014:	80 1f 00 d0 	lwz     r0,208(r31)
    1018:	78 09 00 20 	clrldi  r9,r0,32
    101c:	80 1f 00 d8 	lwz     r0,216(r31)
    1020:	90 09 00 a4 	stw     r0,164(r9)
    1024:	80 1f 00 d0 	lwz     r0,208(r31)
    1028:	78 09 00 20 	clrldi  r9,r0,32
    102c:	80 1f 00 e0 	lwz     r0,224(r31)
    1030:	90 09 00 a8 	stw     r0,168(r9)
    1034:	80 1f 00 d0 	lwz     r0,208(r31)
    1038:	78 09 00 20 	clrldi  r9,r0,32
    103c:	80 1f 00 e8 	lwz     r0,232(r31)
    1040:	90 09 00 ac 	stw     r0,172(r9)
    1044:	80 1f 00 d0 	lwz     r0,208(r31)
    1048:	78 09 00 20 	clrldi  r9,r0,32
    104c:	80 1f 00 f0 	lwz     r0,240(r31)
    1050:	90 09 00 b0 	stw     r0,176(r9)
    1054:	80 1f 00 d0 	lwz     r0,208(r31)
    1058:	78 09 00 20 	clrldi  r9,r0,32
    105c:	80 1f 00 f8 	lwz     r0,248(r31)
    1060:	90 09 00 b4 	stw     r0,180(r9)
    1064:	80 1f 00 d0 	lwz     r0,208(r31)
    1068:	78 09 00 20 	clrldi  r9,r0,32
    106c:	80 1f 01 00 	lwz     r0,256(r31)
    1070:	90 09 00 b8 	stw     r0,184(r9)
    1074:	80 1f 00 d0 	lwz     r0,208(r31)
    1078:	78 09 00 20 	clrldi  r9,r0,32
    107c:	80 1f 01 08 	lwz     r0,264(r31)
    1080:	90 09 00 bc 	stw     r0,188(r9)
    1084:	80 1f 00 d0 	lwz     r0,208(r31)
    1088:	78 09 00 20 	clrldi  r9,r0,32
    108c:	80 1f 01 14 	lwz     r0,276(r31)
    1090:	90 09 00 c0 	stw     r0,192(r9)
    1094:	80 1f 01 24 	lwz     r0,292(r31)
    1098:	2f 80 00 00 	cmpwi   cr7,r0,0
    109c:	40 9e 00 6c 	bne-    cr7,0x1108
    10a0:	80 1f 00 d0 	lwz     r0,208(r31)
    10a4:	78 09 00 20 	clrldi  r9,r0,32
    10a8:	38 00 00 01 	li      r0,1
    10ac:	98 09 00 c8 	stb     r0,200(r9)
    10b0:	38 00 00 00 	li      r0,0
    10b4:	90 1f 00 74 	stw     r0,116(r31)
    10b8:	48 00 00 30 	b       0x10e8
    10bc:	81 3f 00 74 	lwz     r9,116(r31)
    10c0:	80 1f 00 d0 	lwz     r0,208(r31)
    10c4:	78 0b 00 20 	clrldi  r11,r0,32
    10c8:	38 09 00 e0 	addi    r0,r9,224
    10cc:	7c 00 07 b4 	extsw   r0,r0
    10d0:	7d 2b 02 14 	add     r9,r11,r0
    10d4:	38 00 00 01 	li      r0,1
    10d8:	98 09 00 14 	stb     r0,20(r9)
    10dc:	81 3f 00 74 	lwz     r9,116(r31)
    10e0:	38 09 00 01 	addi    r0,r9,1
    10e4:	90 1f 00 74 	stw     r0,116(r31)
    10e8:	80 1f 00 74 	lwz     r0,116(r31)
    10ec:	2b 80 00 07 	cmplwi  cr7,r0,7
    10f0:	40 9d ff cc 	ble+    cr7,0x10bc
    10f4:	80 1f 00 d0 	lwz     r0,208(r31)
    10f8:	78 09 00 20 	clrldi  r9,r0,32
    10fc:	38 00 00 01 	li      r0,1
    1100:	90 09 00 fc 	stw     r0,252(r9)
    1104:	48 00 00 84 	b       0x1188
    1108:	80 1f 00 d0 	lwz     r0,208(r31)
    110c:	78 09 00 20 	clrldi  r9,r0,32
    1110:	38 00 00 00 	li      r0,0
    1114:	98 09 00 c8 	stb     r0,200(r9)
    1118:	38 00 00 00 	li      r0,0
    111c:	90 1f 00 74 	stw     r0,116(r31)
    1120:	48 00 00 44 	b       0x1164
    1124:	81 5f 00 74 	lwz     r10,116(r31)
    1128:	81 7f 00 74 	lwz     r11,116(r31)
    112c:	80 1f 01 24 	lwz     r0,292(r31)
    1130:	78 09 00 20 	clrldi  r9,r0,32
    1134:	7d 60 07 b4 	extsw   r0,r11
    1138:	7d 29 02 14 	add     r9,r9,r0
    113c:	89 69 00 04 	lbz     r11,4(r9)
    1140:	80 1f 00 d0 	lwz     r0,208(r31)
    1144:	78 09 00 20 	clrldi  r9,r0,32
    1148:	38 0a 00 e0 	addi    r0,r10,224
    114c:	7c 00 07 b4 	extsw   r0,r0
    1150:	7d 29 02 14 	add     r9,r9,r0
    1154:	99 69 00 14 	stb     r11,20(r9)
    1158:	81 3f 00 74 	lwz     r9,116(r31)
    115c:	38 09 00 01 	addi    r0,r9,1
    1160:	90 1f 00 74 	stw     r0,116(r31)
    1164:	80 1f 00 74 	lwz     r0,116(r31)
    1168:	2b 80 00 07 	cmplwi  cr7,r0,7
    116c:	40 9d ff b8 	ble+    cr7,0x1124
    1170:	80 1f 01 24 	lwz     r0,292(r31)
    1174:	78 09 00 20 	clrldi  r9,r0,32
    1178:	81 69 00 0c 	lwz     r11,12(r9)
    117c:	80 1f 00 d0 	lwz     r0,208(r31)
    1180:	78 09 00 20 	clrldi  r9,r0,32
    1184:	91 69 00 fc 	stw     r11,252(r9)
    1188:	80 1f 01 1c 	lwz     r0,284(r31)
    118c:	78 09 00 20 	clrldi  r9,r0,32
    1190:	80 09 00 0c 	lwz     r0,12(r9)
    1194:	7c 0b 03 78 	mr      r11,r0
    1198:	80 1f 00 d0 	lwz     r0,208(r31)
    119c:	78 09 00 20 	clrldi  r9,r0,32
    11a0:	91 69 00 f0 	stw     r11,240(r9)
    11a4:	80 1f 01 1c 	lwz     r0,284(r31)
    11a8:	78 09 00 20 	clrldi  r9,r0,32
    11ac:	80 09 00 08 	lwz     r0,8(r9)
    11b0:	2b 80 00 01 	cmplwi  cr7,r0,1
    11b4:	40 9d 00 24 	ble-    cr7,0x11d8
    11b8:	80 1f 01 1c 	lwz     r0,284(r31)
    11bc:	78 09 00 20 	clrldi  r9,r0,32
    11c0:	81 29 00 08 	lwz     r9,8(r9)
    11c4:	38 09 ff ff 	addi    r0,r9,-1
    11c8:	7c 0b 03 78 	mr      r11,r0
    11cc:	80 1f 00 d0 	lwz     r0,208(r31)
    11d0:	78 09 00 20 	clrldi  r9,r0,32
    11d4:	91 69 00 ec 	stw     r11,236(r9)
    11d8:	81 3f 00 70 	lwz     r9,112(r31)
    11dc:	38 09 02 90 	addi    r0,r9,656
    11e0:	90 1f 00 70 	stw     r0,112(r31)
    11e4:	81 3f 00 70 	lwz     r9,112(r31)
    11e8:	38 09 00 7f 	addi    r0,r9,127
    11ec:	54 00 00 30 	rlwinm  r0,r0,0,0,24
    11f0:	90 1f 00 70 	stw     r0,112(r31)
    11f4:	81 7f 00 70 	lwz     r11,112(r31)
    11f8:	80 1f 00 d0 	lwz     r0,208(r31)
    11fc:	78 09 00 20 	clrldi  r9,r0,32
    1200:	91 69 00 cc 	stw     r11,204(r9)
    1204:	81 3f 00 70 	lwz     r9,112(r31)
    1208:	38 09 10 00 	addi    r0,r9,4096
    120c:	90 1f 00 70 	stw     r0,112(r31)
    1210:	80 1f 01 24 	lwz     r0,292(r31)
    1214:	2f 80 00 00 	cmpwi   cr7,r0,0
    1218:	41 9e 00 1c 	beq-    cr7,0x1234
    121c:	80 1f 01 24 	lwz     r0,292(r31)
    1220:	78 09 00 20 	clrldi  r9,r0,32
    1224:	81 69 00 00 	lwz     r11,0(r9)
    1228:	80 1f 00 d0 	lwz     r0,208(r31)
    122c:	78 09 00 20 	clrldi  r9,r0,32
    1230:	91 69 00 cc 	stw     r11,204(r9)
    1234:	81 3f 00 70 	lwz     r9,112(r31)
    1238:	38 09 00 7f 	addi    r0,r9,127
    123c:	54 00 00 30 	rlwinm  r0,r0,0,0,24
    1240:	90 1f 00 70 	stw     r0,112(r31)
    1244:	81 7f 00 70 	lwz     r11,112(r31)
    1248:	80 1f 00 d0 	lwz     r0,208(r31)
    124c:	78 09 00 20 	clrldi  r9,r0,32
    1250:	91 69 00 d0 	stw     r11,208(r9)
    1254:	81 3f 00 70 	lwz     r9,112(r31)
    1258:	38 09 19 00 	addi    r0,r9,6400
    125c:	90 1f 00 70 	stw     r0,112(r31)
    1260:	81 3f 00 70 	lwz     r9,112(r31)
    1264:	38 09 00 7f 	addi    r0,r9,127
    1268:	54 00 00 30 	rlwinm  r0,r0,0,0,24
    126c:	90 1f 00 70 	stw     r0,112(r31)
    1270:	81 7f 00 70 	lwz     r11,112(r31)
    1274:	80 1f 00 d0 	lwz     r0,208(r31)
    1278:	78 09 00 20 	clrldi  r9,r0,32
    127c:	91 69 00 d4 	stw     r11,212(r9)
    1280:	81 3f 00 70 	lwz     r9,112(r31)
    1284:	38 09 00 80 	addi    r0,r9,128
    1288:	90 1f 00 70 	stw     r0,112(r31)
    128c:	81 3f 00 70 	lwz     r9,112(r31)
    1290:	38 09 00 0f 	addi    r0,r9,15
    1294:	54 00 00 36 	rlwinm  r0,r0,0,0,27
    1298:	90 1f 00 70 	stw     r0,112(r31)
    129c:	80 1f 00 d0 	lwz     r0,208(r31)
    12a0:	78 09 00 20 	clrldi  r9,r0,32
    12a4:	80 1f 00 70 	lwz     r0,112(r31)
    12a8:	90 09 00 d8 	stw     r0,216(r9)
    12ac:	81 3f 00 70 	lwz     r9,112(r31)
    12b0:	38 09 00 10 	addi    r0,r9,16
    12b4:	90 1f 00 70 	stw     r0,112(r31)
    12b8:	81 3f 00 70 	lwz     r9,112(r31)
    12bc:	38 09 00 7f 	addi    r0,r9,127
    12c0:	54 00 00 30 	rlwinm  r0,r0,0,0,24
    12c4:	90 1f 00 70 	stw     r0,112(r31)
    12c8:	81 7f 00 70 	lwz     r11,112(r31)
    12cc:	80 1f 00 d0 	lwz     r0,208(r31)
    12d0:	78 09 00 20 	clrldi  r9,r0,32
    12d4:	91 69 00 dc 	stw     r11,220(r9)
    12d8:	81 3f 00 70 	lwz     r9,112(r31)
    12dc:	38 09 00 80 	addi    r0,r9,128
    12e0:	90 1f 00 70 	stw     r0,112(r31)
    12e4:	81 3f 00 70 	lwz     r9,112(r31)
    12e8:	38 09 00 0f 	addi    r0,r9,15
    12ec:	54 00 00 36 	rlwinm  r0,r0,0,0,27
    12f0:	90 1f 00 70 	stw     r0,112(r31)
    12f4:	80 1f 00 d0 	lwz     r0,208(r31)
    12f8:	78 09 00 20 	clrldi  r9,r0,32
    12fc:	80 1f 00 70 	lwz     r0,112(r31)
    1300:	90 09 00 e0 	stw     r0,224(r9)
    1304:	81 3f 00 70 	lwz     r9,112(r31)
    1308:	38 09 00 10 	addi    r0,r9,16
    130c:	90 1f 00 70 	stw     r0,112(r31)
    1310:	81 3f 00 70 	lwz     r9,112(r31)
    1314:	38 09 00 0f 	addi    r0,r9,15
    1318:	54 00 00 36 	rlwinm  r0,r0,0,0,27
    131c:	90 1f 00 70 	stw     r0,112(r31)
    1320:	81 7f 00 70 	lwz     r11,112(r31)
    1324:	80 1f 00 d0 	lwz     r0,208(r31)
    1328:	78 09 00 20 	clrldi  r9,r0,32
    132c:	91 69 00 e4 	stw     r11,228(r9)
    1330:	81 3f 00 70 	lwz     r9,112(r31)
    1334:	38 09 00 10 	addi    r0,r9,16
    1338:	90 1f 00 70 	stw     r0,112(r31)
    133c:	81 3f 00 70 	lwz     r9,112(r31)
    1340:	38 09 00 7f 	addi    r0,r9,127
    1344:	54 00 00 30 	rlwinm  r0,r0,0,0,24
    1348:	90 1f 00 70 	stw     r0,112(r31)
    134c:	80 1f 00 d0 	lwz     r0,208(r31)
    1350:	78 09 00 20 	clrldi  r9,r0,32
    1354:	80 1f 00 70 	lwz     r0,112(r31)
    1358:	90 09 00 e8 	stw     r0,232(r9)
    135c:	48 00 22 55 	bl      0x35b0
    1360:	60 00 00 00 	nop
    1364:	7c 60 1b 78 	mr      r0,r3
    1368:	7c 09 03 78 	mr      r9,r0
    136c:	80 1f 00 70 	lwz     r0,112(r31)
    1370:	7c 00 4a 14 	add     r0,r0,r9
    1374:	90 1f 00 70 	stw     r0,112(r31)
    1378:	81 3f 00 70 	lwz     r9,112(r31)
    137c:	38 09 00 7f 	addi    r0,r9,127
    1380:	54 00 00 30 	rlwinm  r0,r0,0,0,24
    1384:	90 1f 00 70 	stw     r0,112(r31)
    1388:	80 1f 00 d0 	lwz     r0,208(r31)
    138c:	78 09 00 20 	clrldi  r9,r0,32
    1390:	80 1f 00 70 	lwz     r0,112(r31)
    1394:	90 09 00 c4 	stw     r0,196(r9)
    1398:	48 00 10 61 	bl      0x23f8
    139c:	60 00 00 00 	nop
    13a0:	81 3f 00 d0 	lwz     r9,208(r31)
    13a4:	38 09 01 48 	addi    r0,r9,328
    13a8:	7c 0a 03 78 	mr      r10,r0
    13ac:	80 1f 00 d0 	lwz     r0,208(r31)
    13b0:	78 09 00 20 	clrldi  r9,r0,32
    13b4:	80 09 00 c4 	lwz     r0,196(r9)
    13b8:	7c 0b 03 78 	mr      r11,r0
    13bc:	81 3f 00 d0 	lwz     r9,208(r31)
    13c0:	38 09 00 c8 	addi    r0,r9,200
    13c4:	79 49 00 20 	clrldi  r9,r10,32
    13c8:	79 6b 00 20 	clrldi  r11,r11,32
    13cc:	78 00 00 20 	clrldi  r0,r0,32
    13d0:	7d 23 4b 78 	mr      r3,r9
    13d4:	7d 64 5b 78 	mr      r4,r11
    13d8:	7c 05 03 78 	mr      r5,r0
    13dc:	48 00 10 45 	bl      0x2420
    13e0:	60 00 00 00 	nop
    13e4:	7c 60 1b 78 	mr      r0,r3
    13e8:	90 1f 00 78 	stw     r0,120(r31)
    13ec:	80 1f 00 78 	lwz     r0,120(r31)
    13f0:	2f 80 00 00 	cmpwi   cr7,r0,0
    13f4:	41 9e 00 28 	beq-    cr7,0x141c
    13f8:	80 62 80 28 	lwz     r3,-32728(r2)
    13fc:	48 00 2d 89 	bl      0x4184
    1400:	e8 41 00 28 	ld      r2,40(r1)
    1404:	3c 00 80 61 	lis     r0,-32671
    1408:	90 1f 00 80 	stw     r0,128(r31)
    140c:	81 3f 00 80 	lwz     r9,128(r31)
    1410:	61 29 00 01 	ori     r9,r9,1
    1414:	91 3f 00 80 	stw     r9,128(r31)
    1418:	48 00 00 a0 	b       0x14b8
    141c:	80 1f 00 d0 	lwz     r0,208(r31)
    1420:	78 00 00 20 	clrldi  r0,r0,32
    1424:	7c 03 03 78 	mr      r3,r0
    1428:	4b ff ef 61 	bl      0x388
    142c:	80 1f 00 d0 	lwz     r0,208(r31)
    1430:	78 09 00 20 	clrldi  r9,r0,32
    1434:	38 00 00 00 	li      r0,0
    1438:	90 09 00 94 	stw     r0,148(r9)
    143c:	80 1f 00 d0 	lwz     r0,208(r31)
    1440:	78 09 00 20 	clrldi  r9,r0,32
    1444:	38 00 00 01 	li      r0,1
    1448:	90 09 00 a0 	stw     r0,160(r9)
    144c:	80 1f 00 d0 	lwz     r0,208(r31)
    1450:	78 09 00 20 	clrldi  r9,r0,32
    1454:	80 1f 01 1c 	lwz     r0,284(r31)
    1458:	78 00 00 20 	clrldi  r0,r0,32
    145c:	7d 23 4b 78 	mr      r3,r9
    1460:	7c 04 03 78 	mr      r4,r0
    1464:	4b ff f5 c5 	bl      0xa28
    1468:	7c 60 1b 78 	mr      r0,r3
    146c:	2f 80 00 00 	cmpwi   cr7,r0,0
    1470:	41 9e 00 40 	beq-    cr7,0x14b0
    1474:	80 62 80 2c 	lwz     r3,-32724(r2)
    1478:	48 00 2d 0d 	bl      0x4184
    147c:	e8 41 00 28 	ld      r2,40(r1)
    1480:	81 3f 00 d0 	lwz     r9,208(r31)
    1484:	38 09 01 48 	addi    r0,r9,328
    1488:	78 00 00 20 	clrldi  r0,r0,32
    148c:	7c 03 03 78 	mr      r3,r0
    1490:	48 00 18 d5 	bl      0x2d64
    1494:	60 00 00 00 	nop
    1498:	3c 00 80 61 	lis     r0,-32671
    149c:	90 1f 00 80 	stw     r0,128(r31)
    14a0:	81 3f 00 80 	lwz     r9,128(r31)
    14a4:	61 29 00 01 	ori     r9,r9,1
    14a8:	91 3f 00 80 	stw     r9,128(r31)
    14ac:	48 00 00 0c 	b       0x14b8
    14b0:	38 00 00 00 	li      r0,0
    14b4:	90 1f 00 80 	stw     r0,128(r31)
    14b8:	81 3f 00 80 	lwz     r9,128(r31)
    14bc:	7d 20 07 b4 	extsw   r0,r9
    14c0:	7c 03 03 78 	mr      r3,r0
    14c4:	e9 61 00 00 	ld      r11,0(r1)
    14c8:	e8 0b 00 10 	ld      r0,16(r11)
    14cc:	7c 08 03 a6 	mtlr    r0
    14d0:	eb eb ff f8 	ld      r31,-8(r11)
    14d4:	7d 61 5b 78 	mr      r1,r11
    14d8:	4e 80 00 20 	blr
    14dc:	f8 21 ff 41 	stdu    r1,-192(r1)
    14e0:	7c 08 02 a6 	mflr    r0
    14e4:	fb e1 00 b8 	std     r31,184(r1)
    14e8:	f8 01 00 d0 	std     r0,208(r1)
    14ec:	7c 3f 0b 78 	mr      r31,r1
    14f0:	7c 60 1b 78 	mr      r0,r3
    14f4:	90 1f 00 f0 	stw     r0,240(r31)
    14f8:	80 1f 00 f0 	lwz     r0,240(r31)
    14fc:	78 09 00 20 	clrldi  r9,r0,32
    1500:	80 09 00 98 	lwz     r0,152(r9)
    1504:	78 00 00 20 	clrldi  r0,r0,32
    1508:	7c 03 03 78 	mr      r3,r0
    150c:	38 80 00 00 	li      r4,0
    1510:	48 00 26 b5 	bl      0x3bc4
    1514:	60 00 00 00 	nop
    1518:	80 1f 00 f0 	lwz     r0,240(r31)
    151c:	78 09 00 20 	clrldi  r9,r0,32
    1520:	38 00 00 00 	li      r0,0
    1524:	90 09 00 a0 	stw     r0,160(r9)
    1528:	80 1f 00 f0 	lwz     r0,240(r31)
    152c:	78 09 00 20 	clrldi  r9,r0,32
    1530:	80 09 00 98 	lwz     r0,152(r9)
    1534:	78 00 00 20 	clrldi  r0,r0,32
    1538:	7c 03 03 78 	mr      r3,r0
    153c:	48 00 26 c9 	bl      0x3c04
    1540:	60 00 00 00 	nop
    1544:	80 1f 00 f0 	lwz     r0,240(r31)
    1548:	78 09 00 20 	clrldi  r9,r0,32
    154c:	80 09 00 08 	lwz     r0,8(r9)
    1550:	78 00 00 20 	clrldi  r0,r0,32
    1554:	7c 03 03 78 	mr      r3,r0
    1558:	38 80 00 00 	li      r4,0
    155c:	48 00 26 69 	bl      0x3bc4
    1560:	60 00 00 00 	nop
    1564:	80 1f 00 f0 	lwz     r0,240(r31)
    1568:	78 09 00 20 	clrldi  r9,r0,32
    156c:	80 09 00 88 	lwz     r0,136(r9)
    1570:	2f 80 00 00 	cmpwi   cr7,r0,0
    1574:	40 9e 00 64 	bne-    cr7,0x15d8
    1578:	38 00 00 04 	li      r0,4
    157c:	90 1f 00 74 	stw     r0,116(r31)
    1580:	80 1f 00 f0 	lwz     r0,240(r31)
    1584:	78 09 00 20 	clrldi  r9,r0,32
    1588:	38 1f 00 74 	addi    r0,r31,116
    158c:	78 00 00 20 	clrldi  r0,r0,32
    1590:	7d 23 4b 78 	mr      r3,r9
    1594:	7c 04 03 78 	mr      r4,r0
    1598:	4b ff ea d9 	bl      0x70
    159c:	80 1f 00 f0 	lwz     r0,240(r31)
    15a0:	78 09 00 20 	clrldi  r9,r0,32
    15a4:	80 09 00 08 	lwz     r0,8(r9)
    15a8:	78 00 00 20 	clrldi  r0,r0,32
    15ac:	7c 03 03 78 	mr      r3,r0
    15b0:	48 00 26 55 	bl      0x3c04
    15b4:	60 00 00 00 	nop
    15b8:	80 1f 00 f0 	lwz     r0,240(r31)
    15bc:	78 09 00 20 	clrldi  r9,r0,32
    15c0:	80 09 00 0c 	lwz     r0,12(r9)
    15c4:	78 00 00 20 	clrldi  r0,r0,32
    15c8:	7c 03 03 78 	mr      r3,r0
    15cc:	48 00 26 b9 	bl      0x3c84
    15d0:	60 00 00 00 	nop
    15d4:	48 00 00 20 	b       0x15f4
    15d8:	80 1f 00 f0 	lwz     r0,240(r31)
    15dc:	78 09 00 20 	clrldi  r9,r0,32
    15e0:	80 09 00 08 	lwz     r0,8(r9)
    15e4:	78 00 00 20 	clrldi  r0,r0,32
    15e8:	7c 03 03 78 	mr      r3,r0
    15ec:	48 00 26 19 	bl      0x3c04
    15f0:	60 00 00 00 	nop
    15f4:	80 1f 00 f0 	lwz     r0,240(r31)
    15f8:	78 09 00 20 	clrldi  r9,r0,32
    15fc:	80 09 00 8c 	lwz     r0,140(r9)
    1600:	78 00 00 20 	clrldi  r0,r0,32
    1604:	7c 03 03 78 	mr      r3,r0
    1608:	38 80 00 00 	li      r4,0
    160c:	48 00 25 b9 	bl      0x3bc4
    1610:	60 00 00 00 	nop
    1614:	80 1f 00 f0 	lwz     r0,240(r31)
    1618:	78 09 00 20 	clrldi  r9,r0,32
    161c:	80 09 00 94 	lwz     r0,148(r9)
    1620:	2f 80 00 00 	cmpwi   cr7,r0,0
    1624:	41 9e 00 50 	beq-    cr7,0x1674
    1628:	80 1f 00 f0 	lwz     r0,240(r31)
    162c:	78 09 00 20 	clrldi  r9,r0,32
    1630:	38 00 00 00 	li      r0,0
    1634:	90 09 00 94 	stw     r0,148(r9)
    1638:	80 1f 00 f0 	lwz     r0,240(r31)
    163c:	78 09 00 20 	clrldi  r9,r0,32
    1640:	80 09 00 8c 	lwz     r0,140(r9)
    1644:	78 00 00 20 	clrldi  r0,r0,32
    1648:	7c 03 03 78 	mr      r3,r0
    164c:	48 00 25 b9 	bl      0x3c04
    1650:	60 00 00 00 	nop
    1654:	80 1f 00 f0 	lwz     r0,240(r31)
    1658:	78 09 00 20 	clrldi  r9,r0,32
    165c:	80 09 00 90 	lwz     r0,144(r9)
    1660:	78 00 00 20 	clrldi  r0,r0,32
    1664:	7c 03 03 78 	mr      r3,r0
    1668:	48 00 26 1d 	bl      0x3c84
    166c:	60 00 00 00 	nop
    1670:	48 00 00 20 	b       0x1690
    1674:	80 1f 00 f0 	lwz     r0,240(r31)
    1678:	78 09 00 20 	clrldi  r9,r0,32
    167c:	80 09 00 8c 	lwz     r0,140(r9)
    1680:	78 00 00 20 	clrldi  r0,r0,32
    1684:	7c 03 03 78 	mr      r3,r0
    1688:	48 00 25 7d 	bl      0x3c04
    168c:	60 00 00 00 	nop
    1690:	80 1f 00 f0 	lwz     r0,240(r31)
    1694:	78 09 00 20 	clrldi  r9,r0,32
    1698:	e9 29 00 00 	ld      r9,0(r9)
    169c:	38 1f 00 90 	addi    r0,r31,144
    16a0:	78 00 00 20 	clrldi  r0,r0,32
    16a4:	7d 23 4b 78 	mr      r3,r9
    16a8:	7c 04 03 78 	mr      r4,r0
    16ac:	48 00 22 59 	bl      0x3904
    16b0:	60 00 00 00 	nop
    16b4:	81 3f 00 f0 	lwz     r9,240(r31)
    16b8:	38 09 01 48 	addi    r0,r9,328
    16bc:	78 00 00 20 	clrldi  r0,r0,32
    16c0:	7c 03 03 78 	mr      r3,r0
    16c4:	48 00 16 a1 	bl      0x2d64
    16c8:	60 00 00 00 	nop
    16cc:	7c 60 1b 78 	mr      r0,r3
    16d0:	90 1f 00 70 	stw     r0,112(r31)
    16d4:	80 1f 00 70 	lwz     r0,112(r31)
    16d8:	2f 80 00 00 	cmpwi   cr7,r0,0
    16dc:	41 9e 00 28 	beq-    cr7,0x1704
    16e0:	80 62 80 30 	lwz     r3,-32720(r2)
    16e4:	48 00 2a a1 	bl      0x4184
    16e8:	e8 41 00 28 	ld      r2,40(r1)
    16ec:	3c 00 80 61 	lis     r0,-32671
    16f0:	90 1f 00 a0 	stw     r0,160(r31)
    16f4:	81 3f 00 a0 	lwz     r9,160(r31)
    16f8:	61 29 00 01 	ori     r9,r9,1
    16fc:	91 3f 00 a0 	stw     r9,160(r31)
    1700:	48 00 02 4c 	b       0x194c
    1704:	80 1f 00 f0 	lwz     r0,240(r31)
    1708:	78 09 00 20 	clrldi  r9,r0,32
    170c:	80 09 00 0c 	lwz     r0,12(r9)
    1710:	78 00 00 20 	clrldi  r0,r0,32
    1714:	7c 03 03 78 	mr      r3,r0
    1718:	48 00 25 2d 	bl      0x3c44
    171c:	60 00 00 00 	nop
    1720:	7c 60 1b 78 	mr      r0,r3
    1724:	90 1f 00 70 	stw     r0,112(r31)
    1728:	80 1f 00 70 	lwz     r0,112(r31)
    172c:	2f 80 00 00 	cmpwi   cr7,r0,0
    1730:	41 9e 00 34 	beq-    cr7,0x1764
    1734:	80 1f 00 70 	lwz     r0,112(r31)
    1738:	78 00 00 20 	clrldi  r0,r0,32
    173c:	80 62 80 34 	lwz     r3,-32716(r2)
    1740:	7c 04 03 78 	mr      r4,r0
    1744:	48 00 2a 41 	bl      0x4184
    1748:	e8 41 00 28 	ld      r2,40(r1)
    174c:	3c 00 80 61 	lis     r0,-32671
    1750:	90 1f 00 a0 	stw     r0,160(r31)
    1754:	81 3f 00 a0 	lwz     r9,160(r31)
    1758:	61 29 00 01 	ori     r9,r9,1
    175c:	91 3f 00 a0 	stw     r9,160(r31)
    1760:	48 00 01 ec 	b       0x194c
    1764:	80 1f 00 f0 	lwz     r0,240(r31)
    1768:	78 09 00 20 	clrldi  r9,r0,32
    176c:	80 09 00 9c 	lwz     r0,156(r9)
    1770:	78 00 00 20 	clrldi  r0,r0,32
    1774:	7c 03 03 78 	mr      r3,r0
    1778:	48 00 24 cd 	bl      0x3c44
    177c:	60 00 00 00 	nop
    1780:	7c 60 1b 78 	mr      r0,r3
    1784:	90 1f 00 70 	stw     r0,112(r31)
    1788:	80 1f 00 70 	lwz     r0,112(r31)
    178c:	2f 80 00 00 	cmpwi   cr7,r0,0
    1790:	41 9e 00 34 	beq-    cr7,0x17c4
    1794:	80 1f 00 70 	lwz     r0,112(r31)
    1798:	78 00 00 20 	clrldi  r0,r0,32
    179c:	80 62 80 38 	lwz     r3,-32712(r2)
    17a0:	7c 04 03 78 	mr      r4,r0
    17a4:	48 00 29 e1 	bl      0x4184
    17a8:	e8 41 00 28 	ld      r2,40(r1)
    17ac:	3c 00 80 61 	lis     r0,-32671
    17b0:	90 1f 00 a0 	stw     r0,160(r31)
    17b4:	81 3f 00 a0 	lwz     r9,160(r31)
    17b8:	61 29 00 01 	ori     r9,r9,1
    17bc:	91 3f 00 a0 	stw     r9,160(r31)
    17c0:	48 00 01 8c 	b       0x194c
    17c4:	80 1f 00 f0 	lwz     r0,240(r31)
    17c8:	78 09 00 20 	clrldi  r9,r0,32
    17cc:	80 09 00 90 	lwz     r0,144(r9)
    17d0:	78 00 00 20 	clrldi  r0,r0,32
    17d4:	7c 03 03 78 	mr      r3,r0
    17d8:	48 00 24 6d 	bl      0x3c44
    17dc:	60 00 00 00 	nop
    17e0:	7c 60 1b 78 	mr      r0,r3
    17e4:	90 1f 00 70 	stw     r0,112(r31)
    17e8:	80 1f 00 70 	lwz     r0,112(r31)
    17ec:	2f 80 00 00 	cmpwi   cr7,r0,0
    17f0:	41 9e 00 34 	beq-    cr7,0x1824
    17f4:	80 1f 00 70 	lwz     r0,112(r31)
    17f8:	78 00 00 20 	clrldi  r0,r0,32
    17fc:	80 62 80 3c 	lwz     r3,-32708(r2)
    1800:	7c 04 03 78 	mr      r4,r0
    1804:	48 00 29 81 	bl      0x4184
    1808:	e8 41 00 28 	ld      r2,40(r1)
    180c:	3c 00 80 61 	lis     r0,-32671
    1810:	90 1f 00 a0 	stw     r0,160(r31)
    1814:	81 3f 00 a0 	lwz     r9,160(r31)
    1818:	61 29 00 01 	ori     r9,r9,1
    181c:	91 3f 00 a0 	stw     r9,160(r31)
    1820:	48 00 01 2c 	b       0x194c
    1824:	80 1f 00 f0 	lwz     r0,240(r31)
    1828:	78 09 00 20 	clrldi  r9,r0,32
    182c:	80 09 00 08 	lwz     r0,8(r9)
    1830:	78 00 00 20 	clrldi  r0,r0,32
    1834:	7c 03 03 78 	mr      r3,r0
    1838:	48 00 23 6d 	bl      0x3ba4
    183c:	60 00 00 00 	nop
    1840:	7c 60 1b 78 	mr      r0,r3
    1844:	90 1f 00 70 	stw     r0,112(r31)
    1848:	80 1f 00 70 	lwz     r0,112(r31)
    184c:	2f 80 00 00 	cmpwi   cr7,r0,0
    1850:	41 9e 00 34 	beq-    cr7,0x1884
    1854:	80 1f 00 70 	lwz     r0,112(r31)
    1858:	78 00 00 20 	clrldi  r0,r0,32
    185c:	80 62 80 40 	lwz     r3,-32704(r2)
    1860:	7c 04 03 78 	mr      r4,r0
    1864:	48 00 29 21 	bl      0x4184
    1868:	e8 41 00 28 	ld      r2,40(r1)
    186c:	3c 00 80 61 	lis     r0,-32671
    1870:	90 1f 00 a0 	stw     r0,160(r31)
    1874:	81 3f 00 a0 	lwz     r9,160(r31)
    1878:	61 29 00 01 	ori     r9,r9,1
    187c:	91 3f 00 a0 	stw     r9,160(r31)
    1880:	48 00 00 cc 	b       0x194c
    1884:	80 1f 00 f0 	lwz     r0,240(r31)
    1888:	78 09 00 20 	clrldi  r9,r0,32
    188c:	80 09 00 98 	lwz     r0,152(r9)
    1890:	78 00 00 20 	clrldi  r0,r0,32
    1894:	7c 03 03 78 	mr      r3,r0
    1898:	48 00 23 0d 	bl      0x3ba4
    189c:	60 00 00 00 	nop
    18a0:	7c 60 1b 78 	mr      r0,r3
    18a4:	90 1f 00 70 	stw     r0,112(r31)
    18a8:	80 1f 00 70 	lwz     r0,112(r31)
    18ac:	2f 80 00 00 	cmpwi   cr7,r0,0
    18b0:	41 9e 00 34 	beq-    cr7,0x18e4
    18b4:	80 1f 00 70 	lwz     r0,112(r31)
    18b8:	78 00 00 20 	clrldi  r0,r0,32
    18bc:	80 62 80 44 	lwz     r3,-32700(r2)
    18c0:	7c 04 03 78 	mr      r4,r0
    18c4:	48 00 28 c1 	bl      0x4184
    18c8:	e8 41 00 28 	ld      r2,40(r1)
    18cc:	3c 00 80 61 	lis     r0,-32671
    18d0:	90 1f 00 a0 	stw     r0,160(r31)
    18d4:	81 3f 00 a0 	lwz     r9,160(r31)
    18d8:	61 29 00 01 	ori     r9,r9,1
    18dc:	91 3f 00 a0 	stw     r9,160(r31)
    18e0:	48 00 00 6c 	b       0x194c
    18e4:	80 1f 00 f0 	lwz     r0,240(r31)
    18e8:	78 09 00 20 	clrldi  r9,r0,32
    18ec:	80 09 00 8c 	lwz     r0,140(r9)
    18f0:	78 00 00 20 	clrldi  r0,r0,32
    18f4:	7c 03 03 78 	mr      r3,r0
    18f8:	48 00 22 ad 	bl      0x3ba4
    18fc:	60 00 00 00 	nop
    1900:	7c 60 1b 78 	mr      r0,r3
    1904:	90 1f 00 70 	stw     r0,112(r31)
    1908:	80 1f 00 70 	lwz     r0,112(r31)
    190c:	2f 80 00 00 	cmpwi   cr7,r0,0
    1910:	41 9e 00 34 	beq-    cr7,0x1944
    1914:	80 1f 00 70 	lwz     r0,112(r31)
    1918:	78 00 00 20 	clrldi  r0,r0,32
    191c:	80 62 80 48 	lwz     r3,-32696(r2)
    1920:	7c 04 03 78 	mr      r4,r0
    1924:	48 00 28 61 	bl      0x4184
    1928:	e8 41 00 28 	ld      r2,40(r1)
    192c:	3c 00 80 61 	lis     r0,-32671
    1930:	90 1f 00 a0 	stw     r0,160(r31)
    1934:	81 3f 00 a0 	lwz     r9,160(r31)
    1938:	61 29 00 01 	ori     r9,r9,1
    193c:	91 3f 00 a0 	stw     r9,160(r31)
    1940:	48 00 00 0c 	b       0x194c
    1944:	38 00 00 00 	li      r0,0
    1948:	90 1f 00 a0 	stw     r0,160(r31)
    194c:	81 3f 00 a0 	lwz     r9,160(r31)
    1950:	7d 20 07 b4 	extsw   r0,r9
    1954:	7c 03 03 78 	mr      r3,r0
    1958:	e9 61 00 00 	ld      r11,0(r1)
    195c:	e8 0b 00 10 	ld      r0,16(r11)
    1960:	7c 08 03 a6 	mtlr    r0
    1964:	eb eb ff f8 	ld      r31,-8(r11)
    1968:	7d 61 5b 78 	mr      r1,r11
    196c:	4e 80 00 20 	blr
    1970:	f8 21 ff 51 	stdu    r1,-176(r1)
    1974:	7c 08 02 a6 	mflr    r0
    1978:	fb e1 00 a8 	std     r31,168(r1)
    197c:	f8 01 00 c0 	std     r0,192(r1)
    1980:	7c 3f 0b 78 	mr      r31,r1
    1984:	7c 60 1b 78 	mr      r0,r3
    1988:	7c 89 23 78 	mr      r9,r4
    198c:	90 1f 00 e0 	stw     r0,224(r31)
    1990:	91 3f 00 e8 	stw     r9,232(r31)
    1994:	80 1f 00 e8 	lwz     r0,232(r31)
    1998:	90 1f 00 70 	stw     r0,112(r31)
    199c:	80 1f 00 e0 	lwz     r0,224(r31)
    19a0:	78 09 00 20 	clrldi  r9,r0,32
    19a4:	80 09 00 08 	lwz     r0,8(r9)
    19a8:	78 00 00 20 	clrldi  r0,r0,32
    19ac:	7c 03 03 78 	mr      r3,r0
    19b0:	38 80 00 00 	li      r4,0
    19b4:	48 00 22 11 	bl      0x3bc4
    19b8:	60 00 00 00 	nop
    19bc:	38 00 00 01 	li      r0,1
    19c0:	90 1f 00 74 	stw     r0,116(r31)
    19c4:	39 3f 00 74 	addi    r9,r31,116
    19c8:	38 09 00 18 	addi    r0,r9,24
    19cc:	78 09 00 20 	clrldi  r9,r0,32
    19d0:	80 1f 00 e8 	lwz     r0,232(r31)
    19d4:	78 00 00 20 	clrldi  r0,r0,32
    19d8:	7d 23 4b 78 	mr      r3,r9
    19dc:	7c 04 03 78 	mr      r4,r0
    19e0:	38 a0 00 04 	li      r5,4
    19e4:	48 00 27 81 	bl      0x4164
    19e8:	e8 41 00 28 	ld      r2,40(r1)
    19ec:	80 1f 00 e0 	lwz     r0,224(r31)
    19f0:	78 09 00 20 	clrldi  r9,r0,32
    19f4:	38 1f 00 74 	addi    r0,r31,116
    19f8:	78 00 00 20 	clrldi  r0,r0,32
    19fc:	7d 23 4b 78 	mr      r3,r9
    1a00:	7c 04 03 78 	mr      r4,r0
    1a04:	4b ff e6 6d 	bl      0x70
    1a08:	7c 60 1b 78 	mr      r0,r3
    1a0c:	7c 09 03 78 	mr      r9,r0
    1a10:	3c 00 80 61 	lis     r0,-32671
    1a14:	60 00 27 64 	ori     r0,r0,10084
    1a18:	7f 89 00 00 	cmpw    cr7,r9,r0
    1a1c:	40 9e 00 44 	bne-    cr7,0x1a60
    1a20:	80 62 80 4c 	lwz     r3,-32692(r2)
    1a24:	48 00 27 61 	bl      0x4184
    1a28:	e8 41 00 28 	ld      r2,40(r1)
    1a2c:	80 1f 00 e0 	lwz     r0,224(r31)
    1a30:	78 09 00 20 	clrldi  r9,r0,32
    1a34:	80 09 00 08 	lwz     r0,8(r9)
    1a38:	78 00 00 20 	clrldi  r0,r0,32
    1a3c:	7c 03 03 78 	mr      r3,r0
    1a40:	48 00 21 c5 	bl      0x3c04
    1a44:	60 00 00 00 	nop
    1a48:	3c 00 80 61 	lis     r0,-32671
    1a4c:	90 1f 00 90 	stw     r0,144(r31)
    1a50:	81 3f 00 90 	lwz     r9,144(r31)
    1a54:	61 29 27 64 	ori     r9,r9,10084
    1a58:	91 3f 00 90 	stw     r9,144(r31)
    1a5c:	48 00 00 44 	b       0x1aa0
    1a60:	80 1f 00 e0 	lwz     r0,224(r31)
    1a64:	78 09 00 20 	clrldi  r9,r0,32
    1a68:	80 09 00 08 	lwz     r0,8(r9)
    1a6c:	78 00 00 20 	clrldi  r0,r0,32
    1a70:	7c 03 03 78 	mr      r3,r0
    1a74:	48 00 21 91 	bl      0x3c04
    1a78:	60 00 00 00 	nop
    1a7c:	80 1f 00 e0 	lwz     r0,224(r31)
    1a80:	78 09 00 20 	clrldi  r9,r0,32
    1a84:	80 09 00 0c 	lwz     r0,12(r9)
    1a88:	78 00 00 20 	clrldi  r0,r0,32
    1a8c:	7c 03 03 78 	mr      r3,r0
    1a90:	48 00 21 f5 	bl      0x3c84
    1a94:	60 00 00 00 	nop
    1a98:	38 00 00 00 	li      r0,0
    1a9c:	90 1f 00 90 	stw     r0,144(r31)
    1aa0:	81 3f 00 90 	lwz     r9,144(r31)
    1aa4:	7d 20 07 b4 	extsw   r0,r9
    1aa8:	7c 03 03 78 	mr      r3,r0
    1aac:	e9 61 00 00 	ld      r11,0(r1)
    1ab0:	e8 0b 00 10 	ld      r0,16(r11)
    1ab4:	7c 08 03 a6 	mtlr    r0
    1ab8:	eb eb ff f8 	ld      r31,-8(r11)
    1abc:	7d 61 5b 78 	mr      r1,r11
    1ac0:	4e 80 00 20 	blr
    1ac4:	f8 21 ff 61 	stdu    r1,-160(r1)
    1ac8:	7c 08 02 a6 	mflr    r0
    1acc:	fb e1 00 98 	std     r31,152(r1)
    1ad0:	f8 01 00 b0 	std     r0,176(r1)
    1ad4:	7c 3f 0b 78 	mr      r31,r1
    1ad8:	7c 60 1b 78 	mr      r0,r3
    1adc:	7c 89 23 78 	mr      r9,r4
    1ae0:	90 1f 00 d0 	stw     r0,208(r31)
    1ae4:	91 3f 00 d8 	stw     r9,216(r31)
    1ae8:	81 3f 00 d0 	lwz     r9,208(r31)
    1aec:	38 09 01 48 	addi    r0,r9,328
    1af0:	7c 0b 03 78 	mr      r11,r0
    1af4:	80 1f 00 d8 	lwz     r0,216(r31)
    1af8:	78 09 00 20 	clrldi  r9,r0,32
    1afc:	80 09 00 00 	lwz     r0,0(r9)
    1b00:	79 69 00 20 	clrldi  r9,r11,32
    1b04:	78 00 06 20 	clrldi  r0,r0,56
    1b08:	7d 23 4b 78 	mr      r3,r9
    1b0c:	7c 04 03 78 	mr      r4,r0
    1b10:	48 00 15 4d 	bl      0x305c
    1b14:	60 00 00 00 	nop
    1b18:	7c 60 1b 78 	mr      r0,r3
    1b1c:	90 1f 00 70 	stw     r0,112(r31)
    1b20:	80 1f 00 70 	lwz     r0,112(r31)
    1b24:	2f 80 00 01 	cmpwi   cr7,r0,1
    1b28:	40 9e 00 28 	bne-    cr7,0x1b50
    1b2c:	80 62 80 50 	lwz     r3,-32688(r2)
    1b30:	48 00 26 55 	bl      0x4184
    1b34:	e8 41 00 28 	ld      r2,40(r1)
    1b38:	3c 00 80 61 	lis     r0,-32671
    1b3c:	90 1f 00 80 	stw     r0,128(r31)
    1b40:	81 3f 00 80 	lwz     r9,128(r31)
    1b44:	61 29 00 01 	ori     r9,r9,1
    1b48:	91 3f 00 80 	stw     r9,128(r31)
    1b4c:	48 00 00 34 	b       0x1b80
    1b50:	81 3f 00 d0 	lwz     r9,208(r31)
    1b54:	38 09 01 40 	addi    r0,r9,320
    1b58:	78 09 00 20 	clrldi  r9,r0,32
    1b5c:	80 1f 00 d8 	lwz     r0,216(r31)
    1b60:	78 00 00 20 	clrldi  r0,r0,32
    1b64:	7d 23 4b 78 	mr      r3,r9
    1b68:	7c 04 03 78 	mr      r4,r0
    1b6c:	38 a0 00 04 	li      r5,4
    1b70:	48 00 25 f5 	bl      0x4164
    1b74:	e8 41 00 28 	ld      r2,40(r1)
    1b78:	38 00 00 00 	li      r0,0
    1b7c:	90 1f 00 80 	stw     r0,128(r31)
    1b80:	81 3f 00 80 	lwz     r9,128(r31)
    1b84:	7d 20 07 b4 	extsw   r0,r9
    1b88:	7c 03 03 78 	mr      r3,r0
    1b8c:	e9 61 00 00 	ld      r11,0(r1)
    1b90:	e8 0b 00 10 	ld      r0,16(r11)
    1b94:	7c 08 03 a6 	mtlr    r0
    1b98:	eb eb ff f8 	ld      r31,-8(r11)
    1b9c:	7d 61 5b 78 	mr      r1,r11
    1ba0:	4e 80 00 20 	blr
    1ba4:	f8 21 ff 51 	stdu    r1,-176(r1)
    1ba8:	7c 08 02 a6 	mflr    r0
    1bac:	fb e1 00 a8 	std     r31,168(r1)
    1bb0:	f8 01 00 c0 	std     r0,192(r1)
    1bb4:	7c 3f 0b 78 	mr      r31,r1
    1bb8:	7c 60 1b 78 	mr      r0,r3
    1bbc:	90 1f 00 e0 	stw     r0,224(r31)
    1bc0:	80 1f 00 e0 	lwz     r0,224(r31)
    1bc4:	78 09 00 20 	clrldi  r9,r0,32
    1bc8:	80 09 00 08 	lwz     r0,8(r9)
    1bcc:	78 00 00 20 	clrldi  r0,r0,32
    1bd0:	7c 03 03 78 	mr      r3,r0
    1bd4:	38 80 00 00 	li      r4,0
    1bd8:	48 00 1f ed 	bl      0x3bc4
    1bdc:	60 00 00 00 	nop
    1be0:	38 00 00 03 	li      r0,3
    1be4:	90 1f 00 70 	stw     r0,112(r31)
    1be8:	80 1f 00 e0 	lwz     r0,224(r31)
    1bec:	78 09 00 20 	clrldi  r9,r0,32
    1bf0:	38 1f 00 70 	addi    r0,r31,112
    1bf4:	78 00 00 20 	clrldi  r0,r0,32
    1bf8:	7d 23 4b 78 	mr      r3,r9
    1bfc:	7c 04 03 78 	mr      r4,r0
    1c00:	4b ff e4 71 	bl      0x70
    1c04:	7c 60 1b 78 	mr      r0,r3
    1c08:	7c 09 03 78 	mr      r9,r0
    1c0c:	3c 00 80 61 	lis     r0,-32671
    1c10:	60 00 27 64 	ori     r0,r0,10084
    1c14:	7f 89 00 00 	cmpw    cr7,r9,r0
    1c18:	40 9e 00 44 	bne-    cr7,0x1c5c
    1c1c:	80 62 80 4c 	lwz     r3,-32692(r2)
    1c20:	48 00 25 65 	bl      0x4184
    1c24:	e8 41 00 28 	ld      r2,40(r1)
    1c28:	80 1f 00 e0 	lwz     r0,224(r31)
    1c2c:	78 09 00 20 	clrldi  r9,r0,32
    1c30:	80 09 00 08 	lwz     r0,8(r9)
    1c34:	78 00 00 20 	clrldi  r0,r0,32
    1c38:	7c 03 03 78 	mr      r3,r0
    1c3c:	48 00 1f c9 	bl      0x3c04
    1c40:	60 00 00 00 	nop
    1c44:	3c 00 80 61 	lis     r0,-32671
    1c48:	90 1f 00 90 	stw     r0,144(r31)
    1c4c:	81 3f 00 90 	lwz     r9,144(r31)
    1c50:	61 29 27 64 	ori     r9,r9,10084
    1c54:	91 3f 00 90 	stw     r9,144(r31)
    1c58:	48 00 00 44 	b       0x1c9c
    1c5c:	80 1f 00 e0 	lwz     r0,224(r31)
    1c60:	78 09 00 20 	clrldi  r9,r0,32
    1c64:	80 09 00 08 	lwz     r0,8(r9)
    1c68:	78 00 00 20 	clrldi  r0,r0,32
    1c6c:	7c 03 03 78 	mr      r3,r0
    1c70:	48 00 1f 95 	bl      0x3c04
    1c74:	60 00 00 00 	nop
    1c78:	80 1f 00 e0 	lwz     r0,224(r31)
    1c7c:	78 09 00 20 	clrldi  r9,r0,32
    1c80:	80 09 00 0c 	lwz     r0,12(r9)
    1c84:	78 00 00 20 	clrldi  r0,r0,32
    1c88:	7c 03 03 78 	mr      r3,r0
    1c8c:	48 00 1f f9 	bl      0x3c84
    1c90:	60 00 00 00 	nop
    1c94:	38 00 00 00 	li      r0,0
    1c98:	90 1f 00 90 	stw     r0,144(r31)
    1c9c:	81 3f 00 90 	lwz     r9,144(r31)
    1ca0:	7d 20 07 b4 	extsw   r0,r9
    1ca4:	7c 03 03 78 	mr      r3,r0
    1ca8:	e9 61 00 00 	ld      r11,0(r1)
    1cac:	e8 0b 00 10 	ld      r0,16(r11)
    1cb0:	7c 08 03 a6 	mtlr    r0
    1cb4:	eb eb ff f8 	ld      r31,-8(r11)
    1cb8:	7d 61 5b 78 	mr      r1,r11
    1cbc:	4e 80 00 20 	blr
    1cc0:	f8 21 ff 51 	stdu    r1,-176(r1)
    1cc4:	7c 08 02 a6 	mflr    r0
    1cc8:	fb e1 00 a8 	std     r31,168(r1)
    1ccc:	f8 01 00 c0 	std     r0,192(r1)
    1cd0:	7c 3f 0b 78 	mr      r31,r1
    1cd4:	7c 60 1b 78 	mr      r0,r3
    1cd8:	7c 89 23 78 	mr      r9,r4
    1cdc:	7c ab 2b 78 	mr      r11,r5
    1ce0:	90 1f 00 e0 	stw     r0,224(r31)
    1ce4:	91 3f 00 e8 	stw     r9,232(r31)
    1ce8:	91 7f 00 f0 	stw     r11,240(r31)
    1cec:	80 1f 00 e0 	lwz     r0,224(r31)
    1cf0:	78 09 00 20 	clrldi  r9,r0,32
    1cf4:	80 09 00 08 	lwz     r0,8(r9)
    1cf8:	78 00 00 20 	clrldi  r0,r0,32
    1cfc:	7c 03 03 78 	mr      r3,r0
    1d00:	38 80 00 00 	li      r4,0
    1d04:	48 00 1e c1 	bl      0x3bc4
    1d08:	60 00 00 00 	nop
    1d0c:	38 00 00 02 	li      r0,2
    1d10:	90 1f 00 70 	stw     r0,112(r31)
    1d14:	80 1f 00 e8 	lwz     r0,232(r31)
    1d18:	90 1f 00 74 	stw     r0,116(r31)
    1d1c:	80 1f 00 f0 	lwz     r0,240(r31)
    1d20:	78 09 00 20 	clrldi  r9,r0,32
    1d24:	80 09 00 00 	lwz     r0,0(r9)
    1d28:	90 1f 00 78 	stw     r0,120(r31)
    1d2c:	80 1f 00 f0 	lwz     r0,240(r31)
    1d30:	78 09 00 20 	clrldi  r9,r0,32
    1d34:	80 09 00 04 	lwz     r0,4(r9)
    1d38:	90 1f 00 7c 	stw     r0,124(r31)
    1d3c:	80 1f 00 e0 	lwz     r0,224(r31)
    1d40:	78 09 00 20 	clrldi  r9,r0,32
    1d44:	38 1f 00 70 	addi    r0,r31,112
    1d48:	78 00 00 20 	clrldi  r0,r0,32
    1d4c:	7d 23 4b 78 	mr      r3,r9
    1d50:	7c 04 03 78 	mr      r4,r0
    1d54:	4b ff e3 1d 	bl      0x70
    1d58:	7c 60 1b 78 	mr      r0,r3
    1d5c:	7c 09 03 78 	mr      r9,r0
    1d60:	3c 00 80 61 	lis     r0,-32671
    1d64:	60 00 27 64 	ori     r0,r0,10084
    1d68:	7f 89 00 00 	cmpw    cr7,r9,r0
    1d6c:	40 9e 00 44 	bne-    cr7,0x1db0
    1d70:	80 62 80 54 	lwz     r3,-32684(r2)
    1d74:	48 00 24 11 	bl      0x4184
    1d78:	e8 41 00 28 	ld      r2,40(r1)
    1d7c:	80 1f 00 e0 	lwz     r0,224(r31)
    1d80:	78 09 00 20 	clrldi  r9,r0,32
    1d84:	80 09 00 08 	lwz     r0,8(r9)
    1d88:	78 00 00 20 	clrldi  r0,r0,32
    1d8c:	7c 03 03 78 	mr      r3,r0
    1d90:	48 00 1e 75 	bl      0x3c04
    1d94:	60 00 00 00 	nop
    1d98:	3c 00 80 61 	lis     r0,-32671
    1d9c:	90 1f 00 90 	stw     r0,144(r31)
    1da0:	81 3f 00 90 	lwz     r9,144(r31)
    1da4:	61 29 27 64 	ori     r9,r9,10084
    1da8:	91 3f 00 90 	stw     r9,144(r31)
    1dac:	48 00 00 44 	b       0x1df0
    1db0:	80 1f 00 e0 	lwz     r0,224(r31)
    1db4:	78 09 00 20 	clrldi  r9,r0,32
    1db8:	80 09 00 08 	lwz     r0,8(r9)
    1dbc:	78 00 00 20 	clrldi  r0,r0,32
    1dc0:	7c 03 03 78 	mr      r3,r0
    1dc4:	48 00 1e 41 	bl      0x3c04
    1dc8:	60 00 00 00 	nop
    1dcc:	80 1f 00 e0 	lwz     r0,224(r31)
    1dd0:	78 09 00 20 	clrldi  r9,r0,32
    1dd4:	80 09 00 0c 	lwz     r0,12(r9)
    1dd8:	78 00 00 20 	clrldi  r0,r0,32
    1ddc:	7c 03 03 78 	mr      r3,r0
    1de0:	48 00 1e a5 	bl      0x3c84
    1de4:	60 00 00 00 	nop
    1de8:	38 00 00 00 	li      r0,0
    1dec:	90 1f 00 90 	stw     r0,144(r31)
    1df0:	81 3f 00 90 	lwz     r9,144(r31)
    1df4:	7d 20 07 b4 	extsw   r0,r9
    1df8:	7c 03 03 78 	mr      r3,r0
    1dfc:	e9 61 00 00 	ld      r11,0(r1)
    1e00:	e8 0b 00 10 	ld      r0,16(r11)
    1e04:	7c 08 03 a6 	mtlr    r0
    1e08:	eb eb ff f8 	ld      r31,-8(r11)
    1e0c:	7d 61 5b 78 	mr      r1,r11
    1e10:	4e 80 00 20 	blr
    1e14:	f8 21 ff 61 	stdu    r1,-160(r1)
    1e18:	7c 08 02 a6 	mflr    r0
    1e1c:	fb a1 00 88 	std     r29,136(r1)
    1e20:	fb e1 00 98 	std     r31,152(r1)
    1e24:	f8 01 00 b0 	std     r0,176(r1)
    1e28:	7c 3f 0b 78 	mr      r31,r1
    1e2c:	7c 60 1b 78 	mr      r0,r3
    1e30:	78 1d 00 20 	clrldi  r29,r0,32
    1e34:	48 00 05 c5 	bl      0x23f8
    1e38:	60 00 00 00 	nop
    1e3c:	7c 60 1b 78 	mr      r0,r3
    1e40:	90 1f 00 70 	stw     r0,112(r31)
    1e44:	80 1f 00 70 	lwz     r0,112(r31)
    1e48:	7c 00 c6 70 	srawi   r0,r0,24
    1e4c:	98 1f 00 74 	stb     r0,116(r31)
    1e50:	80 1f 00 70 	lwz     r0,112(r31)
    1e54:	7c 00 86 70 	srawi   r0,r0,16
    1e58:	7c 09 03 78 	mr      r9,r0
    1e5c:	38 00 ff ff 	li      r0,-1
    1e60:	7d 20 00 38 	and     r0,r9,r0
    1e64:	98 1f 00 75 	stb     r0,117(r31)
    1e68:	80 1f 00 70 	lwz     r0,112(r31)
    1e6c:	7c 00 46 70 	srawi   r0,r0,8
    1e70:	7c 09 03 78 	mr      r9,r0
    1e74:	38 00 ff ff 	li      r0,-1
    1e78:	7d 20 00 38 	and     r0,r9,r0
    1e7c:	98 1f 00 76 	stb     r0,118(r31)
    1e80:	80 1f 00 70 	lwz     r0,112(r31)
    1e84:	7c 09 03 78 	mr      r9,r0
    1e88:	38 00 ff ff 	li      r0,-1
    1e8c:	7d 20 00 38 	and     r0,r9,r0
    1e90:	98 1f 00 77 	stb     r0,119(r31)
    1e94:	88 1f 00 74 	lbz     r0,116(r31)
    1e98:	98 1d 00 00 	stb     r0,0(r29)
    1e9c:	88 1f 00 75 	lbz     r0,117(r31)
    1ea0:	98 1d 00 01 	stb     r0,1(r29)
    1ea4:	88 1f 00 76 	lbz     r0,118(r31)
    1ea8:	98 1d 00 02 	stb     r0,2(r29)
    1eac:	88 1f 00 77 	lbz     r0,119(r31)
    1eb0:	98 1d 00 03 	stb     r0,3(r29)
    1eb4:	7f a3 eb 78 	mr      r3,r29
    1eb8:	e9 61 00 00 	ld      r11,0(r1)
    1ebc:	e8 0b 00 10 	ld      r0,16(r11)
    1ec0:	7c 08 03 a6 	mtlr    r0
    1ec4:	eb ab ff e8 	ld      r29,-24(r11)
    1ec8:	eb eb ff f8 	ld      r31,-8(r11)
    1ecc:	7d 61 5b 78 	mr      r1,r11
    1ed0:	4e 80 00 20 	blr
    1ed4:	f8 21 ff 51 	stdu    r1,-176(r1)
    1ed8:	7c 08 02 a6 	mflr    r0
    1edc:	fb e1 00 a8 	std     r31,168(r1)
    1ee0:	f8 01 00 c0 	std     r0,192(r1)
    1ee4:	7c 3f 0b 78 	mr      r31,r1
    1ee8:	7c 60 1b 78 	mr      r0,r3
    1eec:	7c 89 23 78 	mr      r9,r4
    1ef0:	7c ab 2b 78 	mr      r11,r5
    1ef4:	7c ca 33 78 	mr      r10,r6
    1ef8:	90 1f 00 e0 	stw     r0,224(r31)
    1efc:	91 3f 00 e8 	stw     r9,232(r31)
    1f00:	91 7f 00 f0 	stw     r11,240(r31)
    1f04:	91 5f 00 f8 	stw     r10,248(r31)
    1f08:	81 3f 00 e0 	lwz     r9,224(r31)
    1f0c:	38 09 01 48 	addi    r0,r9,328
    1f10:	90 1f 00 84 	stw     r0,132(r31)
    1f14:	80 1f 00 e8 	lwz     r0,232(r31)
    1f18:	90 1f 00 7c 	stw     r0,124(r31)
    1f1c:	80 1f 00 f0 	lwz     r0,240(r31)
    1f20:	90 1f 00 78 	stw     r0,120(r31)
    1f24:	80 1f 00 e8 	lwz     r0,232(r31)
    1f28:	90 1f 00 74 	stw     r0,116(r31)
    1f2c:	80 1f 00 f0 	lwz     r0,240(r31)
    1f30:	90 1f 00 70 	stw     r0,112(r31)
    1f34:	80 1f 00 e8 	lwz     r0,232(r31)
    1f38:	2f 80 00 00 	cmpwi   cr7,r0,0
    1f3c:	40 9e 00 10 	bne-    cr7,0x1f4c
    1f40:	38 00 00 00 	li      r0,0
    1f44:	90 1f 00 94 	stw     r0,148(r31)
    1f48:	48 00 01 6c 	b       0x20b4
    1f4c:	80 1f 00 84 	lwz     r0,132(r31)
    1f50:	78 09 00 20 	clrldi  r9,r0,32
    1f54:	88 09 00 84 	lbz     r0,132(r9)
    1f58:	54 00 06 3e 	clrlwi  r0,r0,24
    1f5c:	90 1f 00 90 	stw     r0,144(r31)
    1f60:	81 3f 00 90 	lwz     r9,144(r31)
    1f64:	2f 89 00 03 	cmpwi   cr7,r9,3
    1f68:	41 9e 00 30 	beq-    cr7,0x1f98
    1f6c:	80 1f 00 90 	lwz     r0,144(r31)
    1f70:	2f 80 00 03 	cmpwi   cr7,r0,3
    1f74:	41 9d 00 14 	bgt-    cr7,0x1f88
    1f78:	81 3f 00 90 	lwz     r9,144(r31)
    1f7c:	2f 89 00 00 	cmpwi   cr7,r9,0
    1f80:	41 9c 01 08 	blt-    cr7,0x2088
    1f84:	48 00 00 84 	b       0x2008
    1f88:	80 1f 00 90 	lwz     r0,144(r31)
    1f8c:	2f 80 00 04 	cmpwi   cr7,r0,4
    1f90:	41 9e 00 88 	beq-    cr7,0x2018
    1f94:	48 00 00 f4 	b       0x2088
    1f98:	38 00 00 00 	li      r0,0
    1f9c:	90 1f 00 80 	stw     r0,128(r31)
    1fa0:	48 00 00 48 	b       0x1fe8
    1fa4:	80 1f 00 80 	lwz     r0,128(r31)
    1fa8:	54 00 08 3c 	rlwinm  r0,r0,1,0,30
    1fac:	7c 09 03 78 	mr      r9,r0
    1fb0:	80 1f 00 7c 	lwz     r0,124(r31)
    1fb4:	7d 69 02 14 	add     r11,r9,r0
    1fb8:	80 1f 00 80 	lwz     r0,128(r31)
    1fbc:	54 00 08 3c 	rlwinm  r0,r0,1,0,30
    1fc0:	7c 09 03 78 	mr      r9,r0
    1fc4:	80 1f 00 78 	lwz     r0,120(r31)
    1fc8:	7c 09 02 14 	add     r0,r9,r0
    1fcc:	78 09 00 20 	clrldi  r9,r0,32
    1fd0:	a0 09 00 00 	lhz     r0,0(r9)
    1fd4:	79 69 00 20 	clrldi  r9,r11,32
    1fd8:	b0 09 00 00 	sth     r0,0(r9)
    1fdc:	81 3f 00 80 	lwz     r9,128(r31)
    1fe0:	38 09 00 01 	addi    r0,r9,1
    1fe4:	90 1f 00 80 	stw     r0,128(r31)
    1fe8:	80 1f 00 84 	lwz     r0,132(r31)
    1fec:	78 09 00 20 	clrldi  r9,r0,32
    1ff0:	80 09 00 88 	lwz     r0,136(r9)
    1ff4:	54 09 f8 7e 	rlwinm  r9,r0,31,1,31
    1ff8:	80 1f 00 80 	lwz     r0,128(r31)
    1ffc:	7f 89 00 40 	cmplw   cr7,r9,r0
    2000:	41 9d ff a4 	bgt+    cr7,0x1fa4
    2004:	48 00 00 a8 	b       0x20ac
    2008:	80 62 80 58 	lwz     r3,-32680(r2)
    200c:	48 00 21 79 	bl      0x4184
    2010:	e8 41 00 28 	ld      r2,40(r1)
    2014:	48 00 00 98 	b       0x20ac
    2018:	38 00 00 00 	li      r0,0
    201c:	90 1f 00 80 	stw     r0,128(r31)
    2020:	48 00 00 48 	b       0x2068
    2024:	80 1f 00 80 	lwz     r0,128(r31)
    2028:	54 00 10 3a 	rlwinm  r0,r0,2,0,29
    202c:	7c 09 03 78 	mr      r9,r0
    2030:	80 1f 00 74 	lwz     r0,116(r31)
    2034:	7d 69 02 14 	add     r11,r9,r0
    2038:	80 1f 00 80 	lwz     r0,128(r31)
    203c:	54 00 10 3a 	rlwinm  r0,r0,2,0,29
    2040:	7c 09 03 78 	mr      r9,r0
    2044:	80 1f 00 70 	lwz     r0,112(r31)
    2048:	7c 09 02 14 	add     r0,r9,r0
    204c:	78 09 00 20 	clrldi  r9,r0,32
    2050:	c0 09 00 00 	lfs     f0,0(r9)
    2054:	79 69 00 20 	clrldi  r9,r11,32
    2058:	d0 09 00 00 	stfs    f0,0(r9)
    205c:	81 3f 00 80 	lwz     r9,128(r31)
    2060:	38 09 00 01 	addi    r0,r9,1
    2064:	90 1f 00 80 	stw     r0,128(r31)
    2068:	80 1f 00 84 	lwz     r0,132(r31)
    206c:	78 09 00 20 	clrldi  r9,r0,32
    2070:	80 09 00 88 	lwz     r0,136(r9)
    2074:	54 09 f0 be 	rlwinm  r9,r0,30,2,31
    2078:	80 1f 00 80 	lwz     r0,128(r31)
    207c:	7f 89 00 40 	cmplw   cr7,r9,r0
    2080:	41 9d ff a4 	bgt+    cr7,0x2024
    2084:	48 00 00 28 	b       0x20ac
    2088:	80 1f 00 84 	lwz     r0,132(r31)
    208c:	78 09 00 20 	clrldi  r9,r0,32
    2090:	88 09 00 84 	lbz     r0,132(r9)
    2094:	54 00 06 3e 	clrlwi  r0,r0,24
    2098:	7c 00 07 b4 	extsw   r0,r0
    209c:	80 62 80 5c 	lwz     r3,-32676(r2)
    20a0:	7c 04 03 78 	mr      r4,r0
    20a4:	48 00 20 e1 	bl      0x4184
    20a8:	e8 41 00 28 	ld      r2,40(r1)
    20ac:	38 00 00 00 	li      r0,0
    20b0:	90 1f 00 94 	stw     r0,148(r31)
    20b4:	81 3f 00 94 	lwz     r9,148(r31)
    20b8:	7d 20 07 b4 	extsw   r0,r9
    20bc:	7c 03 03 78 	mr      r3,r0
    20c0:	e9 61 00 00 	ld      r11,0(r1)
    20c4:	e8 0b 00 10 	ld      r0,16(r11)
    20c8:	7c 08 03 a6 	mtlr    r0
    20cc:	eb eb ff f8 	ld      r31,-8(r11)
    20d0:	7d 61 5b 78 	mr      r1,r11
    20d4:	4e 80 00 20 	blr
    20d8:	f8 21 ff 81 	stdu    r1,-128(r1)
    20dc:	7c 08 02 a6 	mflr    r0
    20e0:	fb e1 00 78 	std     r31,120(r1)
    20e4:	f8 01 00 90 	std     r0,144(r1)
    20e8:	7c 3f 0b 78 	mr      r31,r1
    20ec:	7c 60 1b 78 	mr      r0,r3
    20f0:	7c 89 23 78 	mr      r9,r4
    20f4:	7c ab 2b 78 	mr      r11,r5
    20f8:	90 1f 00 b0 	stw     r0,176(r31)
    20fc:	91 3f 00 b8 	stw     r9,184(r31)
    2100:	91 7f 00 c0 	stw     r11,192(r31)
    2104:	80 1f 00 b0 	lwz     r0,176(r31)
    2108:	78 09 00 20 	clrldi  r9,r0,32
    210c:	80 09 00 8c 	lwz     r0,140(r9)
    2110:	78 00 00 20 	clrldi  r0,r0,32
    2114:	7c 03 03 78 	mr      r3,r0
    2118:	38 80 00 00 	li      r4,0
    211c:	48 00 1a a9 	bl      0x3bc4
    2120:	60 00 00 00 	nop
    2124:	80 1f 00 b0 	lwz     r0,176(r31)
    2128:	78 09 00 20 	clrldi  r9,r0,32
    212c:	38 00 00 00 	li      r0,0
    2130:	90 09 00 94 	stw     r0,148(r9)
    2134:	80 1f 00 b0 	lwz     r0,176(r31)
    2138:	78 09 00 20 	clrldi  r9,r0,32
    213c:	80 09 00 90 	lwz     r0,144(r9)
    2140:	78 00 00 20 	clrldi  r0,r0,32
    2144:	7c 03 03 78 	mr      r3,r0
    2148:	48 00 1b 3d 	bl      0x3c84
    214c:	60 00 00 00 	nop
    2150:	80 1f 00 b0 	lwz     r0,176(r31)
    2154:	78 09 00 20 	clrldi  r9,r0,32
    2158:	80 09 00 8c 	lwz     r0,140(r9)
    215c:	78 00 00 20 	clrldi  r0,r0,32
    2160:	7c 03 03 78 	mr      r3,r0
    2164:	48 00 1a a1 	bl      0x3c04
    2168:	60 00 00 00 	nop
    216c:	38 00 00 00 	li      r0,0
    2170:	7c 00 07 b4 	extsw   r0,r0
    2174:	7c 03 03 78 	mr      r3,r0
    2178:	e9 61 00 00 	ld      r11,0(r1)
    217c:	e8 0b 00 10 	ld      r0,16(r11)
    2180:	7c 08 03 a6 	mtlr    r0
    2184:	eb eb ff f8 	ld      r31,-8(r11)
    2188:	7d 61 5b 78 	mr      r1,r11
    218c:	4e 80 00 20 	blr
    2190:	f8 21 ff c1 	stdu    r1,-64(r1)
    2194:	fb e1 00 38 	std     r31,56(r1)
    2198:	7c 3f 0b 78 	mr      r31,r1
    219c:	38 00 00 03 	li      r0,3
    21a0:	7c 00 07 b4 	extsw   r0,r0
    21a4:	7c 03 03 78 	mr      r3,r0
    21a8:	e9 61 00 00 	ld      r11,0(r1)
    21ac:	eb eb ff f8 	ld      r31,-8(r11)
    21b0:	7d 61 5b 78 	mr      r1,r11
    21b4:	4e 80 00 20 	blr
    21b8:	f8 21 ff c1 	stdu    r1,-64(r1)
    21bc:	fb e1 00 38 	std     r31,56(r1)
    21c0:	7c 3f 0b 78 	mr      r31,r1
    21c4:	38 00 00 1c 	li      r0,28
    21c8:	7c 00 07 b4 	extsw   r0,r0
    21cc:	7c 03 03 78 	mr      r3,r0
    21d0:	e9 61 00 00 	ld      r11,0(r1)
    21d4:	eb eb ff f8 	ld      r31,-8(r11)
    21d8:	7d 61 5b 78 	mr      r1,r11
    21dc:	4e 80 00 20 	blr
    21e0:	f8 21 ff 61 	stdu    r1,-160(r1)
    21e4:	7c 08 02 a6 	mflr    r0
    21e8:	fb e1 00 98 	std     r31,152(r1)
    21ec:	f8 01 00 b0 	std     r0,176(r1)
    21f0:	7c 3f 0b 78 	mr      r31,r1
    21f4:	7c 60 1b 78 	mr      r0,r3
    21f8:	7c 89 23 78 	mr      r9,r4
    21fc:	7c ab 2b 78 	mr      r11,r5
    2200:	7c ca 33 78 	mr      r10,r6
    2204:	90 1f 00 d0 	stw     r0,208(r31)
    2208:	91 3f 00 d8 	stw     r9,216(r31)
    220c:	91 7f 00 e0 	stw     r11,224(r31)
    2210:	91 5f 00 e8 	stw     r10,232(r31)
    2214:	90 ff 00 f0 	stw     r7,240(r31)
    2218:	91 1f 00 f8 	stw     r8,248(r31)
    221c:	81 3f 00 d0 	lwz     r9,208(r31)
    2220:	38 09 01 48 	addi    r0,r9,328
    2224:	90 1f 00 70 	stw     r0,112(r31)
    2228:	81 3f 00 70 	lwz     r9,112(r31)
    222c:	39 29 00 88 	addi    r9,r9,136
    2230:	80 1f 00 70 	lwz     r0,112(r31)
    2234:	78 0b 00 20 	clrldi  r11,r0,32
    2238:	80 1f 00 d8 	lwz     r0,216(r31)
    223c:	78 0a 00 20 	clrldi  r10,r0,32
    2240:	80 1f 00 e0 	lwz     r0,224(r31)
    2244:	78 08 00 20 	clrldi  r8,r0,32
    2248:	80 1f 00 e8 	lwz     r0,232(r31)
    224c:	78 07 00 20 	clrldi  r7,r0,32
    2250:	79 29 00 20 	clrldi  r9,r9,32
    2254:	80 1f 00 f8 	lwz     r0,248(r31)
    2258:	78 00 00 20 	clrldi  r0,r0,32
    225c:	7d 63 5b 78 	mr      r3,r11
    2260:	7d 44 53 78 	mr      r4,r10
    2264:	7d 05 43 78 	mr      r5,r8
    2268:	7c e6 3b 78 	mr      r6,r7
    226c:	7d 27 4b 78 	mr      r7,r9
    2270:	7c 08 03 78 	mr      r8,r0
    2274:	48 00 0f 8d 	bl      0x3200
    2278:	60 00 00 00 	nop
    227c:	7c 60 1b 78 	mr      r0,r3
    2280:	90 1f 00 74 	stw     r0,116(r31)
    2284:	80 1f 00 70 	lwz     r0,112(r31)
    2288:	78 09 00 20 	clrldi  r9,r0,32
    228c:	81 69 00 88 	lwz     r11,136(r9)
    2290:	80 1f 00 f0 	lwz     r0,240(r31)
    2294:	78 09 00 20 	clrldi  r9,r0,32
    2298:	91 69 00 00 	stw     r11,0(r9)
    229c:	80 1f 00 74 	lwz     r0,116(r31)
    22a0:	2f 80 00 00 	cmpwi   cr7,r0,0
    22a4:	41 9e 00 54 	beq-    cr7,0x22f8
    22a8:	80 1f 00 74 	lwz     r0,116(r31)
    22ac:	7c 00 07 b4 	extsw   r0,r0
    22b0:	80 62 80 60 	lwz     r3,-32672(r2)
    22b4:	7c 04 03 78 	mr      r4,r0
    22b8:	48 00 1e cd 	bl      0x4184
    22bc:	e8 41 00 28 	ld      r2,40(r1)
    22c0:	80 1f 00 70 	lwz     r0,112(r31)
    22c4:	78 09 00 20 	clrldi  r9,r0,32
    22c8:	80 1f 00 f8 	lwz     r0,248(r31)
    22cc:	78 00 00 20 	clrldi  r0,r0,32
    22d0:	7d 23 4b 78 	mr      r3,r9
    22d4:	7c 04 03 78 	mr      r4,r0
    22d8:	48 00 11 6d 	bl      0x3444
    22dc:	60 00 00 00 	nop
    22e0:	3c 00 80 61 	lis     r0,-32671
    22e4:	90 1f 00 80 	stw     r0,128(r31)
    22e8:	81 3f 00 80 	lwz     r9,128(r31)
    22ec:	61 29 00 01 	ori     r9,r9,1
    22f0:	91 3f 00 80 	stw     r9,128(r31)
    22f4:	48 00 00 0c 	b       0x2300
    22f8:	38 00 00 00 	li      r0,0
    22fc:	90 1f 00 80 	stw     r0,128(r31)
    2300:	81 3f 00 80 	lwz     r9,128(r31)
    2304:	7d 20 07 b4 	extsw   r0,r9
    2308:	7c 03 03 78 	mr      r3,r0
    230c:	e9 61 00 00 	ld      r11,0(r1)
    2310:	e8 0b 00 10 	ld      r0,16(r11)
    2314:	7c 08 03 a6 	mtlr    r0
    2318:	eb eb ff f8 	ld      r31,-8(r11)
    231c:	7d 61 5b 78 	mr      r1,r11
    2320:	4e 80 00 20 	blr
    2324:	f8 21 ff a1 	stdu    r1,-96(r1)
    2328:	fb e1 00 58 	std     r31,88(r1)
    232c:	7c 3f 0b 78 	mr      r31,r1
    2330:	7c 60 1b 78 	mr      r0,r3
    2334:	7c 89 23 78 	mr      r9,r4
    2338:	90 1f 00 90 	stw     r0,144(r31)
    233c:	91 3f 00 98 	stw     r9,152(r31)
    2340:	38 00 00 00 	li      r0,0
    2344:	90 1f 00 30 	stw     r0,48(r31)
    2348:	48 00 00 38 	b       0x2380
    234c:	80 1f 00 30 	lwz     r0,48(r31)
    2350:	81 22 80 64 	lwz     r9,-32668(r2)
    2354:	54 00 18 38 	rlwinm  r0,r0,3,0,28
    2358:	7c 00 07 b4 	extsw   r0,r0
    235c:	7d 69 00 2e 	lwzx    r11,r9,r0
    2360:	80 1f 00 90 	lwz     r0,144(r31)
    2364:	78 09 00 20 	clrldi  r9,r0,32
    2368:	80 09 00 00 	lwz     r0,0(r9)
    236c:	7f 8b 00 00 	cmpw    cr7,r11,r0
    2370:	41 9e 00 1c 	beq-    cr7,0x238c
    2374:	81 3f 00 30 	lwz     r9,48(r31)
    2378:	38 09 00 01 	addi    r0,r9,1
    237c:	90 1f 00 30 	stw     r0,48(r31)
    2380:	80 1f 00 30 	lwz     r0,48(r31)
    2384:	2b 80 00 13 	cmplwi  cr7,r0,19
    2388:	40 9d ff c4 	ble+    cr7,0x234c
    238c:	80 1f 00 30 	lwz     r0,48(r31)
    2390:	2f 80 00 14 	cmpwi   cr7,r0,20
    2394:	40 9e 00 1c 	bne-    cr7,0x23b0
    2398:	3c 00 80 61 	lis     r0,-32671
    239c:	90 1f 00 40 	stw     r0,64(r31)
    23a0:	81 3f 00 40 	lwz     r9,64(r31)
    23a4:	61 29 00 01 	ori     r9,r9,1
    23a8:	91 3f 00 40 	stw     r9,64(r31)
    23ac:	48 00 00 30 	b       0x23dc
    23b0:	80 1f 00 30 	lwz     r0,48(r31)
    23b4:	81 22 80 64 	lwz     r9,-32668(r2)
    23b8:	54 00 18 38 	rlwinm  r0,r0,3,0,28
    23bc:	7c 00 07 b4 	extsw   r0,r0
    23c0:	7d 29 02 14 	add     r9,r9,r0
    23c4:	81 69 00 04 	lwz     r11,4(r9)
    23c8:	80 1f 00 98 	lwz     r0,152(r31)
    23cc:	78 09 00 20 	clrldi  r9,r0,32
    23d0:	91 69 00 00 	stw     r11,0(r9)
    23d4:	38 00 00 00 	li      r0,0
    23d8:	90 1f 00 40 	stw     r0,64(r31)
    23dc:	81 3f 00 40 	lwz     r9,64(r31)
    23e0:	7d 20 07 b4 	extsw   r0,r9
    23e4:	7c 03 03 78 	mr      r3,r0
    23e8:	e9 61 00 00 	ld      r11,0(r1)
    23ec:	eb eb ff f8 	ld      r31,-8(r11)
    23f0:	7d 61 5b 78 	mr      r1,r11
    23f4:	4e 80 00 20 	blr
    23f8:	f8 21 ff c1 	stdu    r1,-64(r1)
    23fc:	fb e1 00 38 	std     r31,56(r1)
    2400:	7c 3f 0b 78 	mr      r31,r1
    2404:	3c 00 01 03 	lis     r0,259
    2408:	78 00 00 20 	clrldi  r0,r0,32
    240c:	7c 03 03 78 	mr      r3,r0
    2410:	e9 61 00 00 	ld      r11,0(r1)
    2414:	eb eb ff f8 	ld      r31,-8(r11)
    2418:	7d 61 5b 78 	mr      r1,r11
    241c:	4e 80 00 20 	blr
    2420:	f8 21 fd 21 	stdu    r1,-736(r1)
    2424:	7c 08 02 a6 	mflr    r0
    2428:	fb 61 02 b8 	std     r27,696(r1)
    242c:	fb 81 02 c0 	std     r28,704(r1)
    2430:	fb a1 02 c8 	std     r29,712(r1)
    2434:	fb e1 02 d8 	std     r31,728(r1)
    2438:	f8 01 02 f0 	std     r0,752(r1)
    243c:	7c 3f 0b 78 	mr      r31,r1
    2440:	7c 60 1b 78 	mr      r0,r3
    2444:	7c 89 23 78 	mr      r9,r4
    2448:	7c ab 2b 78 	mr      r11,r5
    244c:	90 1f 03 10 	stw     r0,784(r31)
    2450:	91 3f 03 18 	stw     r9,792(r31)
    2454:	91 7f 03 20 	stw     r11,800(r31)
    2458:	80 1f 03 10 	lwz     r0,784(r31)
    245c:	2f 80 00 00 	cmpwi   cr7,r0,0
    2460:	40 9e 00 28 	bne-    cr7,0x2488
    2464:	80 1f 03 10 	lwz     r0,784(r31)
    2468:	78 00 00 20 	clrldi  r0,r0,32
    246c:	80 62 80 68 	lwz     r3,-32664(r2)
    2470:	7c 04 03 78 	mr      r4,r0
    2474:	48 00 1d 11 	bl      0x4184
    2478:	e8 41 00 28 	ld      r2,40(r1)
    247c:	38 00 00 01 	li      r0,1
    2480:	90 1f 02 a0 	stw     r0,672(r31)
    2484:	48 00 06 bc 	b       0x2b40
    2488:	81 3f 03 18 	lwz     r9,792(r31)
    248c:	38 09 00 7f 	addi    r0,r9,127
    2490:	54 00 00 30 	rlwinm  r0,r0,0,0,24
    2494:	7c 0b 03 78 	mr      r11,r0
    2498:	80 1f 03 10 	lwz     r0,784(r31)
    249c:	78 09 00 20 	clrldi  r9,r0,32
    24a0:	91 69 00 7c 	stw     r11,124(r9)
    24a4:	80 1f 03 10 	lwz     r0,784(r31)
    24a8:	78 09 00 20 	clrldi  r9,r0,32
    24ac:	80 1f 03 20 	lwz     r0,800(r31)
    24b0:	78 00 00 20 	clrldi  r0,r0,32
    24b4:	7d 23 4b 78 	mr      r3,r9
    24b8:	7c 04 03 78 	mr      r4,r0
    24bc:	38 a0 00 78 	li      r5,120
    24c0:	48 00 1c a5 	bl      0x4164
    24c4:	e8 41 00 28 	ld      r2,40(r1)
    24c8:	80 1f 03 20 	lwz     r0,800(r31)
    24cc:	78 09 00 20 	clrldi  r9,r0,32
    24d0:	88 09 00 00 	lbz     r0,0(r9)
    24d4:	54 00 06 3e 	clrlwi  r0,r0,24
    24d8:	2f 80 00 01 	cmpwi   cr7,r0,1
    24dc:	40 9e 01 30 	bne-    cr7,0x260c
    24e0:	80 1f 03 20 	lwz     r0,800(r31)
    24e4:	78 09 00 20 	clrldi  r9,r0,32
    24e8:	81 69 00 28 	lwz     r11,40(r9)
    24ec:	80 1f 03 20 	lwz     r0,800(r31)
    24f0:	78 09 00 20 	clrldi  r9,r0,32
    24f4:	81 29 00 24 	lwz     r9,36(r9)
    24f8:	38 1f 00 98 	addi    r0,r31,152
    24fc:	78 00 00 20 	clrldi  r0,r0,32
    2500:	7d 6b 07 b4 	extsw   r11,r11
    2504:	7d 29 07 b4 	extsw   r9,r9
    2508:	7c 03 03 78 	mr      r3,r0
    250c:	38 80 00 01 	li      r4,1
    2510:	7d 65 5b 78 	mr      r5,r11
    2514:	7d 26 4b 78 	mr      r6,r9
    2518:	38 e0 00 01 	li      r7,1
    251c:	48 00 06 51 	bl      0x2b6c
    2520:	7c 60 1b 78 	mr      r0,r3
    2524:	90 1f 00 70 	stw     r0,112(r31)
    2528:	80 1f 00 70 	lwz     r0,112(r31)
    252c:	2f 80 00 00 	cmpwi   cr7,r0,0
    2530:	41 9e 00 28 	beq-    cr7,0x2558
    2534:	80 1f 00 70 	lwz     r0,112(r31)
    2538:	7c 00 07 b4 	extsw   r0,r0
    253c:	80 62 80 6c 	lwz     r3,-32660(r2)
    2540:	7c 04 03 78 	mr      r4,r0
    2544:	48 00 1c 41 	bl      0x4184
    2548:	e8 41 00 28 	ld      r2,40(r1)
    254c:	38 00 00 01 	li      r0,1
    2550:	90 1f 02 a0 	stw     r0,672(r31)
    2554:	48 00 05 ec 	b       0x2b40
    2558:	38 1f 00 98 	addi    r0,r31,152
    255c:	78 00 00 20 	clrldi  r0,r0,32
    2560:	7c 03 03 78 	mr      r3,r0
    2564:	80 82 80 70 	lwz     r4,-32656(r2)
    2568:	38 a0 00 0c 	li      r5,12
    256c:	48 00 1c 79 	bl      0x41e4
    2570:	e8 41 00 28 	ld      r2,40(r1)
    2574:	7c 60 1b 78 	mr      r0,r3
    2578:	90 1f 00 70 	stw     r0,112(r31)
    257c:	80 1f 00 70 	lwz     r0,112(r31)
    2580:	2f 80 00 00 	cmpwi   cr7,r0,0
    2584:	41 9e 00 28 	beq-    cr7,0x25ac
    2588:	80 1f 00 70 	lwz     r0,112(r31)
    258c:	7c 00 07 b4 	extsw   r0,r0
    2590:	80 62 80 74 	lwz     r3,-32652(r2)
    2594:	7c 04 03 78 	mr      r4,r0
    2598:	48 00 1b ed 	bl      0x4184
    259c:	e8 41 00 28 	ld      r2,40(r1)
    25a0:	38 00 00 01 	li      r0,1
    25a4:	90 1f 02 a0 	stw     r0,672(r31)
    25a8:	48 00 05 98 	b       0x2b40
    25ac:	80 1f 03 20 	lwz     r0,800(r31)
    25b0:	78 09 00 20 	clrldi  r9,r0,32
    25b4:	80 09 00 04 	lwz     r0,4(r9)
    25b8:	78 09 00 20 	clrldi  r9,r0,32
    25bc:	38 1f 00 98 	addi    r0,r31,152
    25c0:	78 00 00 20 	clrldi  r0,r0,32
    25c4:	7d 23 4b 78 	mr      r3,r9
    25c8:	7c 04 03 78 	mr      r4,r0
    25cc:	48 00 1d 79 	bl      0x4344
    25d0:	e8 41 00 28 	ld      r2,40(r1)
    25d4:	7c 60 1b 78 	mr      r0,r3
    25d8:	90 1f 00 70 	stw     r0,112(r31)
    25dc:	80 1f 00 70 	lwz     r0,112(r31)
    25e0:	2f 80 00 00 	cmpwi   cr7,r0,0
    25e4:	41 9e 00 28 	beq-    cr7,0x260c
    25e8:	80 1f 00 70 	lwz     r0,112(r31)
    25ec:	7c 00 07 b4 	extsw   r0,r0
    25f0:	80 62 80 78 	lwz     r3,-32648(r2)
    25f4:	7c 04 03 78 	mr      r4,r0
    25f8:	48 00 1b 8d 	bl      0x4184
    25fc:	e8 41 00 28 	ld      r2,40(r1)
    2600:	38 00 00 01 	li      r0,1
    2604:	90 1f 02 a0 	stw     r0,672(r31)
    2608:	48 00 05 38 	b       0x2b40
    260c:	81 3f 03 20 	lwz     r9,800(r31)
    2610:	39 69 00 2c 	addi    r11,r9,44
    2614:	80 1f 03 20 	lwz     r0,800(r31)
    2618:	78 09 00 20 	clrldi  r9,r0,32
    261c:	81 29 00 34 	lwz     r9,52(r9)
    2620:	38 1f 00 98 	addi    r0,r31,152
    2624:	78 00 00 20 	clrldi  r0,r0,32
    2628:	79 6b 00 20 	clrldi  r11,r11,32
    262c:	79 29 00 20 	clrldi  r9,r9,32
    2630:	7c 03 03 78 	mr      r3,r0
    2634:	38 80 00 00 	li      r4,0
    2638:	7d 65 5b 78 	mr      r5,r11
    263c:	7d 26 4b 78 	mr      r6,r9
    2640:	48 00 05 dd 	bl      0x2c1c
    2644:	7c 60 1b 78 	mr      r0,r3
    2648:	90 1f 00 70 	stw     r0,112(r31)
    264c:	80 1f 00 70 	lwz     r0,112(r31)
    2650:	2f 80 00 00 	cmpwi   cr7,r0,0
    2654:	41 9e 00 28 	beq-    cr7,0x267c
    2658:	80 1f 00 70 	lwz     r0,112(r31)
    265c:	7c 00 07 b4 	extsw   r0,r0
    2660:	80 62 80 7c 	lwz     r3,-32644(r2)
    2664:	7c 04 03 78 	mr      r4,r0
    2668:	48 00 1b 1d 	bl      0x4184
    266c:	e8 41 00 28 	ld      r2,40(r1)
    2670:	38 00 00 01 	li      r0,1
    2674:	90 1f 02 a0 	stw     r0,672(r31)
    2678:	48 00 04 c8 	b       0x2b40
    267c:	81 3f 03 20 	lwz     r9,800(r31)
    2680:	38 09 00 38 	addi    r0,r9,56
    2684:	81 3f 03 10 	lwz     r9,784(r31)
    2688:	78 00 00 20 	clrldi  r0,r0,32
    268c:	79 29 00 20 	clrldi  r9,r9,32
    2690:	7c 03 03 78 	mr      r3,r0
    2694:	38 80 00 40 	li      r4,64
    2698:	80 a2 80 80 	lwz     r5,-32640(r2)
    269c:	80 c2 80 84 	lwz     r6,-32636(r2)
    26a0:	7d 27 4b 78 	mr      r7,r9
    26a4:	48 00 1a 81 	bl      0x4124
    26a8:	e8 41 00 28 	ld      r2,40(r1)
    26ac:	80 1f 03 20 	lwz     r0,800(r31)
    26b0:	78 09 00 20 	clrldi  r9,r0,32
    26b4:	38 00 00 00 	li      r0,0
    26b8:	98 09 00 77 	stb     r0,119(r9)
    26bc:	81 3f 03 20 	lwz     r9,800(r31)
    26c0:	39 29 00 38 	addi    r9,r9,56
    26c4:	38 1f 00 98 	addi    r0,r31,152
    26c8:	78 00 00 20 	clrldi  r0,r0,32
    26cc:	79 29 00 20 	clrldi  r9,r9,32
    26d0:	7c 03 03 78 	mr      r3,r0
    26d4:	7d 24 4b 78 	mr      r4,r9
    26d8:	48 00 1b 6d 	bl      0x4244
    26dc:	e8 41 00 28 	ld      r2,40(r1)
    26e0:	7c 60 1b 78 	mr      r0,r3
    26e4:	90 1f 00 70 	stw     r0,112(r31)
    26e8:	80 1f 00 70 	lwz     r0,112(r31)
    26ec:	2f 80 00 00 	cmpwi   cr7,r0,0
    26f0:	41 9e 00 28 	beq-    cr7,0x2718
    26f4:	80 1f 00 70 	lwz     r0,112(r31)
    26f8:	7c 00 07 b4 	extsw   r0,r0
    26fc:	80 62 80 88 	lwz     r3,-32632(r2)
    2700:	7c 04 03 78 	mr      r4,r0
    2704:	48 00 1a 81 	bl      0x4184
    2708:	e8 41 00 28 	ld      r2,40(r1)
    270c:	38 00 00 01 	li      r0,1
    2710:	90 1f 02 a0 	stw     r0,672(r31)
    2714:	48 00 04 2c 	b       0x2b40
    2718:	80 1f 03 20 	lwz     r0,800(r31)
    271c:	78 09 00 20 	clrldi  r9,r0,32
    2720:	81 69 00 04 	lwz     r11,4(r9)
    2724:	80 1f 03 20 	lwz     r0,800(r31)
    2728:	78 09 00 20 	clrldi  r9,r0,32
    272c:	80 09 00 08 	lwz     r0,8(r9)
    2730:	79 69 00 20 	clrldi  r9,r11,32
    2734:	78 0b 00 20 	clrldi  r11,r0,32
    2738:	38 1f 00 98 	addi    r0,r31,152
    273c:	78 00 00 20 	clrldi  r0,r0,32
    2740:	7d 23 4b 78 	mr      r3,r9
    2744:	7d 64 5b 78 	mr      r4,r11
    2748:	7c 05 03 78 	mr      r5,r0
    274c:	48 00 1c 39 	bl      0x4384
    2750:	e8 41 00 28 	ld      r2,40(r1)
    2754:	7c 60 1b 78 	mr      r0,r3
    2758:	90 1f 00 70 	stw     r0,112(r31)
    275c:	80 1f 00 70 	lwz     r0,112(r31)
    2760:	2f 80 00 00 	cmpwi   cr7,r0,0
    2764:	41 9e 00 28 	beq-    cr7,0x278c
    2768:	80 1f 00 70 	lwz     r0,112(r31)
    276c:	7c 00 07 b4 	extsw   r0,r0
    2770:	80 62 80 8c 	lwz     r3,-32628(r2)
    2774:	7c 04 03 78 	mr      r4,r0
    2778:	48 00 1a 0d 	bl      0x4184
    277c:	e8 41 00 28 	ld      r2,40(r1)
    2780:	38 00 00 01 	li      r0,1
    2784:	90 1f 02 a0 	stw     r0,672(r31)
    2788:	48 00 03 b8 	b       0x2b40
    278c:	80 1f 03 20 	lwz     r0,800(r31)
    2790:	78 09 00 20 	clrldi  r9,r0,32
    2794:	81 49 00 08 	lwz     r10,8(r9)
    2798:	80 1f 03 20 	lwz     r0,800(r31)
    279c:	78 09 00 20 	clrldi  r9,r0,32
    27a0:	81 69 00 0c 	lwz     r11,12(r9)
    27a4:	80 1f 03 20 	lwz     r0,800(r31)
    27a8:	78 09 00 20 	clrldi  r9,r0,32
    27ac:	80 09 00 10 	lwz     r0,16(r9)
    27b0:	79 49 00 20 	clrldi  r9,r10,32
    27b4:	79 6b 00 20 	clrldi  r11,r11,32
    27b8:	78 00 00 20 	clrldi  r0,r0,32
    27bc:	7d 23 4b 78 	mr      r3,r9
    27c0:	7d 64 5b 78 	mr      r4,r11
    27c4:	7c 05 03 78 	mr      r5,r0
    27c8:	38 c0 00 10 	li      r6,16
    27cc:	38 e0 00 01 	li      r7,1
    27d0:	39 00 00 02 	li      r8,2
    27d4:	48 00 04 dd 	bl      0x2cb0
    27d8:	7c 60 1b 78 	mr      r0,r3
    27dc:	90 1f 00 70 	stw     r0,112(r31)
    27e0:	80 1f 00 70 	lwz     r0,112(r31)
    27e4:	2f 80 00 00 	cmpwi   cr7,r0,0
    27e8:	41 9e 00 28 	beq-    cr7,0x2810
    27ec:	80 1f 00 70 	lwz     r0,112(r31)
    27f0:	7c 00 07 b4 	extsw   r0,r0
    27f4:	80 62 80 90 	lwz     r3,-32624(r2)
    27f8:	7c 04 03 78 	mr      r4,r0
    27fc:	48 00 19 89 	bl      0x4184
    2800:	e8 41 00 28 	ld      r2,40(r1)
    2804:	38 00 00 01 	li      r0,1
    2808:	90 1f 02 a0 	stw     r0,672(r31)
    280c:	48 00 03 34 	b       0x2b40
    2810:	80 1f 03 20 	lwz     r0,800(r31)
    2814:	78 09 00 20 	clrldi  r9,r0,32
    2818:	81 49 00 08 	lwz     r10,8(r9)
    281c:	80 1f 03 20 	lwz     r0,800(r31)
    2820:	78 09 00 20 	clrldi  r9,r0,32
    2824:	81 69 00 14 	lwz     r11,20(r9)
    2828:	80 1f 03 20 	lwz     r0,800(r31)
    282c:	78 09 00 20 	clrldi  r9,r0,32
    2830:	80 09 00 18 	lwz     r0,24(r9)
    2834:	79 49 00 20 	clrldi  r9,r10,32
    2838:	79 6b 00 20 	clrldi  r11,r11,32
    283c:	78 00 00 20 	clrldi  r0,r0,32
    2840:	7d 23 4b 78 	mr      r3,r9
    2844:	7d 64 5b 78 	mr      r4,r11
    2848:	7c 05 03 78 	mr      r5,r0
    284c:	38 c0 00 10 	li      r6,16
    2850:	38 e0 00 01 	li      r7,1
    2854:	39 00 00 01 	li      r8,1
    2858:	48 00 04 59 	bl      0x2cb0
    285c:	7c 60 1b 78 	mr      r0,r3
    2860:	90 1f 00 70 	stw     r0,112(r31)
    2864:	80 1f 00 70 	lwz     r0,112(r31)
    2868:	2f 80 00 00 	cmpwi   cr7,r0,0
    286c:	41 9e 00 28 	beq-    cr7,0x2894
    2870:	80 1f 00 70 	lwz     r0,112(r31)
    2874:	7c 00 07 b4 	extsw   r0,r0
    2878:	80 62 80 90 	lwz     r3,-32624(r2)
    287c:	7c 04 03 78 	mr      r4,r0
    2880:	48 00 19 05 	bl      0x4184
    2884:	e8 41 00 28 	ld      r2,40(r1)
    2888:	38 00 00 01 	li      r0,1
    288c:	90 1f 02 a0 	stw     r0,672(r31)
    2890:	48 00 02 b0 	b       0x2b40
    2894:	80 1f 03 20 	lwz     r0,800(r31)
    2898:	78 09 00 20 	clrldi  r9,r0,32
    289c:	80 09 00 0c 	lwz     r0,12(r9)
    28a0:	78 00 00 20 	clrldi  r0,r0,32
    28a4:	7c 03 03 78 	mr      r3,r0
    28a8:	48 00 1b 1d 	bl      0x43c4
    28ac:	e8 41 00 28 	ld      r2,40(r1)
    28b0:	7c 60 1b 78 	mr      r0,r3
    28b4:	90 1f 00 70 	stw     r0,112(r31)
    28b8:	80 1f 00 70 	lwz     r0,112(r31)
    28bc:	2f 80 00 00 	cmpwi   cr7,r0,0
    28c0:	41 9e 00 28 	beq-    cr7,0x28e8
    28c4:	80 1f 00 70 	lwz     r0,112(r31)
    28c8:	7c 00 07 b4 	extsw   r0,r0
    28cc:	80 62 80 94 	lwz     r3,-32620(r2)
    28d0:	7c 04 03 78 	mr      r4,r0
    28d4:	48 00 18 b1 	bl      0x4184
    28d8:	e8 41 00 28 	ld      r2,40(r1)
    28dc:	38 00 00 01 	li      r0,1
    28e0:	90 1f 02 a0 	stw     r0,672(r31)
    28e4:	48 00 02 5c 	b       0x2b40
    28e8:	80 1f 03 20 	lwz     r0,800(r31)
    28ec:	78 09 00 20 	clrldi  r9,r0,32
    28f0:	80 09 00 14 	lwz     r0,20(r9)
    28f4:	78 00 00 20 	clrldi  r0,r0,32
    28f8:	7c 03 03 78 	mr      r3,r0
    28fc:	48 00 1a c9 	bl      0x43c4
    2900:	e8 41 00 28 	ld      r2,40(r1)
    2904:	7c 60 1b 78 	mr      r0,r3
    2908:	90 1f 00 70 	stw     r0,112(r31)
    290c:	80 1f 00 70 	lwz     r0,112(r31)
    2910:	2f 80 00 00 	cmpwi   cr7,r0,0
    2914:	41 9e 00 28 	beq-    cr7,0x293c
    2918:	80 1f 00 70 	lwz     r0,112(r31)
    291c:	7c 00 07 b4 	extsw   r0,r0
    2920:	80 62 80 94 	lwz     r3,-32620(r2)
    2924:	7c 04 03 78 	mr      r4,r0
    2928:	48 00 18 5d 	bl      0x4184
    292c:	e8 41 00 28 	ld      r2,40(r1)
    2930:	38 00 00 01 	li      r0,1
    2934:	90 1f 02 a0 	stw     r0,672(r31)
    2938:	48 00 02 08 	b       0x2b40
    293c:	80 1f 03 10 	lwz     r0,784(r31)
    2940:	78 09 00 20 	clrldi  r9,r0,32
    2944:	80 09 00 7c 	lwz     r0,124(r9)
    2948:	90 1f 00 78 	stw     r0,120(r31)
    294c:	80 1f 03 20 	lwz     r0,800(r31)
    2950:	78 09 00 20 	clrldi  r9,r0,32
    2954:	80 09 00 0c 	lwz     r0,12(r9)
    2958:	90 1f 00 7c 	stw     r0,124(r31)
    295c:	80 1f 03 20 	lwz     r0,800(r31)
    2960:	78 09 00 20 	clrldi  r9,r0,32
    2964:	80 09 00 14 	lwz     r0,20(r9)
    2968:	90 1f 00 80 	stw     r0,128(r31)
    296c:	38 00 00 00 	li      r0,0
    2970:	90 1f 00 84 	stw     r0,132(r31)
    2974:	38 1f 00 88 	addi    r0,r31,136
    2978:	78 00 00 20 	clrldi  r0,r0,32
    297c:	7c 03 03 78 	mr      r3,r0
    2980:	48 00 0c b5 	bl      0x3634
    2984:	80 1f 03 20 	lwz     r0,800(r31)
    2988:	78 09 00 20 	clrldi  r9,r0,32
    298c:	83 a9 00 08 	lwz     r29,8(r9)
    2990:	81 3f 03 10 	lwz     r9,784(r31)
    2994:	3b 89 00 78 	addi    r28,r9,120
    2998:	80 1f 03 20 	lwz     r0,800(r31)
    299c:	78 09 00 20 	clrldi  r9,r0,32
    29a0:	83 69 00 20 	lwz     r27,32(r9)
    29a4:	48 00 0c 0d 	bl      0x35b0
    29a8:	60 00 00 00 	nop
    29ac:	7c 60 1b 78 	mr      r0,r3
    29b0:	7b a9 00 20 	clrldi  r9,r29,32
    29b4:	7b 8b 00 20 	clrldi  r11,r28,32
    29b8:	7b 6a 00 20 	clrldi  r10,r27,32
    29bc:	78 08 00 20 	clrldi  r8,r0,32
    29c0:	38 1f 00 88 	addi    r0,r31,136
    29c4:	78 1d 00 20 	clrldi  r29,r0,32
    29c8:	38 1f 00 78 	addi    r0,r31,120
    29cc:	78 00 00 20 	clrldi  r0,r0,32
    29d0:	7d 23 4b 78 	mr      r3,r9
    29d4:	7d 64 5b 78 	mr      r4,r11
    29d8:	80 a2 80 98 	lwz     r5,-32616(r2)
    29dc:	7d 46 53 78 	mr      r6,r10
    29e0:	7d 07 43 78 	mr      r7,r8
    29e4:	7f a8 eb 78 	mr      r8,r29
    29e8:	7c 09 03 78 	mr      r9,r0
    29ec:	48 00 19 79 	bl      0x4364
    29f0:	e8 41 00 28 	ld      r2,40(r1)
    29f4:	7c 60 1b 78 	mr      r0,r3
    29f8:	90 1f 00 70 	stw     r0,112(r31)
    29fc:	80 1f 00 70 	lwz     r0,112(r31)
    2a00:	2f 80 00 00 	cmpwi   cr7,r0,0
    2a04:	41 9e 00 28 	beq-    cr7,0x2a2c
    2a08:	80 1f 00 70 	lwz     r0,112(r31)
    2a0c:	7c 00 07 b4 	extsw   r0,r0
    2a10:	80 62 80 9c 	lwz     r3,-32612(r2)
    2a14:	7c 04 03 78 	mr      r4,r0
    2a18:	48 00 17 6d 	bl      0x4184
    2a1c:	e8 41 00 28 	ld      r2,40(r1)
    2a20:	38 00 00 01 	li      r0,1
    2a24:	90 1f 02 a0 	stw     r0,672(r31)
    2a28:	48 00 01 18 	b       0x2b40
    2a2c:	80 1f 03 10 	lwz     r0,784(r31)
    2a30:	78 09 00 20 	clrldi  r9,r0,32
    2a34:	80 09 00 1c 	lwz     r0,28(r9)
    2a38:	78 09 00 20 	clrldi  r9,r0,32
    2a3c:	38 00 01 00 	li      r0,256
    2a40:	90 09 00 00 	stw     r0,0(r9)
    2a44:	80 1f 03 10 	lwz     r0,784(r31)
    2a48:	78 09 00 20 	clrldi  r9,r0,32
    2a4c:	81 29 00 1c 	lwz     r9,28(r9)
    2a50:	38 09 00 04 	addi    r0,r9,4
    2a54:	78 09 00 20 	clrldi  r9,r0,32
    2a58:	38 00 00 00 	li      r0,0
    2a5c:	90 09 00 00 	stw     r0,0(r9)
    2a60:	80 1f 03 10 	lwz     r0,784(r31)
    2a64:	78 09 00 20 	clrldi  r9,r0,32
    2a68:	81 29 00 1c 	lwz     r9,28(r9)
    2a6c:	38 09 00 08 	addi    r0,r9,8
    2a70:	78 09 00 20 	clrldi  r9,r0,32
    2a74:	38 00 00 00 	li      r0,0
    2a78:	90 09 00 00 	stw     r0,0(r9)
    2a7c:	80 1f 03 10 	lwz     r0,784(r31)
    2a80:	78 09 00 20 	clrldi  r9,r0,32
    2a84:	81 29 00 1c 	lwz     r9,28(r9)
    2a88:	38 09 00 0c 	addi    r0,r9,12
    2a8c:	78 09 00 20 	clrldi  r9,r0,32
    2a90:	38 00 00 00 	li      r0,0
    2a94:	90 09 00 00 	stw     r0,0(r9)
    2a98:	80 1f 03 10 	lwz     r0,784(r31)
    2a9c:	78 09 00 20 	clrldi  r9,r0,32
    2aa0:	81 69 00 0c 	lwz     r11,12(r9)
    2aa4:	80 1f 03 10 	lwz     r0,784(r31)
    2aa8:	78 09 00 20 	clrldi  r9,r0,32
    2aac:	81 49 00 1c 	lwz     r10,28(r9)
    2ab0:	80 1f 03 10 	lwz     r0,784(r31)
    2ab4:	78 09 00 20 	clrldi  r9,r0,32
    2ab8:	81 09 00 14 	lwz     r8,20(r9)
    2abc:	80 1f 03 10 	lwz     r0,784(r31)
    2ac0:	78 09 00 20 	clrldi  r9,r0,32
    2ac4:	80 09 00 1c 	lwz     r0,28(r9)
    2ac8:	79 69 00 20 	clrldi  r9,r11,32
    2acc:	79 4b 00 20 	clrldi  r11,r10,32
    2ad0:	79 0a 00 20 	clrldi  r10,r8,32
    2ad4:	78 00 00 20 	clrldi  r0,r0,32
    2ad8:	7d 23 4b 78 	mr      r3,r9
    2adc:	7d 64 5b 78 	mr      r4,r11
    2ae0:	7d 45 53 78 	mr      r5,r10
    2ae4:	7c 06 03 78 	mr      r6,r0
    2ae8:	48 00 0c 01 	bl      0x36e8
    2aec:	7c 60 1b 78 	mr      r0,r3
    2af0:	90 1f 00 70 	stw     r0,112(r31)
    2af4:	80 1f 00 70 	lwz     r0,112(r31)
    2af8:	2f 80 00 00 	cmpwi   cr7,r0,0
    2afc:	41 9e 00 28 	beq-    cr7,0x2b24
    2b00:	80 1f 00 70 	lwz     r0,112(r31)
    2b04:	7c 00 07 b4 	extsw   r0,r0
    2b08:	80 62 80 a0 	lwz     r3,-32608(r2)
    2b0c:	7c 04 03 78 	mr      r4,r0
    2b10:	48 00 16 75 	bl      0x4184
    2b14:	e8 41 00 28 	ld      r2,40(r1)
    2b18:	38 00 00 01 	li      r0,1
    2b1c:	90 1f 02 a0 	stw     r0,672(r31)
    2b20:	48 00 00 20 	b       0x2b40
    2b24:	80 1f 03 10 	lwz     r0,784(r31)
    2b28:	78 09 00 20 	clrldi  r9,r0,32
    2b2c:	81 29 00 1c 	lwz     r9,28(r9)
    2b30:	38 09 00 0c 	addi    r0,r9,12
    2b34:	78 09 00 20 	clrldi  r9,r0,32
    2b38:	81 29 00 00 	lwz     r9,0(r9)
    2b3c:	91 3f 02 a0 	stw     r9,672(r31)
    2b40:	80 1f 02 a0 	lwz     r0,672(r31)
    2b44:	7c 03 03 78 	mr      r3,r0
    2b48:	e9 61 00 00 	ld      r11,0(r1)
    2b4c:	e8 0b 00 10 	ld      r0,16(r11)
    2b50:	7c 08 03 a6 	mtlr    r0
    2b54:	eb 6b ff d8 	ld      r27,-40(r11)
    2b58:	eb 8b ff e0 	ld      r28,-32(r11)
    2b5c:	eb ab ff e8 	ld      r29,-24(r11)
    2b60:	eb eb ff f8 	ld      r31,-8(r11)
    2b64:	7d 61 5b 78 	mr      r1,r11
    2b68:	4e 80 00 20 	blr
    2b6c:	f8 21 ff 71 	stdu    r1,-144(r1)
    2b70:	7c 08 02 a6 	mflr    r0
    2b74:	fb e1 00 88 	std     r31,136(r1)
    2b78:	f8 01 00 a0 	std     r0,160(r1)
    2b7c:	7c 3f 0b 78 	mr      r31,r1
    2b80:	7c 60 1b 78 	mr      r0,r3
    2b84:	7c 89 23 78 	mr      r9,r4
    2b88:	7c ab 2b 78 	mr      r11,r5
    2b8c:	7c ca 33 78 	mr      r10,r6
    2b90:	7c e8 3b 78 	mr      r8,r7
    2b94:	90 1f 00 c0 	stw     r0,192(r31)
    2b98:	91 3f 00 c8 	stw     r9,200(r31)
    2b9c:	91 7f 00 d0 	stw     r11,208(r31)
    2ba0:	91 5f 00 d8 	stw     r10,216(r31)
    2ba4:	99 1f 00 e0 	stb     r8,224(r31)
    2ba8:	80 1f 00 c0 	lwz     r0,192(r31)
    2bac:	78 09 00 20 	clrldi  r9,r0,32
    2bb0:	80 1f 00 c8 	lwz     r0,200(r31)
    2bb4:	78 0b 00 20 	clrldi  r11,r0,32
    2bb8:	80 1f 00 d0 	lwz     r0,208(r31)
    2bbc:	7c 0a 07 b4 	extsw   r10,r0
    2bc0:	80 1f 00 d8 	lwz     r0,216(r31)
    2bc4:	7c 08 07 b4 	extsw   r8,r0
    2bc8:	88 1f 00 e0 	lbz     r0,224(r31)
    2bcc:	78 00 06 20 	clrldi  r0,r0,56
    2bd0:	7d 23 4b 78 	mr      r3,r9
    2bd4:	38 80 00 02 	li      r4,2
    2bd8:	3c a0 00 33 	lis     r5,51
    2bdc:	7d 66 5b 78 	mr      r6,r11
    2be0:	7d 47 53 78 	mr      r7,r10
    2be4:	7c 09 03 78 	mr      r9,r0
    2be8:	48 00 16 fd 	bl      0x42e4
    2bec:	e8 41 00 28 	ld      r2,40(r1)
    2bf0:	7c 60 1b 78 	mr      r0,r3
    2bf4:	90 1f 00 70 	stw     r0,112(r31)
    2bf8:	80 1f 00 70 	lwz     r0,112(r31)
    2bfc:	7c 00 07 b4 	extsw   r0,r0
    2c00:	7c 03 03 78 	mr      r3,r0
    2c04:	e9 61 00 00 	ld      r11,0(r1)
    2c08:	e8 0b 00 10 	ld      r0,16(r11)
    2c0c:	7c 08 03 a6 	mtlr    r0
    2c10:	eb eb ff f8 	ld      r31,-8(r11)
    2c14:	7d 61 5b 78 	mr      r1,r11
    2c18:	4e 80 00 20 	blr
    2c1c:	f8 21 ff 71 	stdu    r1,-144(r1)
    2c20:	7c 08 02 a6 	mflr    r0
    2c24:	fb e1 00 88 	std     r31,136(r1)
    2c28:	f8 01 00 a0 	std     r0,160(r1)
    2c2c:	7c 3f 0b 78 	mr      r31,r1
    2c30:	7c 6b 1b 78 	mr      r11,r3
    2c34:	f8 9f 00 c8 	std     r4,200(r31)
    2c38:	7c a0 2b 78 	mr      r0,r5
    2c3c:	7c c9 33 78 	mr      r9,r6
    2c40:	91 7f 00 c0 	stw     r11,192(r31)
    2c44:	90 1f 00 d0 	stw     r0,208(r31)
    2c48:	91 3f 00 d8 	stw     r9,216(r31)
    2c4c:	80 1f 00 c0 	lwz     r0,192(r31)
    2c50:	78 09 00 20 	clrldi  r9,r0,32
    2c54:	80 1f 00 d0 	lwz     r0,208(r31)
    2c58:	78 0b 00 20 	clrldi  r11,r0,32
    2c5c:	80 1f 00 d8 	lwz     r0,216(r31)
    2c60:	78 00 00 20 	clrldi  r0,r0,32
    2c64:	7d 23 4b 78 	mr      r3,r9
    2c68:	38 80 00 01 	li      r4,1
    2c6c:	3c a0 00 33 	lis     r5,51
    2c70:	e8 df 00 c8 	ld      r6,200(r31)
    2c74:	7d 67 5b 78 	mr      r7,r11
    2c78:	7c 08 03 78 	mr      r8,r0
    2c7c:	48 00 15 a9 	bl      0x4224
    2c80:	e8 41 00 28 	ld      r2,40(r1)
    2c84:	7c 60 1b 78 	mr      r0,r3
    2c88:	90 1f 00 70 	stw     r0,112(r31)
    2c8c:	80 1f 00 70 	lwz     r0,112(r31)
    2c90:	7c 00 07 b4 	extsw   r0,r0
    2c94:	7c 03 03 78 	mr      r3,r0
    2c98:	e9 61 00 00 	ld      r11,0(r1)
    2c9c:	e8 0b 00 10 	ld      r0,16(r11)
    2ca0:	7c 08 03 a6 	mtlr    r0
    2ca4:	eb eb ff f8 	ld      r31,-8(r11)
    2ca8:	7d 61 5b 78 	mr      r1,r11
    2cac:	4e 80 00 20 	blr
    2cb0:	f8 21 ff 81 	stdu    r1,-128(r1)
    2cb4:	7c 08 02 a6 	mflr    r0
    2cb8:	fb e1 00 78 	std     r31,120(r1)
    2cbc:	f8 01 00 90 	std     r0,144(r1)
    2cc0:	7c 3f 0b 78 	mr      r31,r1
    2cc4:	7c 60 1b 78 	mr      r0,r3
    2cc8:	7c 89 23 78 	mr      r9,r4
    2ccc:	7c ab 2b 78 	mr      r11,r5
    2cd0:	7c ca 33 78 	mr      r10,r6
    2cd4:	90 1f 00 b0 	stw     r0,176(r31)
    2cd8:	91 3f 00 b8 	stw     r9,184(r31)
    2cdc:	91 7f 00 c0 	stw     r11,192(r31)
    2ce0:	91 5f 00 c8 	stw     r10,200(r31)
    2ce4:	90 ff 00 d0 	stw     r7,208(r31)
    2ce8:	91 1f 00 d8 	stw     r8,216(r31)
    2cec:	80 1f 00 b0 	lwz     r0,176(r31)
    2cf0:	78 08 00 20 	clrldi  r8,r0,32
    2cf4:	80 1f 00 b8 	lwz     r0,184(r31)
    2cf8:	78 07 00 20 	clrldi  r7,r0,32
    2cfc:	80 1f 00 c0 	lwz     r0,192(r31)
    2d00:	78 09 00 20 	clrldi  r9,r0,32
    2d04:	80 1f 00 c8 	lwz     r0,200(r31)
    2d08:	78 0b 00 20 	clrldi  r11,r0,32
    2d0c:	80 1f 00 d0 	lwz     r0,208(r31)
    2d10:	78 0a 00 20 	clrldi  r10,r0,32
    2d14:	80 1f 00 d8 	lwz     r0,216(r31)
    2d18:	78 00 00 20 	clrldi  r0,r0,32
    2d1c:	38 60 00 00 	li      r3,0
    2d20:	7d 04 43 78 	mr      r4,r8
    2d24:	7c e5 3b 78 	mr      r5,r7
    2d28:	7d 26 4b 78 	mr      r6,r9
    2d2c:	7d 67 5b 78 	mr      r7,r11
    2d30:	7d 48 53 78 	mr      r8,r10
    2d34:	7c 09 03 78 	mr      r9,r0
    2d38:	48 00 14 cd 	bl      0x4204
    2d3c:	e8 41 00 28 	ld      r2,40(r1)
    2d40:	7c 60 1b 78 	mr      r0,r3
    2d44:	7c 00 07 b4 	extsw   r0,r0
    2d48:	7c 03 03 78 	mr      r3,r0
    2d4c:	e9 61 00 00 	ld      r11,0(r1)
    2d50:	e8 0b 00 10 	ld      r0,16(r11)
    2d54:	7c 08 03 a6 	mtlr    r0
    2d58:	eb eb ff f8 	ld      r31,-8(r11)
    2d5c:	7d 61 5b 78 	mr      r1,r11
    2d60:	4e 80 00 20 	blr
    2d64:	f8 21 ff 61 	stdu    r1,-160(r1)
    2d68:	7c 08 02 a6 	mflr    r0
    2d6c:	fb e1 00 98 	std     r31,152(r1)
    2d70:	f8 01 00 b0 	std     r0,176(r1)
    2d74:	7c 3f 0b 78 	mr      r31,r1
    2d78:	7c 60 1b 78 	mr      r0,r3
    2d7c:	90 1f 00 d0 	stw     r0,208(r31)
    2d80:	80 1f 00 d0 	lwz     r0,208(r31)
    2d84:	78 09 00 20 	clrldi  r9,r0,32
    2d88:	80 09 00 1c 	lwz     r0,28(r9)
    2d8c:	78 09 00 20 	clrldi  r9,r0,32
    2d90:	38 00 09 00 	li      r0,2304
    2d94:	90 09 00 00 	stw     r0,0(r9)
    2d98:	80 1f 00 d0 	lwz     r0,208(r31)
    2d9c:	78 09 00 20 	clrldi  r9,r0,32
    2da0:	81 29 00 1c 	lwz     r9,28(r9)
    2da4:	38 09 00 04 	addi    r0,r9,4
    2da8:	78 09 00 20 	clrldi  r9,r0,32
    2dac:	38 00 00 00 	li      r0,0
    2db0:	90 09 00 00 	stw     r0,0(r9)
    2db4:	80 1f 00 d0 	lwz     r0,208(r31)
    2db8:	78 09 00 20 	clrldi  r9,r0,32
    2dbc:	81 29 00 1c 	lwz     r9,28(r9)
    2dc0:	38 09 00 08 	addi    r0,r9,8
    2dc4:	78 09 00 20 	clrldi  r9,r0,32
    2dc8:	38 00 00 00 	li      r0,0
    2dcc:	90 09 00 00 	stw     r0,0(r9)
    2dd0:	80 1f 00 d0 	lwz     r0,208(r31)
    2dd4:	78 09 00 20 	clrldi  r9,r0,32
    2dd8:	81 29 00 1c 	lwz     r9,28(r9)
    2ddc:	38 09 00 0c 	addi    r0,r9,12
    2de0:	78 09 00 20 	clrldi  r9,r0,32
    2de4:	38 00 00 00 	li      r0,0
    2de8:	90 09 00 00 	stw     r0,0(r9)
    2dec:	80 1f 00 d0 	lwz     r0,208(r31)
    2df0:	78 09 00 20 	clrldi  r9,r0,32
    2df4:	81 69 00 0c 	lwz     r11,12(r9)
    2df8:	80 1f 00 d0 	lwz     r0,208(r31)
    2dfc:	78 09 00 20 	clrldi  r9,r0,32
    2e00:	81 49 00 1c 	lwz     r10,28(r9)
    2e04:	80 1f 00 d0 	lwz     r0,208(r31)
    2e08:	78 09 00 20 	clrldi  r9,r0,32
    2e0c:	81 09 00 14 	lwz     r8,20(r9)
    2e10:	80 1f 00 d0 	lwz     r0,208(r31)
    2e14:	78 09 00 20 	clrldi  r9,r0,32
    2e18:	80 09 00 1c 	lwz     r0,28(r9)
    2e1c:	79 69 00 20 	clrldi  r9,r11,32
    2e20:	79 4b 00 20 	clrldi  r11,r10,32
    2e24:	79 0a 00 20 	clrldi  r10,r8,32
    2e28:	78 00 00 20 	clrldi  r0,r0,32
    2e2c:	7d 23 4b 78 	mr      r3,r9
    2e30:	7d 64 5b 78 	mr      r4,r11
    2e34:	7d 45 53 78 	mr      r5,r10
    2e38:	7c 06 03 78 	mr      r6,r0
    2e3c:	48 00 08 ad 	bl      0x36e8
    2e40:	7c 60 1b 78 	mr      r0,r3
    2e44:	90 1f 00 70 	stw     r0,112(r31)
    2e48:	80 1f 00 70 	lwz     r0,112(r31)
    2e4c:	2f 80 00 00 	cmpwi   cr7,r0,0
    2e50:	41 9e 00 28 	beq-    cr7,0x2e78
    2e54:	80 1f 00 70 	lwz     r0,112(r31)
    2e58:	7c 00 07 b4 	extsw   r0,r0
    2e5c:	80 62 80 a4 	lwz     r3,-32604(r2)
    2e60:	7c 04 03 78 	mr      r4,r0
    2e64:	48 00 13 21 	bl      0x4184
    2e68:	e8 41 00 28 	ld      r2,40(r1)
    2e6c:	38 00 00 01 	li      r0,1
    2e70:	90 1f 00 80 	stw     r0,128(r31)
    2e74:	48 00 01 c8 	b       0x303c
    2e78:	80 1f 00 d0 	lwz     r0,208(r31)
    2e7c:	78 09 00 20 	clrldi  r9,r0,32
    2e80:	80 09 00 0c 	lwz     r0,12(r9)
    2e84:	78 00 00 20 	clrldi  r0,r0,32
    2e88:	7c 03 03 78 	mr      r3,r0
    2e8c:	48 00 13 39 	bl      0x41c4
    2e90:	e8 41 00 28 	ld      r2,40(r1)
    2e94:	7c 60 1b 78 	mr      r0,r3
    2e98:	90 1f 00 70 	stw     r0,112(r31)
    2e9c:	80 1f 00 70 	lwz     r0,112(r31)
    2ea0:	2f 80 00 00 	cmpwi   cr7,r0,0
    2ea4:	41 9e 00 28 	beq-    cr7,0x2ecc
    2ea8:	80 1f 00 70 	lwz     r0,112(r31)
    2eac:	7c 00 07 b4 	extsw   r0,r0
    2eb0:	80 62 80 a8 	lwz     r3,-32600(r2)
    2eb4:	7c 04 03 78 	mr      r4,r0
    2eb8:	48 00 12 cd 	bl      0x4184
    2ebc:	e8 41 00 28 	ld      r2,40(r1)
    2ec0:	38 00 00 01 	li      r0,1
    2ec4:	90 1f 00 80 	stw     r0,128(r31)
    2ec8:	48 00 01 74 	b       0x303c
    2ecc:	80 1f 00 d0 	lwz     r0,208(r31)
    2ed0:	78 09 00 20 	clrldi  r9,r0,32
    2ed4:	80 09 00 14 	lwz     r0,20(r9)
    2ed8:	78 00 00 20 	clrldi  r0,r0,32
    2edc:	7c 03 03 78 	mr      r3,r0
    2ee0:	48 00 12 e5 	bl      0x41c4
    2ee4:	e8 41 00 28 	ld      r2,40(r1)
    2ee8:	7c 60 1b 78 	mr      r0,r3
    2eec:	90 1f 00 70 	stw     r0,112(r31)
    2ef0:	80 1f 00 70 	lwz     r0,112(r31)
    2ef4:	2f 80 00 00 	cmpwi   cr7,r0,0
    2ef8:	41 9e 00 28 	beq-    cr7,0x2f20
    2efc:	80 1f 00 70 	lwz     r0,112(r31)
    2f00:	7c 00 07 b4 	extsw   r0,r0
    2f04:	80 62 80 a8 	lwz     r3,-32600(r2)
    2f08:	7c 04 03 78 	mr      r4,r0
    2f0c:	48 00 12 79 	bl      0x4184
    2f10:	e8 41 00 28 	ld      r2,40(r1)
    2f14:	38 00 00 01 	li      r0,1
    2f18:	90 1f 00 80 	stw     r0,128(r31)
    2f1c:	48 00 01 20 	b       0x303c
    2f20:	80 1f 00 d0 	lwz     r0,208(r31)
    2f24:	78 09 00 20 	clrldi  r9,r0,32
    2f28:	80 09 00 08 	lwz     r0,8(r9)
    2f2c:	78 00 00 20 	clrldi  r0,r0,32
    2f30:	7c 03 03 78 	mr      r3,r0
    2f34:	48 00 13 f1 	bl      0x4324
    2f38:	e8 41 00 28 	ld      r2,40(r1)
    2f3c:	7c 60 1b 78 	mr      r0,r3
    2f40:	90 1f 00 70 	stw     r0,112(r31)
    2f44:	80 1f 00 70 	lwz     r0,112(r31)
    2f48:	2f 80 00 00 	cmpwi   cr7,r0,0
    2f4c:	41 9e 00 28 	beq-    cr7,0x2f74
    2f50:	80 1f 00 70 	lwz     r0,112(r31)
    2f54:	7c 00 07 b4 	extsw   r0,r0
    2f58:	80 62 80 ac 	lwz     r3,-32596(r2)
    2f5c:	7c 04 03 78 	mr      r4,r0
    2f60:	48 00 12 25 	bl      0x4184
    2f64:	e8 41 00 28 	ld      r2,40(r1)
    2f68:	38 00 00 01 	li      r0,1
    2f6c:	90 1f 00 80 	stw     r0,128(r31)
    2f70:	48 00 00 cc 	b       0x303c
    2f74:	80 1f 00 d0 	lwz     r0,208(r31)
    2f78:	78 09 00 20 	clrldi  r9,r0,32
    2f7c:	80 09 00 08 	lwz     r0,8(r9)
    2f80:	78 00 00 20 	clrldi  r0,r0,32
    2f84:	7c 03 03 78 	mr      r3,r0
    2f88:	48 00 13 7d 	bl      0x4304
    2f8c:	e8 41 00 28 	ld      r2,40(r1)
    2f90:	7c 60 1b 78 	mr      r0,r3
    2f94:	90 1f 00 70 	stw     r0,112(r31)
    2f98:	80 1f 00 70 	lwz     r0,112(r31)
    2f9c:	2f 80 00 00 	cmpwi   cr7,r0,0
    2fa0:	41 9e 00 28 	beq-    cr7,0x2fc8
    2fa4:	80 1f 00 70 	lwz     r0,112(r31)
    2fa8:	7c 00 07 b4 	extsw   r0,r0
    2fac:	80 62 80 b0 	lwz     r3,-32592(r2)
    2fb0:	7c 04 03 78 	mr      r4,r0
    2fb4:	48 00 11 d1 	bl      0x4184
    2fb8:	e8 41 00 28 	ld      r2,40(r1)
    2fbc:	38 00 00 01 	li      r0,1
    2fc0:	90 1f 00 80 	stw     r0,128(r31)
    2fc4:	48 00 00 78 	b       0x303c
    2fc8:	80 1f 00 d0 	lwz     r0,208(r31)
    2fcc:	78 09 00 20 	clrldi  r9,r0,32
    2fd0:	88 09 00 00 	lbz     r0,0(r9)
    2fd4:	54 00 06 3e 	clrlwi  r0,r0,24
    2fd8:	2f 80 00 01 	cmpwi   cr7,r0,1
    2fdc:	40 9e 00 58 	bne-    cr7,0x3034
    2fe0:	80 1f 00 d0 	lwz     r0,208(r31)
    2fe4:	78 09 00 20 	clrldi  r9,r0,32
    2fe8:	80 09 00 04 	lwz     r0,4(r9)
    2fec:	78 00 00 20 	clrldi  r0,r0,32
    2ff0:	7c 03 03 78 	mr      r3,r0
    2ff4:	48 00 13 b1 	bl      0x43a4
    2ff8:	e8 41 00 28 	ld      r2,40(r1)
    2ffc:	7c 60 1b 78 	mr      r0,r3
    3000:	90 1f 00 70 	stw     r0,112(r31)
    3004:	80 1f 00 70 	lwz     r0,112(r31)
    3008:	2f 80 00 00 	cmpwi   cr7,r0,0
    300c:	41 9e 00 28 	beq-    cr7,0x3034
    3010:	80 1f 00 70 	lwz     r0,112(r31)
    3014:	7c 00 07 b4 	extsw   r0,r0
    3018:	80 62 80 b4 	lwz     r3,-32588(r2)
    301c:	7c 04 03 78 	mr      r4,r0
    3020:	48 00 11 65 	bl      0x4184
    3024:	e8 41 00 28 	ld      r2,40(r1)
    3028:	38 00 00 01 	li      r0,1
    302c:	90 1f 00 80 	stw     r0,128(r31)
    3030:	48 00 00 0c 	b       0x303c
    3034:	38 00 00 00 	li      r0,0
    3038:	90 1f 00 80 	stw     r0,128(r31)
    303c:	80 1f 00 80 	lwz     r0,128(r31)
    3040:	7c 03 03 78 	mr      r3,r0
    3044:	e9 61 00 00 	ld      r11,0(r1)
    3048:	e8 0b 00 10 	ld      r0,16(r11)
    304c:	7c 08 03 a6 	mtlr    r0
    3050:	eb eb ff f8 	ld      r31,-8(r11)
    3054:	7d 61 5b 78 	mr      r1,r11
    3058:	4e 80 00 20 	blr
    305c:	f8 21 ff 61 	stdu    r1,-160(r1)
    3060:	7c 08 02 a6 	mflr    r0
    3064:	fb e1 00 98 	std     r31,152(r1)
    3068:	f8 01 00 b0 	std     r0,176(r1)
    306c:	7c 3f 0b 78 	mr      r31,r1
    3070:	7c 60 1b 78 	mr      r0,r3
    3074:	7c 89 23 78 	mr      r9,r4
    3078:	90 1f 00 d0 	stw     r0,208(r31)
    307c:	99 3f 00 d8 	stb     r9,216(r31)
    3080:	80 1f 00 d0 	lwz     r0,208(r31)
    3084:	78 09 00 20 	clrldi  r9,r0,32
    3088:	80 09 00 7c 	lwz     r0,124(r9)
    308c:	90 1f 00 70 	stw     r0,112(r31)
    3090:	80 1f 00 d0 	lwz     r0,208(r31)
    3094:	78 09 00 20 	clrldi  r9,r0,32
    3098:	88 1f 00 d8 	lbz     r0,216(r31)
    309c:	98 09 00 84 	stb     r0,132(r9)
    30a0:	80 1f 00 d0 	lwz     r0,208(r31)
    30a4:	78 09 00 20 	clrldi  r9,r0,32
    30a8:	88 09 00 84 	lbz     r0,132(r9)
    30ac:	54 0b 06 3e 	clrlwi  r11,r0,24
    30b0:	80 1f 00 70 	lwz     r0,112(r31)
    30b4:	78 09 00 20 	clrldi  r9,r0,32
    30b8:	91 69 00 00 	stw     r11,0(r9)
    30bc:	38 00 00 04 	li      r0,4
    30c0:	90 1f 00 78 	stw     r0,120(r31)
    30c4:	81 3f 00 78 	lwz     r9,120(r31)
    30c8:	38 09 00 7f 	addi    r0,r9,127
    30cc:	54 0b 00 30 	rlwinm  r11,r0,0,0,24
    30d0:	80 1f 00 d0 	lwz     r0,208(r31)
    30d4:	78 09 00 20 	clrldi  r9,r0,32
    30d8:	91 69 00 80 	stw     r11,128(r9)
    30dc:	80 1f 00 d0 	lwz     r0,208(r31)
    30e0:	78 09 00 20 	clrldi  r9,r0,32
    30e4:	80 09 00 1c 	lwz     r0,28(r9)
    30e8:	78 09 00 20 	clrldi  r9,r0,32
    30ec:	38 00 01 01 	li      r0,257
    30f0:	90 09 00 00 	stw     r0,0(r9)
    30f4:	80 1f 00 d0 	lwz     r0,208(r31)
    30f8:	78 09 00 20 	clrldi  r9,r0,32
    30fc:	81 29 00 1c 	lwz     r9,28(r9)
    3100:	39 69 00 04 	addi    r11,r9,4
    3104:	80 1f 00 d0 	lwz     r0,208(r31)
    3108:	78 09 00 20 	clrldi  r9,r0,32
    310c:	80 09 00 80 	lwz     r0,128(r9)
    3110:	79 69 00 20 	clrldi  r9,r11,32
    3114:	90 09 00 00 	stw     r0,0(r9)
    3118:	80 1f 00 d0 	lwz     r0,208(r31)
    311c:	78 09 00 20 	clrldi  r9,r0,32
    3120:	81 29 00 1c 	lwz     r9,28(r9)
    3124:	38 09 00 08 	addi    r0,r9,8
    3128:	78 09 00 20 	clrldi  r9,r0,32
    312c:	38 00 00 00 	li      r0,0
    3130:	90 09 00 00 	stw     r0,0(r9)
    3134:	80 1f 00 d0 	lwz     r0,208(r31)
    3138:	78 09 00 20 	clrldi  r9,r0,32
    313c:	81 29 00 1c 	lwz     r9,28(r9)
    3140:	38 09 00 0c 	addi    r0,r9,12
    3144:	78 09 00 20 	clrldi  r9,r0,32
    3148:	38 00 00 00 	li      r0,0
    314c:	90 09 00 00 	stw     r0,0(r9)
    3150:	80 1f 00 d0 	lwz     r0,208(r31)
    3154:	78 09 00 20 	clrldi  r9,r0,32
    3158:	81 69 00 0c 	lwz     r11,12(r9)
    315c:	80 1f 00 d0 	lwz     r0,208(r31)
    3160:	78 09 00 20 	clrldi  r9,r0,32
    3164:	81 49 00 1c 	lwz     r10,28(r9)
    3168:	80 1f 00 d0 	lwz     r0,208(r31)
    316c:	78 09 00 20 	clrldi  r9,r0,32
    3170:	81 09 00 14 	lwz     r8,20(r9)
    3174:	80 1f 00 d0 	lwz     r0,208(r31)
    3178:	78 09 00 20 	clrldi  r9,r0,32
    317c:	80 09 00 1c 	lwz     r0,28(r9)
    3180:	79 69 00 20 	clrldi  r9,r11,32
    3184:	79 4b 00 20 	clrldi  r11,r10,32
    3188:	79 0a 00 20 	clrldi  r10,r8,32
    318c:	78 00 00 20 	clrldi  r0,r0,32
    3190:	7d 23 4b 78 	mr      r3,r9
    3194:	7d 64 5b 78 	mr      r4,r11
    3198:	7d 45 53 78 	mr      r5,r10
    319c:	7c 06 03 78 	mr      r6,r0
    31a0:	48 00 05 49 	bl      0x36e8
    31a4:	7c 60 1b 78 	mr      r0,r3
    31a8:	90 1f 00 74 	stw     r0,116(r31)
    31ac:	80 1f 00 74 	lwz     r0,116(r31)
    31b0:	2f 80 00 00 	cmpwi   cr7,r0,0
    31b4:	41 9e 00 10 	beq-    cr7,0x31c4
    31b8:	38 00 00 01 	li      r0,1
    31bc:	90 1f 00 80 	stw     r0,128(r31)
    31c0:	48 00 00 20 	b       0x31e0
    31c4:	80 1f 00 d0 	lwz     r0,208(r31)
    31c8:	78 09 00 20 	clrldi  r9,r0,32
    31cc:	81 29 00 1c 	lwz     r9,28(r9)
    31d0:	38 09 00 0c 	addi    r0,r9,12
    31d4:	78 09 00 20 	clrldi  r9,r0,32
    31d8:	81 29 00 00 	lwz     r9,0(r9)
    31dc:	91 3f 00 80 	stw     r9,128(r31)
    31e0:	80 1f 00 80 	lwz     r0,128(r31)
    31e4:	7c 03 03 78 	mr      r3,r0
    31e8:	e9 61 00 00 	ld      r11,0(r1)
    31ec:	e8 0b 00 10 	ld      r0,16(r11)
    31f0:	7c 08 03 a6 	mtlr    r0
    31f4:	eb eb ff f8 	ld      r31,-8(r11)
    31f8:	7d 61 5b 78 	mr      r1,r11
    31fc:	4e 80 00 20 	blr
    3200:	f8 21 ff 61 	stdu    r1,-160(r1)
    3204:	7c 08 02 a6 	mflr    r0
    3208:	fb e1 00 98 	std     r31,152(r1)
    320c:	f8 01 00 b0 	std     r0,176(r1)
    3210:	7c 3f 0b 78 	mr      r31,r1
    3214:	7c 60 1b 78 	mr      r0,r3
    3218:	7c 89 23 78 	mr      r9,r4
    321c:	7c ab 2b 78 	mr      r11,r5
    3220:	7c ca 33 78 	mr      r10,r6
    3224:	90 1f 00 d0 	stw     r0,208(r31)
    3228:	91 3f 00 d8 	stw     r9,216(r31)
    322c:	91 7f 00 e0 	stw     r11,224(r31)
    3230:	91 5f 00 e8 	stw     r10,232(r31)
    3234:	90 ff 00 f0 	stw     r7,240(r31)
    3238:	91 1f 00 f8 	stw     r8,248(r31)
    323c:	80 1f 00 d0 	lwz     r0,208(r31)
    3240:	78 09 00 20 	clrldi  r9,r0,32
    3244:	80 09 00 7c 	lwz     r0,124(r9)
    3248:	90 1f 00 74 	stw     r0,116(r31)
    324c:	80 1f 00 74 	lwz     r0,116(r31)
    3250:	78 09 00 20 	clrldi  r9,r0,32
    3254:	80 1f 00 d8 	lwz     r0,216(r31)
    3258:	78 0b 00 20 	clrldi  r11,r0,32
    325c:	80 1f 00 e0 	lwz     r0,224(r31)
    3260:	78 00 00 20 	clrldi  r0,r0,32
    3264:	7d 23 4b 78 	mr      r3,r9
    3268:	7d 64 5b 78 	mr      r4,r11
    326c:	7c 05 03 78 	mr      r5,r0
    3270:	48 00 0e f5 	bl      0x4164
    3274:	e8 41 00 28 	ld      r2,40(r1)
    3278:	81 3f 00 e0 	lwz     r9,224(r31)
    327c:	38 09 00 7f 	addi    r0,r9,127
    3280:	54 0b 00 30 	rlwinm  r11,r0,0,0,24
    3284:	80 1f 00 d0 	lwz     r0,208(r31)
    3288:	78 09 00 20 	clrldi  r9,r0,32
    328c:	91 69 00 80 	stw     r11,128(r9)
    3290:	80 1f 00 d0 	lwz     r0,208(r31)
    3294:	78 09 00 20 	clrldi  r9,r0,32
    3298:	80 09 00 1c 	lwz     r0,28(r9)
    329c:	78 09 00 20 	clrldi  r9,r0,32
    32a0:	38 00 01 02 	li      r0,258
    32a4:	90 09 00 00 	stw     r0,0(r9)
    32a8:	80 1f 00 d0 	lwz     r0,208(r31)
    32ac:	78 09 00 20 	clrldi  r9,r0,32
    32b0:	81 29 00 1c 	lwz     r9,28(r9)
    32b4:	39 69 00 04 	addi    r11,r9,4
    32b8:	80 1f 00 d0 	lwz     r0,208(r31)
    32bc:	78 09 00 20 	clrldi  r9,r0,32
    32c0:	80 09 00 80 	lwz     r0,128(r9)
    32c4:	79 69 00 20 	clrldi  r9,r11,32
    32c8:	90 09 00 00 	stw     r0,0(r9)
    32cc:	80 1f 00 d0 	lwz     r0,208(r31)
    32d0:	78 09 00 20 	clrldi  r9,r0,32
    32d4:	81 29 00 1c 	lwz     r9,28(r9)
    32d8:	38 09 00 08 	addi    r0,r9,8
    32dc:	78 09 00 20 	clrldi  r9,r0,32
    32e0:	38 00 00 00 	li      r0,0
    32e4:	90 09 00 00 	stw     r0,0(r9)
    32e8:	80 1f 00 d0 	lwz     r0,208(r31)
    32ec:	78 09 00 20 	clrldi  r9,r0,32
    32f0:	81 29 00 1c 	lwz     r9,28(r9)
    32f4:	38 09 00 0c 	addi    r0,r9,12
    32f8:	78 09 00 20 	clrldi  r9,r0,32
    32fc:	38 00 00 00 	li      r0,0
    3300:	90 09 00 00 	stw     r0,0(r9)
    3304:	80 1f 00 d0 	lwz     r0,208(r31)
    3308:	78 09 00 20 	clrldi  r9,r0,32
    330c:	81 69 00 0c 	lwz     r11,12(r9)
    3310:	80 1f 00 d0 	lwz     r0,208(r31)
    3314:	78 09 00 20 	clrldi  r9,r0,32
    3318:	81 49 00 1c 	lwz     r10,28(r9)
    331c:	80 1f 00 d0 	lwz     r0,208(r31)
    3320:	78 09 00 20 	clrldi  r9,r0,32
    3324:	81 09 00 14 	lwz     r8,20(r9)
    3328:	80 1f 00 d0 	lwz     r0,208(r31)
    332c:	78 09 00 20 	clrldi  r9,r0,32
    3330:	80 09 00 1c 	lwz     r0,28(r9)
    3334:	79 69 00 20 	clrldi  r9,r11,32
    3338:	79 4b 00 20 	clrldi  r11,r10,32
    333c:	79 0a 00 20 	clrldi  r10,r8,32
    3340:	78 00 00 20 	clrldi  r0,r0,32
    3344:	7d 23 4b 78 	mr      r3,r9
    3348:	7d 64 5b 78 	mr      r4,r11
    334c:	7d 45 53 78 	mr      r5,r10
    3350:	7c 06 03 78 	mr      r6,r0
    3354:	48 00 03 95 	bl      0x36e8
    3358:	7c 60 1b 78 	mr      r0,r3
    335c:	90 1f 00 70 	stw     r0,112(r31)
    3360:	80 1f 00 70 	lwz     r0,112(r31)
    3364:	2f 80 00 00 	cmpwi   cr7,r0,0
    3368:	41 9e 00 10 	beq-    cr7,0x3378
    336c:	38 00 00 01 	li      r0,1
    3370:	90 1f 00 80 	stw     r0,128(r31)
    3374:	48 00 00 b0 	b       0x3424
    3378:	80 1f 00 74 	lwz     r0,116(r31)
    337c:	78 09 00 20 	clrldi  r9,r0,32
    3380:	81 69 00 00 	lwz     r11,0(r9)
    3384:	80 1f 00 f0 	lwz     r0,240(r31)
    3388:	78 09 00 20 	clrldi  r9,r0,32
    338c:	91 69 00 00 	stw     r11,0(r9)
    3390:	81 3f 00 74 	lwz     r9,116(r31)
    3394:	38 09 00 04 	addi    r0,r9,4
    3398:	7c 0a 03 78 	mr      r10,r0
    339c:	80 1f 00 f0 	lwz     r0,240(r31)
    33a0:	78 09 00 20 	clrldi  r9,r0,32
    33a4:	81 69 00 00 	lwz     r11,0(r9)
    33a8:	80 1f 00 e8 	lwz     r0,232(r31)
    33ac:	78 00 00 20 	clrldi  r0,r0,32
    33b0:	79 49 00 20 	clrldi  r9,r10,32
    33b4:	79 6b 00 20 	clrldi  r11,r11,32
    33b8:	7c 03 03 78 	mr      r3,r0
    33bc:	7d 24 4b 78 	mr      r4,r9
    33c0:	7d 65 5b 78 	mr      r5,r11
    33c4:	48 00 0d a1 	bl      0x4164
    33c8:	e8 41 00 28 	ld      r2,40(r1)
    33cc:	80 1f 00 f0 	lwz     r0,240(r31)
    33d0:	78 09 00 20 	clrldi  r9,r0,32
    33d4:	80 09 00 00 	lwz     r0,0(r9)
    33d8:	7c 09 03 78 	mr      r9,r0
    33dc:	80 1f 00 74 	lwz     r0,116(r31)
    33e0:	7d 29 02 14 	add     r9,r9,r0
    33e4:	39 29 00 04 	addi    r9,r9,4
    33e8:	80 1f 00 f8 	lwz     r0,248(r31)
    33ec:	78 00 00 20 	clrldi  r0,r0,32
    33f0:	79 29 00 20 	clrldi  r9,r9,32
    33f4:	7c 03 03 78 	mr      r3,r0
    33f8:	7d 24 4b 78 	mr      r4,r9
    33fc:	38 a0 00 1c 	li      r5,28
    3400:	48 00 0d 65 	bl      0x4164
    3404:	e8 41 00 28 	ld      r2,40(r1)
    3408:	80 1f 00 d0 	lwz     r0,208(r31)
    340c:	78 09 00 20 	clrldi  r9,r0,32
    3410:	81 29 00 1c 	lwz     r9,28(r9)
    3414:	38 09 00 0c 	addi    r0,r9,12
    3418:	78 09 00 20 	clrldi  r9,r0,32
    341c:	81 29 00 00 	lwz     r9,0(r9)
    3420:	91 3f 00 80 	stw     r9,128(r31)
    3424:	80 1f 00 80 	lwz     r0,128(r31)
    3428:	7c 03 03 78 	mr      r3,r0
    342c:	e9 61 00 00 	ld      r11,0(r1)
    3430:	e8 0b 00 10 	ld      r0,16(r11)
    3434:	7c 08 03 a6 	mtlr    r0
    3438:	eb eb ff f8 	ld      r31,-8(r11)
    343c:	7d 61 5b 78 	mr      r1,r11
    3440:	4e 80 00 20 	blr
    3444:	f8 21 ff 61 	stdu    r1,-160(r1)
    3448:	7c 08 02 a6 	mflr    r0
    344c:	fb e1 00 98 	std     r31,152(r1)
    3450:	f8 01 00 b0 	std     r0,176(r1)
    3454:	7c 3f 0b 78 	mr      r31,r1
    3458:	7c 60 1b 78 	mr      r0,r3
    345c:	7c 89 23 78 	mr      r9,r4
    3460:	90 1f 00 d0 	stw     r0,208(r31)
    3464:	91 3f 00 d8 	stw     r9,216(r31)
    3468:	80 1f 00 d0 	lwz     r0,208(r31)
    346c:	78 09 00 20 	clrldi  r9,r0,32
    3470:	80 09 00 1c 	lwz     r0,28(r9)
    3474:	78 09 00 20 	clrldi  r9,r0,32
    3478:	38 00 01 03 	li      r0,259
    347c:	90 09 00 00 	stw     r0,0(r9)
    3480:	80 1f 00 d0 	lwz     r0,208(r31)
    3484:	78 09 00 20 	clrldi  r9,r0,32
    3488:	81 29 00 1c 	lwz     r9,28(r9)
    348c:	38 09 00 04 	addi    r0,r9,4
    3490:	78 09 00 20 	clrldi  r9,r0,32
    3494:	38 00 00 00 	li      r0,0
    3498:	90 09 00 00 	stw     r0,0(r9)
    349c:	80 1f 00 d0 	lwz     r0,208(r31)
    34a0:	78 09 00 20 	clrldi  r9,r0,32
    34a4:	81 29 00 1c 	lwz     r9,28(r9)
    34a8:	38 09 00 08 	addi    r0,r9,8
    34ac:	78 09 00 20 	clrldi  r9,r0,32
    34b0:	38 00 00 00 	li      r0,0
    34b4:	90 09 00 00 	stw     r0,0(r9)
    34b8:	80 1f 00 d0 	lwz     r0,208(r31)
    34bc:	78 09 00 20 	clrldi  r9,r0,32
    34c0:	81 29 00 1c 	lwz     r9,28(r9)
    34c4:	38 09 00 0c 	addi    r0,r9,12
    34c8:	78 09 00 20 	clrldi  r9,r0,32
    34cc:	38 00 00 00 	li      r0,0
    34d0:	90 09 00 00 	stw     r0,0(r9)
    34d4:	80 1f 00 d0 	lwz     r0,208(r31)
    34d8:	78 09 00 20 	clrldi  r9,r0,32
    34dc:	81 69 00 0c 	lwz     r11,12(r9)
    34e0:	80 1f 00 d0 	lwz     r0,208(r31)
    34e4:	78 09 00 20 	clrldi  r9,r0,32
    34e8:	81 49 00 1c 	lwz     r10,28(r9)
    34ec:	80 1f 00 d0 	lwz     r0,208(r31)
    34f0:	78 09 00 20 	clrldi  r9,r0,32
    34f4:	81 09 00 14 	lwz     r8,20(r9)
    34f8:	80 1f 00 d0 	lwz     r0,208(r31)
    34fc:	78 09 00 20 	clrldi  r9,r0,32
    3500:	80 09 00 1c 	lwz     r0,28(r9)
    3504:	79 69 00 20 	clrldi  r9,r11,32
    3508:	79 4b 00 20 	clrldi  r11,r10,32
    350c:	79 0a 00 20 	clrldi  r10,r8,32
    3510:	78 00 00 20 	clrldi  r0,r0,32
    3514:	7d 23 4b 78 	mr      r3,r9
    3518:	7d 64 5b 78 	mr      r4,r11
    351c:	7d 45 53 78 	mr      r5,r10
    3520:	7c 06 03 78 	mr      r6,r0
    3524:	48 00 01 c5 	bl      0x36e8
    3528:	7c 60 1b 78 	mr      r0,r3
    352c:	90 1f 00 70 	stw     r0,112(r31)
    3530:	80 1f 00 70 	lwz     r0,112(r31)
    3534:	2f 80 00 00 	cmpwi   cr7,r0,0
    3538:	41 9e 00 10 	beq-    cr7,0x3548
    353c:	38 00 00 01 	li      r0,1
    3540:	90 1f 00 80 	stw     r0,128(r31)
    3544:	48 00 00 4c 	b       0x3590
    3548:	81 7f 00 d8 	lwz     r11,216(r31)
    354c:	80 1f 00 d0 	lwz     r0,208(r31)
    3550:	78 09 00 20 	clrldi  r9,r0,32
    3554:	80 09 00 7c 	lwz     r0,124(r9)
    3558:	79 69 00 20 	clrldi  r9,r11,32
    355c:	78 00 00 20 	clrldi  r0,r0,32
    3560:	7d 23 4b 78 	mr      r3,r9
    3564:	7c 04 03 78 	mr      r4,r0
    3568:	38 a0 00 1c 	li      r5,28
    356c:	48 00 0b f9 	bl      0x4164
    3570:	e8 41 00 28 	ld      r2,40(r1)
    3574:	80 1f 00 d0 	lwz     r0,208(r31)
    3578:	78 09 00 20 	clrldi  r9,r0,32
    357c:	81 29 00 1c 	lwz     r9,28(r9)
    3580:	38 09 00 0c 	addi    r0,r9,12
    3584:	78 09 00 20 	clrldi  r9,r0,32
    3588:	81 29 00 00 	lwz     r9,0(r9)
    358c:	91 3f 00 80 	stw     r9,128(r31)
    3590:	80 1f 00 80 	lwz     r0,128(r31)
    3594:	7c 03 03 78 	mr      r3,r0
    3598:	e9 61 00 00 	ld      r11,0(r1)
    359c:	e8 0b 00 10 	ld      r0,16(r11)
    35a0:	7c 08 03 a6 	mtlr    r0
    35a4:	eb eb ff f8 	ld      r31,-8(r11)
    35a8:	7d 61 5b 78 	mr      r1,r11
    35ac:	4e 80 00 20 	blr
    35b0:	f8 21 ff 51 	stdu    r1,-176(r1)
    35b4:	7c 08 02 a6 	mflr    r0
    35b8:	fb e1 00 a8 	std     r31,168(r1)
    35bc:	f8 01 00 c0 	std     r0,192(r1)
    35c0:	7c 3f 0b 78 	mr      r31,r1
    35c4:	38 1f 00 70 	addi    r0,r31,112
    35c8:	78 00 00 20 	clrldi  r0,r0,32
    35cc:	7c 03 03 78 	mr      r3,r0
    35d0:	48 00 00 65 	bl      0x3634
    35d4:	7c 60 1b 78 	mr      r0,r3
    35d8:	2f 80 00 01 	cmpwi   cr7,r0,1
    35dc:	40 9e 00 10 	bne-    cr7,0x35ec
    35e0:	38 00 00 00 	li      r0,0
    35e4:	90 1f 00 90 	stw     r0,144(r31)
    35e8:	48 00 00 2c 	b       0x3614
    35ec:	38 1f 00 80 	addi    r0,r31,128
    35f0:	78 09 00 20 	clrldi  r9,r0,32
    35f4:	38 1f 00 70 	addi    r0,r31,112
    35f8:	78 00 00 20 	clrldi  r0,r0,32
    35fc:	7d 23 4b 78 	mr      r3,r9
    3600:	7c 04 03 78 	mr      r4,r0
    3604:	48 00 0c 81 	bl      0x4284
    3608:	e8 41 00 28 	ld      r2,40(r1)
    360c:	80 1f 00 80 	lwz     r0,128(r31)
    3610:	90 1f 00 90 	stw     r0,144(r31)
    3614:	80 1f 00 90 	lwz     r0,144(r31)
    3618:	7c 03 03 78 	mr      r3,r0
    361c:	e9 61 00 00 	ld      r11,0(r1)
    3620:	e8 0b 00 10 	ld      r0,16(r11)
    3624:	7c 08 03 a6 	mtlr    r0
    3628:	eb eb ff f8 	ld      r31,-8(r11)
    362c:	7d 61 5b 78 	mr      r1,r11
    3630:	4e 80 00 20 	blr
    3634:	f8 21 ff 61 	stdu    r1,-160(r1)
    3638:	7c 08 02 a6 	mflr    r0
    363c:	fb e1 00 98 	std     r31,152(r1)
    3640:	f8 01 00 b0 	std     r0,176(r1)
    3644:	7c 3f 0b 78 	mr      r31,r1
    3648:	7c 60 1b 78 	mr      r0,r3
    364c:	90 1f 00 d0 	stw     r0,208(r31)
    3650:	80 1f 00 d0 	lwz     r0,208(r31)
    3654:	2f 80 00 00 	cmpwi   cr7,r0,0
    3658:	40 9e 00 10 	bne-    cr7,0x3668
    365c:	38 00 00 01 	li      r0,1
    3660:	90 1f 00 80 	stw     r0,128(r31)
    3664:	48 00 00 64 	b       0x36c8
    3668:	38 1f 00 70 	addi    r0,r31,112
    366c:	78 00 00 20 	clrldi  r0,r0,32
    3670:	7c 03 03 78 	mr      r3,r0
    3674:	80 82 80 98 	lwz     r4,-32616(r2)
    3678:	48 00 0b ed 	bl      0x4264
    367c:	e8 41 00 28 	ld      r2,40(r1)
    3680:	81 22 80 b8 	lwz     r9,-32584(r2)
    3684:	e9 29 00 00 	ld      r9,0(r9)
    3688:	e8 1f 00 70 	ld      r0,112(r31)
    368c:	7c 00 00 f8 	not     r0,r0
    3690:	7d 2b 00 38 	and     r11,r9,r0
    3694:	80 1f 00 d0 	lwz     r0,208(r31)
    3698:	78 09 00 20 	clrldi  r9,r0,32
    369c:	f9 69 00 00 	std     r11,0(r9)
    36a0:	81 22 80 b8 	lwz     r9,-32584(r2)
    36a4:	e9 29 00 08 	ld      r9,8(r9)
    36a8:	e8 1f 00 78 	ld      r0,120(r31)
    36ac:	7c 00 00 f8 	not     r0,r0
    36b0:	7d 2b 00 38 	and     r11,r9,r0
    36b4:	80 1f 00 d0 	lwz     r0,208(r31)
    36b8:	78 09 00 20 	clrldi  r9,r0,32
    36bc:	f9 69 00 08 	std     r11,8(r9)
    36c0:	38 00 00 00 	li      r0,0
    36c4:	90 1f 00 80 	stw     r0,128(r31)
    36c8:	80 1f 00 80 	lwz     r0,128(r31)
    36cc:	7c 03 03 78 	mr      r3,r0
    36d0:	e9 61 00 00 	ld      r11,0(r1)
    36d4:	e8 0b 00 10 	ld      r0,16(r11)
    36d8:	7c 08 03 a6 	mtlr    r0
    36dc:	eb eb ff f8 	ld      r31,-8(r11)
    36e0:	7d 61 5b 78 	mr      r1,r11
    36e4:	4e 80 00 20 	blr
    36e8:	f8 21 ff 61 	stdu    r1,-160(r1)
    36ec:	7c 08 02 a6 	mflr    r0
    36f0:	fb e1 00 98 	std     r31,152(r1)
    36f4:	f8 01 00 b0 	std     r0,176(r1)
    36f8:	7c 3f 0b 78 	mr      r31,r1
    36fc:	7c 60 1b 78 	mr      r0,r3
    3700:	7c 89 23 78 	mr      r9,r4
    3704:	7c ab 2b 78 	mr      r11,r5
    3708:	7c ca 33 78 	mr      r10,r6
    370c:	90 1f 00 d0 	stw     r0,208(r31)
    3710:	91 3f 00 d8 	stw     r9,216(r31)
    3714:	91 7f 00 e0 	stw     r11,224(r31)
    3718:	91 5f 00 e8 	stw     r10,232(r31)
    371c:	80 1f 00 d0 	lwz     r0,208(r31)
    3720:	78 09 00 20 	clrldi  r9,r0,32
    3724:	80 1f 00 d8 	lwz     r0,216(r31)
    3728:	78 00 00 20 	clrldi  r0,r0,32
    372c:	7d 23 4b 78 	mr      r3,r9
    3730:	7c 04 03 78 	mr      r4,r0
    3734:	48 00 00 b9 	bl      0x37ec
    3738:	7c 60 1b 78 	mr      r0,r3
    373c:	90 1f 00 70 	stw     r0,112(r31)
    3740:	80 1f 00 70 	lwz     r0,112(r31)
    3744:	2f 80 00 00 	cmpwi   cr7,r0,0
    3748:	41 9e 00 28 	beq-    cr7,0x3770
    374c:	80 1f 00 70 	lwz     r0,112(r31)
    3750:	78 00 00 20 	clrldi  r0,r0,32
    3754:	80 62 80 bc 	lwz     r3,-32580(r2)
    3758:	7c 04 03 78 	mr      r4,r0
    375c:	48 00 0a 29 	bl      0x4184
    3760:	e8 41 00 28 	ld      r2,40(r1)
    3764:	80 1f 00 70 	lwz     r0,112(r31)
    3768:	90 1f 00 80 	stw     r0,128(r31)
    376c:	48 00 00 60 	b       0x37cc
    3770:	80 1f 00 e0 	lwz     r0,224(r31)
    3774:	78 09 00 20 	clrldi  r9,r0,32
    3778:	80 1f 00 e8 	lwz     r0,232(r31)
    377c:	78 00 00 20 	clrldi  r0,r0,32
    3780:	7d 23 4b 78 	mr      r3,r9
    3784:	7c 04 03 78 	mr      r4,r0
    3788:	48 00 00 d1 	bl      0x3858
    378c:	7c 60 1b 78 	mr      r0,r3
    3790:	90 1f 00 70 	stw     r0,112(r31)
    3794:	80 1f 00 70 	lwz     r0,112(r31)
    3798:	2f 80 00 00 	cmpwi   cr7,r0,0
    379c:	41 9e 00 28 	beq-    cr7,0x37c4
    37a0:	80 1f 00 70 	lwz     r0,112(r31)
    37a4:	78 00 00 20 	clrldi  r0,r0,32
    37a8:	80 62 80 c0 	lwz     r3,-32576(r2)
    37ac:	7c 04 03 78 	mr      r4,r0
    37b0:	48 00 09 d5 	bl      0x4184
    37b4:	e8 41 00 28 	ld      r2,40(r1)
    37b8:	80 1f 00 70 	lwz     r0,112(r31)
    37bc:	90 1f 00 80 	stw     r0,128(r31)
    37c0:	48 00 00 0c 	b       0x37cc
    37c4:	38 00 00 00 	li      r0,0
    37c8:	90 1f 00 80 	stw     r0,128(r31)
    37cc:	80 1f 00 80 	lwz     r0,128(r31)
    37d0:	7c 03 03 78 	mr      r3,r0
    37d4:	e9 61 00 00 	ld      r11,0(r1)
    37d8:	e8 0b 00 10 	ld      r0,16(r11)
    37dc:	7c 08 03 a6 	mtlr    r0
    37e0:	eb eb ff f8 	ld      r31,-8(r11)
    37e4:	7d 61 5b 78 	mr      r1,r11
    37e8:	4e 80 00 20 	blr
    37ec:	f8 21 ff 81 	stdu    r1,-128(r1)
    37f0:	7c 08 02 a6 	mflr    r0
    37f4:	fb e1 00 78 	std     r31,120(r1)
    37f8:	f8 01 00 90 	std     r0,144(r1)
    37fc:	7c 3f 0b 78 	mr      r31,r1
    3800:	7c 60 1b 78 	mr      r0,r3
    3804:	7c 89 23 78 	mr      r9,r4
    3808:	90 1f 00 b0 	stw     r0,176(r31)
    380c:	91 3f 00 b8 	stw     r9,184(r31)
    3810:	80 1f 00 b0 	lwz     r0,176(r31)
    3814:	78 09 00 20 	clrldi  r9,r0,32
    3818:	80 1f 00 b8 	lwz     r0,184(r31)
    381c:	78 00 00 20 	clrldi  r0,r0,32
    3820:	7d 23 4b 78 	mr      r3,r9
    3824:	7c 04 03 78 	mr      r4,r0
    3828:	38 a0 00 01 	li      r5,1
    382c:	48 00 0a 99 	bl      0x42c4
    3830:	e8 41 00 28 	ld      r2,40(r1)
    3834:	7c 60 1b 78 	mr      r0,r3
    3838:	7c 00 07 b4 	extsw   r0,r0
    383c:	7c 03 03 78 	mr      r3,r0
    3840:	e9 61 00 00 	ld      r11,0(r1)
    3844:	e8 0b 00 10 	ld      r0,16(r11)
    3848:	7c 08 03 a6 	mtlr    r0
    384c:	eb eb ff f8 	ld      r31,-8(r11)
    3850:	7d 61 5b 78 	mr      r1,r11
    3854:	4e 80 00 20 	blr
    3858:	f8 21 ff 81 	stdu    r1,-128(r1)
    385c:	7c 08 02 a6 	mflr    r0
    3860:	fb e1 00 78 	std     r31,120(r1)
    3864:	f8 01 00 90 	std     r0,144(r1)
    3868:	7c 3f 0b 78 	mr      r31,r1
    386c:	7c 60 1b 78 	mr      r0,r3
    3870:	7c 89 23 78 	mr      r9,r4
    3874:	90 1f 00 b0 	stw     r0,176(r31)
    3878:	91 3f 00 b8 	stw     r9,184(r31)
    387c:	80 1f 00 b0 	lwz     r0,176(r31)
    3880:	78 09 00 20 	clrldi  r9,r0,32
    3884:	80 1f 00 b8 	lwz     r0,184(r31)
    3888:	78 00 00 20 	clrldi  r0,r0,32
    388c:	7d 23 4b 78 	mr      r3,r9
    3890:	7c 04 03 78 	mr      r4,r0
    3894:	38 a0 00 00 	li      r5,0
    3898:	38 c0 00 01 	li      r6,1
    389c:	48 00 0a 09 	bl      0x42a4
    38a0:	e8 41 00 28 	ld      r2,40(r1)
    38a4:	7c 60 1b 78 	mr      r0,r3
    38a8:	7c 00 07 b4 	extsw   r0,r0
    38ac:	7c 03 03 78 	mr      r3,r0
    38b0:	e9 61 00 00 	ld      r11,0(r1)
    38b4:	e8 0b 00 10 	ld      r0,16(r11)
    38b8:	7c 08 03 a6 	mtlr    r0
    38bc:	eb eb ff f8 	ld      r31,-8(r11)
    38c0:	7d 61 5b 78 	mr      r1,r11
    38c4:	4e 80 00 20 	blr
    38c8:	39 60 00 34 	li      r11,52
    38cc:	7c 08 02 a6 	mflr    r0
    38d0:	f8 01 00 10 	std     r0,16(r1)
    38d4:	44 00 00 02 	sc      
    38d8:	e8 01 00 10 	ld      r0,16(r1)
    38dc:	7c 63 07 b4 	extsw   r3,r3
    38e0:	7c 08 03 a6 	mtlr    r0
    38e4:	4e 80 00 20 	blr
    38e8:	39 60 00 2b 	li      r11,43
    38ec:	7c 08 02 a6 	mflr    r0
    38f0:	f8 01 00 10 	std     r0,16(r1)
    38f4:	44 00 00 02 	sc      
    38f8:	e8 01 00 10 	ld      r0,16(r1)
    38fc:	7c 08 03 a6 	mtlr    r0
    3900:	4e 80 00 20 	blr
    3904:	39 60 00 2c 	li      r11,44
    3908:	7c 08 02 a6 	mflr    r0
    390c:	f8 01 00 10 	std     r0,16(r1)
    3910:	44 00 00 02 	sc      
    3914:	e8 01 00 10 	ld      r0,16(r1)
    3918:	7c 63 07 b4 	extsw   r3,r3
    391c:	7c 08 03 a6 	mtlr    r0
    3920:	4e 80 00 20 	blr
    3924:	39 60 00 2d 	li      r11,45
    3928:	7c 08 02 a6 	mflr    r0
    392c:	f8 01 00 10 	std     r0,16(r1)
    3930:	44 00 00 02 	sc      
    3934:	e8 01 00 10 	ld      r0,16(r1)
    3938:	7c 63 07 b4 	extsw   r3,r3
    393c:	7c 08 03 a6 	mtlr    r0
    3940:	4e 80 00 20 	blr
    3944:	39 60 00 2e 	li      r11,46
    3948:	7c 08 02 a6 	mflr    r0
    394c:	f8 01 00 10 	std     r0,16(r1)
    3950:	44 00 00 02 	sc      
    3954:	e8 01 00 10 	ld      r0,16(r1)
    3958:	7c 08 03 a6 	mtlr    r0
    395c:	4e 80 00 20 	blr
    3960:	39 60 00 2f 	li      r11,47
    3964:	7c 08 02 a6 	mflr    r0
    3968:	f8 01 00 10 	std     r0,16(r1)
    396c:	44 00 00 02 	sc      
    3970:	e8 01 00 10 	ld      r0,16(r1)
    3974:	7c 63 07 b4 	extsw   r3,r3
    3978:	7c 08 03 a6 	mtlr    r0
    397c:	4e 80 00 20 	blr
    3980:	39 60 00 30 	li      r11,48
    3984:	7c 08 02 a6 	mflr    r0
    3988:	f8 01 00 10 	std     r0,16(r1)
    398c:	44 00 00 02 	sc      
    3990:	e8 01 00 10 	ld      r0,16(r1)
    3994:	7c 63 07 b4 	extsw   r3,r3
    3998:	7c 08 03 a6 	mtlr    r0
    399c:	4e 80 00 20 	blr
    39a0:	39 60 00 31 	li      r11,49
    39a4:	7c 08 02 a6 	mflr    r0
    39a8:	f8 01 00 10 	std     r0,16(r1)
    39ac:	44 00 00 02 	sc      
    39b0:	e8 01 00 10 	ld      r0,16(r1)
    39b4:	7c 63 07 b4 	extsw   r3,r3
    39b8:	7c 08 03 a6 	mtlr    r0
    39bc:	4e 80 00 20 	blr
    39c0:	39 60 00 32 	li      r11,50
    39c4:	7c 08 02 a6 	mflr    r0
    39c8:	f8 01 00 10 	std     r0,16(r1)
    39cc:	44 00 00 02 	sc      
    39d0:	e8 01 00 10 	ld      r0,16(r1)
    39d4:	7c 63 07 b4 	extsw   r3,r3
    39d8:	7c 08 03 a6 	mtlr    r0
    39dc:	4e 80 00 20 	blr
    39e0:	39 60 00 33 	li      r11,51
    39e4:	7c 08 02 a6 	mflr    r0
    39e8:	f8 01 00 10 	std     r0,16(r1)
    39ec:	44 00 00 02 	sc      
    39f0:	e8 01 00 10 	ld      r0,16(r1)
    39f4:	7c 63 07 b4 	extsw   r3,r3
    39f8:	7c 08 03 a6 	mtlr    r0
    39fc:	4e 80 00 20 	blr
    3a00:	39 60 00 39 	li      r11,57
    3a04:	7c 08 02 a6 	mflr    r0
    3a08:	f8 01 00 10 	std     r0,16(r1)
    3a0c:	44 00 00 02 	sc      
    3a10:	e8 01 00 10 	ld      r0,16(r1)
    3a14:	7c 63 07 b4 	extsw   r3,r3
    3a18:	7c 08 03 a6 	mtlr    r0
    3a1c:	4e 80 00 20 	blr
    3a20:	39 60 00 3a 	li      r11,58
    3a24:	7c 08 02 a6 	mflr    r0
    3a28:	f8 01 00 10 	std     r0,16(r1)
    3a2c:	44 00 00 02 	sc      
    3a30:	e8 01 00 10 	ld      r0,16(r1)
    3a34:	7c 63 07 b4 	extsw   r3,r3
    3a38:	7c 08 03 a6 	mtlr    r0
    3a3c:	4e 80 00 20 	blr
    3a40:	39 60 00 29 	li      r11,41
    3a44:	7c 08 02 a6 	mflr    r0
    3a48:	f8 01 00 10 	std     r0,16(r1)
    3a4c:	44 00 00 02 	sc      
    3a50:	e8 01 00 10 	ld      r0,16(r1)
    3a54:	7c 08 03 a6 	mtlr    r0
    3a58:	4e 80 00 20 	blr
    3a5c:	39 60 00 35 	li      r11,53
    3a60:	7c 08 02 a6 	mflr    r0
    3a64:	f8 01 00 10 	std     r0,16(r1)
    3a68:	44 00 00 02 	sc      
    3a6c:	e8 01 00 10 	ld      r0,16(r1)
    3a70:	7c 63 07 b4 	extsw   r3,r3
    3a74:	7c 08 03 a6 	mtlr    r0
    3a78:	4e 80 00 20 	blr
    3a7c:	39 60 00 37 	li      r11,55
    3a80:	7c 08 02 a6 	mflr    r0
    3a84:	f8 01 00 10 	std     r0,16(r1)
    3a88:	44 00 00 02 	sc      
    3a8c:	e8 01 00 10 	ld      r0,16(r1)
    3a90:	7c 63 07 b4 	extsw   r3,r3
    3a94:	7c 08 03 a6 	mtlr    r0
    3a98:	4e 80 00 20 	blr
    3a9c:	39 60 00 36 	li      r11,54
    3aa0:	7c 08 02 a6 	mflr    r0
    3aa4:	f8 01 00 10 	std     r0,16(r1)
    3aa8:	44 00 00 02 	sc      
    3aac:	e8 01 00 10 	ld      r0,16(r1)
    3ab0:	7c 63 07 b4 	extsw   r3,r3
    3ab4:	7c 08 03 a6 	mtlr    r0
    3ab8:	4e 80 00 20 	blr
    3abc:	39 60 00 38 	li      r11,56
    3ac0:	7c 08 02 a6 	mflr    r0
    3ac4:	f8 01 00 10 	std     r0,16(r1)
    3ac8:	44 00 00 02 	sc      
    3acc:	e8 01 00 10 	ld      r0,16(r1)
    3ad0:	7c 63 07 b4 	extsw   r3,r3
    3ad4:	7c 08 03 a6 	mtlr    r0
    3ad8:	4e 80 00 20 	blr
    3adc:	e8 04 00 00 	ld      r0,0(r4)
    3ae0:	f8 03 00 00 	std     r0,0(r3)
    3ae4:	38 00 00 00 	li      r0,0
    3ae8:	39 23 00 07 	addi    r9,r3,7
    3aec:	98 09 00 00 	stb     r0,0(r9)
    3af0:	4e 80 00 20 	blr
    3af4:	e8 04 00 00 	ld      r0,0(r4)
    3af8:	f8 03 00 00 	std     r0,0(r3)
    3afc:	38 00 00 00 	li      r0,0
    3b00:	39 23 00 07 	addi    r9,r3,7
    3b04:	98 09 00 00 	stb     r0,0(r9)
    3b08:	4e 80 00 20 	blr
    3b0c:	e8 04 00 00 	ld      r0,0(r4)
    3b10:	f8 03 00 00 	std     r0,0(r3)
    3b14:	38 00 00 00 	li      r0,0
    3b18:	39 23 00 07 	addi    r9,r3,7
    3b1c:	98 09 00 00 	stb     r0,0(r9)
    3b20:	4e 80 00 20 	blr
    3b24:	e8 04 00 00 	ld      r0,0(r4)
    3b28:	f8 03 00 00 	std     r0,0(r3)
    3b2c:	38 00 00 00 	li      r0,0
    3b30:	39 23 00 07 	addi    r9,r3,7
    3b34:	98 09 00 00 	stb     r0,0(r9)
    3b38:	4e 80 00 20 	blr
    3b3c:	e8 04 00 00 	ld      r0,0(r4)
    3b40:	f8 03 00 00 	std     r0,0(r3)
    3b44:	38 00 00 00 	li      r0,0
    3b48:	39 23 00 07 	addi    r9,r3,7
    3b4c:	98 09 00 00 	stb     r0,0(r9)
    3b50:	4e 80 00 20 	blr
    3b54:	e8 04 00 00 	ld      r0,0(r4)
    3b58:	f8 03 00 00 	std     r0,0(r3)
    3b5c:	38 00 00 00 	li      r0,0
    3b60:	39 23 00 07 	addi    r9,r3,7
    3b64:	98 09 00 00 	stb     r0,0(r9)
    3b68:	4e 80 00 20 	blr
    3b6c:	e8 04 00 00 	ld      r0,0(r4)
    3b70:	f8 03 00 00 	std     r0,0(r3)
    3b74:	38 00 00 00 	li      r0,0
    3b78:	39 23 00 07 	addi    r9,r3,7
    3b7c:	98 09 00 00 	stb     r0,0(r9)
    3b80:	4e 80 00 20 	blr
    3b84:	39 60 00 64 	li      r11,100
    3b88:	7c 08 02 a6 	mflr    r0
    3b8c:	f8 01 00 10 	std     r0,16(r1)
    3b90:	44 00 00 02 	sc      
    3b94:	e8 01 00 10 	ld      r0,16(r1)
    3b98:	7c 63 07 b4 	extsw   r3,r3
    3b9c:	7c 08 03 a6 	mtlr    r0
    3ba0:	4e 80 00 20 	blr
    3ba4:	39 60 00 65 	li      r11,101
    3ba8:	7c 08 02 a6 	mflr    r0
    3bac:	f8 01 00 10 	std     r0,16(r1)
    3bb0:	44 00 00 02 	sc      
    3bb4:	e8 01 00 10 	ld      r0,16(r1)
    3bb8:	7c 63 07 b4 	extsw   r3,r3
    3bbc:	7c 08 03 a6 	mtlr    r0
    3bc0:	4e 80 00 20 	blr
    3bc4:	39 60 00 66 	li      r11,102
    3bc8:	7c 08 02 a6 	mflr    r0
    3bcc:	f8 01 00 10 	std     r0,16(r1)
    3bd0:	44 00 00 02 	sc      
    3bd4:	e8 01 00 10 	ld      r0,16(r1)
    3bd8:	7c 63 07 b4 	extsw   r3,r3
    3bdc:	7c 08 03 a6 	mtlr    r0
    3be0:	4e 80 00 20 	blr
    3be4:	39 60 00 67 	li      r11,103
    3be8:	7c 08 02 a6 	mflr    r0
    3bec:	f8 01 00 10 	std     r0,16(r1)
    3bf0:	44 00 00 02 	sc      
    3bf4:	e8 01 00 10 	ld      r0,16(r1)
    3bf8:	7c 63 07 b4 	extsw   r3,r3
    3bfc:	7c 08 03 a6 	mtlr    r0
    3c00:	4e 80 00 20 	blr
    3c04:	39 60 00 68 	li      r11,104
    3c08:	7c 08 02 a6 	mflr    r0
    3c0c:	f8 01 00 10 	std     r0,16(r1)
    3c10:	44 00 00 02 	sc      
    3c14:	e8 01 00 10 	ld      r0,16(r1)
    3c18:	7c 63 07 b4 	extsw   r3,r3
    3c1c:	7c 08 03 a6 	mtlr    r0
    3c20:	4e 80 00 20 	blr
    3c24:	39 60 00 69 	li      r11,105
    3c28:	7c 08 02 a6 	mflr    r0
    3c2c:	f8 01 00 10 	std     r0,16(r1)
    3c30:	44 00 00 02 	sc      
    3c34:	e8 01 00 10 	ld      r0,16(r1)
    3c38:	7c 63 07 b4 	extsw   r3,r3
    3c3c:	7c 08 03 a6 	mtlr    r0
    3c40:	4e 80 00 20 	blr
    3c44:	39 60 00 6a 	li      r11,106
    3c48:	7c 08 02 a6 	mflr    r0
    3c4c:	f8 01 00 10 	std     r0,16(r1)
    3c50:	44 00 00 02 	sc      
    3c54:	e8 01 00 10 	ld      r0,16(r1)
    3c58:	7c 63 07 b4 	extsw   r3,r3
    3c5c:	7c 08 03 a6 	mtlr    r0
    3c60:	4e 80 00 20 	blr
    3c64:	39 60 00 6b 	li      r11,107
    3c68:	7c 08 02 a6 	mflr    r0
    3c6c:	f8 01 00 10 	std     r0,16(r1)
    3c70:	44 00 00 02 	sc      
    3c74:	e8 01 00 10 	ld      r0,16(r1)
    3c78:	7c 63 07 b4 	extsw   r3,r3
    3c7c:	7c 08 03 a6 	mtlr    r0
    3c80:	4e 80 00 20 	blr
    3c84:	39 60 00 6c 	li      r11,108
    3c88:	7c 08 02 a6 	mflr    r0
    3c8c:	f8 01 00 10 	std     r0,16(r1)
    3c90:	44 00 00 02 	sc      
    3c94:	e8 01 00 10 	ld      r0,16(r1)
    3c98:	7c 63 07 b4 	extsw   r3,r3
    3c9c:	7c 08 03 a6 	mtlr    r0
    3ca0:	4e 80 00 20 	blr
    3ca4:	39 60 00 6e 	li      r11,110
    3ca8:	7c 08 02 a6 	mflr    r0
    3cac:	f8 01 00 10 	std     r0,16(r1)
    3cb0:	44 00 00 02 	sc      
    3cb4:	e8 01 00 10 	ld      r0,16(r1)
    3cb8:	7c 63 07 b4 	extsw   r3,r3
    3cbc:	7c 08 03 a6 	mtlr    r0
    3cc0:	4e 80 00 20 	blr
    3cc4:	39 60 00 6d 	li      r11,109
    3cc8:	7c 08 02 a6 	mflr    r0
    3ccc:	f8 01 00 10 	std     r0,16(r1)
    3cd0:	44 00 00 02 	sc      
    3cd4:	e8 01 00 10 	ld      r0,16(r1)
    3cd8:	7c 63 07 b4 	extsw   r3,r3
    3cdc:	7c 08 03 a6 	mtlr    r0
    3ce0:	4e 80 00 20 	blr
    3ce4:	39 60 00 78 	li      r11,120
    3ce8:	7c 08 02 a6 	mflr    r0
    3cec:	f8 01 00 10 	std     r0,16(r1)
    3cf0:	44 00 00 02 	sc      
    3cf4:	e8 01 00 10 	ld      r0,16(r1)
    3cf8:	7c 63 07 b4 	extsw   r3,r3
    3cfc:	7c 08 03 a6 	mtlr    r0
    3d00:	4e 80 00 20 	blr
    3d04:	39 60 00 79 	li      r11,121
    3d08:	7c 08 02 a6 	mflr    r0
    3d0c:	f8 01 00 10 	std     r0,16(r1)
    3d10:	44 00 00 02 	sc      
    3d14:	e8 01 00 10 	ld      r0,16(r1)
    3d18:	7c 63 07 b4 	extsw   r3,r3
    3d1c:	7c 08 03 a6 	mtlr    r0
    3d20:	4e 80 00 20 	blr
    3d24:	39 60 00 7a 	li      r11,122
    3d28:	7c 08 02 a6 	mflr    r0
    3d2c:	f8 01 00 10 	std     r0,16(r1)
    3d30:	44 00 00 02 	sc      
    3d34:	e8 01 00 10 	ld      r0,16(r1)
    3d38:	7c 63 07 b4 	extsw   r3,r3
    3d3c:	7c 08 03 a6 	mtlr    r0
    3d40:	4e 80 00 20 	blr
    3d44:	39 60 00 7b 	li      r11,123
    3d48:	7c 08 02 a6 	mflr    r0
    3d4c:	f8 01 00 10 	std     r0,16(r1)
    3d50:	44 00 00 02 	sc      
    3d54:	e8 01 00 10 	ld      r0,16(r1)
    3d58:	7c 63 07 b4 	extsw   r3,r3
    3d5c:	7c 08 03 a6 	mtlr    r0
    3d60:	4e 80 00 20 	blr
    3d64:	39 60 00 7c 	li      r11,124
    3d68:	7c 08 02 a6 	mflr    r0
    3d6c:	f8 01 00 10 	std     r0,16(r1)
    3d70:	44 00 00 02 	sc      
    3d74:	e8 01 00 10 	ld      r0,16(r1)
    3d78:	7c 63 07 b4 	extsw   r3,r3
    3d7c:	7c 08 03 a6 	mtlr    r0
    3d80:	4e 80 00 20 	blr
    3d84:	39 60 00 7d 	li      r11,125
    3d88:	7c 08 02 a6 	mflr    r0
    3d8c:	f8 01 00 10 	std     r0,16(r1)
    3d90:	44 00 00 02 	sc      
    3d94:	e8 01 00 10 	ld      r0,16(r1)
    3d98:	7c 63 07 b4 	extsw   r3,r3
    3d9c:	7c 08 03 a6 	mtlr    r0
    3da0:	4e 80 00 20 	blr
    3da4:	39 60 00 94 	li      r11,148
    3da8:	7c 08 02 a6 	mflr    r0
    3dac:	f8 01 00 10 	std     r0,16(r1)
    3db0:	44 00 00 02 	sc      
    3db4:	e8 01 00 10 	ld      r0,16(r1)
    3db8:	7c 63 07 b4 	extsw   r3,r3
    3dbc:	7c 08 03 a6 	mtlr    r0
    3dc0:	4e 80 00 20 	blr
    3dc4:	39 60 00 7e 	li      r11,126
    3dc8:	7c 08 02 a6 	mflr    r0
    3dcc:	f8 01 00 10 	std     r0,16(r1)
    3dd0:	44 00 00 02 	sc      
    3dd4:	e8 01 00 10 	ld      r0,16(r1)
    3dd8:	7c 63 07 b4 	extsw   r3,r3
    3ddc:	7c 08 03 a6 	mtlr    r0
    3de0:	4e 80 00 20 	blr
    3de4:	39 60 00 7f 	li      r11,127
    3de8:	7c 08 02 a6 	mflr    r0
    3dec:	f8 01 00 10 	std     r0,16(r1)
    3df0:	44 00 00 02 	sc      
    3df4:	e8 01 00 10 	ld      r0,16(r1)
    3df8:	7c 63 07 b4 	extsw   r3,r3
    3dfc:	7c 08 03 a6 	mtlr    r0
    3e00:	4e 80 00 20 	blr
    3e04:	39 60 00 5a 	li      r11,90
    3e08:	7c 08 02 a6 	mflr    r0
    3e0c:	f8 01 00 10 	std     r0,16(r1)
    3e10:	44 00 00 02 	sc      
    3e14:	e8 01 00 10 	ld      r0,16(r1)
    3e18:	7c 63 07 b4 	extsw   r3,r3
    3e1c:	7c 08 03 a6 	mtlr    r0
    3e20:	4e 80 00 20 	blr
    3e24:	39 60 00 5b 	li      r11,91
    3e28:	7c 08 02 a6 	mflr    r0
    3e2c:	f8 01 00 10 	std     r0,16(r1)
    3e30:	44 00 00 02 	sc      
    3e34:	e8 01 00 10 	ld      r0,16(r1)
    3e38:	7c 63 07 b4 	extsw   r3,r3
    3e3c:	7c 08 03 a6 	mtlr    r0
    3e40:	4e 80 00 20 	blr
    3e44:	39 60 00 5c 	li      r11,92
    3e48:	7c 08 02 a6 	mflr    r0
    3e4c:	f8 01 00 10 	std     r0,16(r1)
    3e50:	44 00 00 02 	sc      
    3e54:	e8 01 00 10 	ld      r0,16(r1)
    3e58:	7c 63 07 b4 	extsw   r3,r3
    3e5c:	7c 08 03 a6 	mtlr    r0
    3e60:	4e 80 00 20 	blr
    3e64:	39 60 00 5d 	li      r11,93
    3e68:	7c 08 02 a6 	mflr    r0
    3e6c:	f8 01 00 10 	std     r0,16(r1)
    3e70:	44 00 00 02 	sc      
    3e74:	e8 01 00 10 	ld      r0,16(r1)
    3e78:	7c 63 07 b4 	extsw   r3,r3
    3e7c:	7c 08 03 a6 	mtlr    r0
    3e80:	4e 80 00 20 	blr
    3e84:	39 60 00 5e 	li      r11,94
    3e88:	7c 08 02 a6 	mflr    r0
    3e8c:	f8 01 00 10 	std     r0,16(r1)
    3e90:	44 00 00 02 	sc      
    3e94:	e8 01 00 10 	ld      r0,16(r1)
    3e98:	7c 63 07 b4 	extsw   r3,r3
    3e9c:	7c 08 03 a6 	mtlr    r0
    3ea0:	4e 80 00 20 	blr
    3ea4:	39 60 00 72 	li      r11,114
    3ea8:	7c 08 02 a6 	mflr    r0
    3eac:	f8 01 00 10 	std     r0,16(r1)
    3eb0:	44 00 00 02 	sc      
    3eb4:	e8 01 00 10 	ld      r0,16(r1)
    3eb8:	7c 63 07 b4 	extsw   r3,r3
    3ebc:	7c 08 03 a6 	mtlr    r0
    3ec0:	4e 80 00 20 	blr
    3ec4:	39 60 00 52 	li      r11,82
    3ec8:	7c 08 02 a6 	mflr    r0
    3ecc:	f8 01 00 10 	std     r0,16(r1)
    3ed0:	44 00 00 02 	sc      
    3ed4:	e8 01 00 10 	ld      r0,16(r1)
    3ed8:	7c 63 07 b4 	extsw   r3,r3
    3edc:	7c 08 03 a6 	mtlr    r0
    3ee0:	4e 80 00 20 	blr
    3ee4:	39 60 00 53 	li      r11,83
    3ee8:	7c 08 02 a6 	mflr    r0
    3eec:	f8 01 00 10 	std     r0,16(r1)
    3ef0:	44 00 00 02 	sc      
    3ef4:	e8 01 00 10 	ld      r0,16(r1)
    3ef8:	7c 63 07 b4 	extsw   r3,r3
    3efc:	7c 08 03 a6 	mtlr    r0
    3f00:	4e 80 00 20 	blr
    3f04:	39 60 00 55 	li      r11,85
    3f08:	7c 08 02 a6 	mflr    r0
    3f0c:	f8 01 00 10 	std     r0,16(r1)
    3f10:	44 00 00 02 	sc      
    3f14:	e8 01 00 10 	ld      r0,16(r1)
    3f18:	7c 63 07 b4 	extsw   r3,r3
    3f1c:	7c 08 03 a6 	mtlr    r0
    3f20:	4e 80 00 20 	blr
    3f24:	39 60 00 56 	li      r11,86
    3f28:	7c 08 02 a6 	mflr    r0
    3f2c:	f8 01 00 10 	std     r0,16(r1)
    3f30:	44 00 00 02 	sc      
    3f34:	e8 01 00 10 	ld      r0,16(r1)
    3f38:	7c 63 07 b4 	extsw   r3,r3
    3f3c:	7c 08 03 a6 	mtlr    r0
    3f40:	4e 80 00 20 	blr
    3f44:	39 60 00 57 	li      r11,87
    3f48:	7c 08 02 a6 	mflr    r0
    3f4c:	f8 01 00 10 	std     r0,16(r1)
    3f50:	44 00 00 02 	sc      
    3f54:	e8 01 00 10 	ld      r0,16(r1)
    3f58:	7c 63 07 b4 	extsw   r3,r3
    3f5c:	7c 08 03 a6 	mtlr    r0
    3f60:	4e 80 00 20 	blr
    3f64:	39 60 00 76 	li      r11,118
    3f68:	7c 08 02 a6 	mflr    r0
    3f6c:	f8 01 00 10 	std     r0,16(r1)
    3f70:	44 00 00 02 	sc      
    3f74:	e8 01 00 10 	ld      r0,16(r1)
    3f78:	7c 63 07 b4 	extsw   r3,r3
    3f7c:	7c 08 03 a6 	mtlr    r0
    3f80:	4e 80 00 20 	blr
    3f84:	39 60 00 84 	li      r11,132
    3f88:	7c 08 02 a6 	mflr    r0
    3f8c:	f8 01 00 10 	std     r0,16(r1)
    3f90:	44 00 00 02 	sc      
    3f94:	e8 01 00 10 	ld      r0,16(r1)
    3f98:	7c 63 07 b4 	extsw   r3,r3
    3f9c:	7c 08 03 a6 	mtlr    r0
    3fa0:	4e 80 00 20 	blr
    3fa4:	39 60 00 8b 	li      r11,139
    3fa8:	7c 08 02 a6 	mflr    r0
    3fac:	f8 01 00 10 	std     r0,16(r1)
    3fb0:	44 00 00 02 	sc      
    3fb4:	e8 01 00 10 	ld      r0,16(r1)
    3fb8:	7c 63 07 b4 	extsw   r3,r3
    3fbc:	7c 08 03 a6 	mtlr    r0
    3fc0:	4e 80 00 20 	blr
    3fc4:	39 60 00 5f 	li      r11,95
    3fc8:	7c 08 02 a6 	mflr    r0
    3fcc:	f8 01 00 10 	std     r0,16(r1)
    3fd0:	44 00 00 02 	sc      
    3fd4:	e8 01 00 10 	ld      r0,16(r1)
    3fd8:	7c 63 07 b4 	extsw   r3,r3
    3fdc:	7c 08 03 a6 	mtlr    r0
    3fe0:	4e 80 00 20 	blr
    3fe4:	39 60 00 60 	li      r11,96
    3fe8:	7c 08 02 a6 	mflr    r0
    3fec:	f8 01 00 10 	std     r0,16(r1)
    3ff0:	44 00 00 02 	sc      
    3ff4:	e8 01 00 10 	ld      r0,16(r1)
    3ff8:	7c 63 07 b4 	extsw   r3,r3
    3ffc:	7c 08 03 a6 	mtlr    r0
    4000:	4e 80 00 20 	blr
    4004:	39 60 00 61 	li      r11,97
    4008:	7c 08 02 a6 	mflr    r0
    400c:	f8 01 00 10 	std     r0,16(r1)
    4010:	44 00 00 02 	sc      
    4014:	e8 01 00 10 	ld      r0,16(r1)
    4018:	7c 63 07 b4 	extsw   r3,r3
    401c:	7c 08 03 a6 	mtlr    r0
    4020:	4e 80 00 20 	blr
    4024:	39 60 00 62 	li      r11,98
    4028:	7c 08 02 a6 	mflr    r0
    402c:	f8 01 00 10 	std     r0,16(r1)
    4030:	44 00 00 02 	sc      
    4034:	e8 01 00 10 	ld      r0,16(r1)
    4038:	7c 63 07 b4 	extsw   r3,r3
    403c:	7c 08 03 a6 	mtlr    r0
    4040:	4e 80 00 20 	blr
    4044:	39 60 00 63 	li      r11,99
    4048:	7c 08 02 a6 	mflr    r0
    404c:	f8 01 00 10 	std     r0,16(r1)
    4050:	44 00 00 02 	sc      
    4054:	e8 01 00 10 	ld      r0,16(r1)
    4058:	7c 63 07 b4 	extsw   r3,r3
    405c:	7c 08 03 a6 	mtlr    r0
    4060:	4e 80 00 20 	blr
    4064:	39 60 00 75 	li      r11,117
    4068:	7c 08 02 a6 	mflr    r0
    406c:	f8 01 00 10 	std     r0,16(r1)
    4070:	44 00 00 02 	sc      
    4074:	e8 01 00 10 	ld      r0,16(r1)
    4078:	7c 63 07 b4 	extsw   r3,r3
    407c:	7c 08 03 a6 	mtlr    r0
    4080:	4e 80 00 20 	blr
    4084:	39 60 00 6f 	li      r11,111
    4088:	7c 08 02 a6 	mflr    r0
    408c:	f8 01 00 10 	std     r0,16(r1)
    4090:	44 00 00 02 	sc      
    4094:	e8 01 00 10 	ld      r0,16(r1)
    4098:	7c 63 07 b4 	extsw   r3,r3
    409c:	7c 08 03 a6 	mtlr    r0
    40a0:	4e 80 00 20 	blr
    40a4:	39 60 00 70 	li      r11,112
    40a8:	7c 08 02 a6 	mflr    r0
    40ac:	f8 01 00 10 	std     r0,16(r1)
    40b0:	44 00 00 02 	sc      
    40b4:	e8 01 00 10 	ld      r0,16(r1)
    40b8:	7c 63 07 b4 	extsw   r3,r3
    40bc:	7c 08 03 a6 	mtlr    r0
    40c0:	4e 80 00 20 	blr
    40c4:	39 60 00 71 	li      r11,113
    40c8:	7c 08 02 a6 	mflr    r0
    40cc:	f8 01 00 10 	std     r0,16(r1)
    40d0:	44 00 00 02 	sc      
    40d4:	e8 01 00 10 	ld      r0,16(r1)
    40d8:	7c 63 07 b4 	extsw   r3,r3
    40dc:	7c 08 03 a6 	mtlr    r0
    40e0:	4e 80 00 20 	blr
    40e4:	39 60 00 73 	li      r11,115
    40e8:	7c 08 02 a6 	mflr    r0
    40ec:	f8 01 00 10 	std     r0,16(r1)
    40f0:	44 00 00 02 	sc      
    40f4:	e8 01 00 10 	ld      r0,16(r1)
    40f8:	7c 63 07 b4 	extsw   r3,r3
    40fc:	7c 08 03 a6 	mtlr    r0
    4100:	4e 80 00 20 	blr
    4104:	39 60 00 74 	li      r11,116
    4108:	7c 08 02 a6 	mflr    r0
    410c:	f8 01 00 10 	std     r0,16(r1)
    4110:	44 00 00 02 	sc      
    4114:	e8 01 00 10 	ld      r0,16(r1)
    4118:	7c 63 07 b4 	extsw   r3,r3
    411c:	7c 08 03 a6 	mtlr    r0
    4120:	4e 80 00 20 	blr

Disassembly of section :

0000000000004124 <>:
    4124:	39 80 00 00 	li      r12,0
    4128:	65 8c 00 02 	oris    r12,r12,2
    412c:	81 8c 17 44 	lwz     r12,5956(r12)
    4130:	f8 41 00 28 	std     r2,40(r1)
    4134:	80 0c 00 00 	lwz     r0,0(r12)
    4138:	80 4c 00 04 	lwz     r2,4(r12)
    413c:	7c 09 03 a6 	mtctr   r0
    4140:	4e 80 04 20 	bctr
    4144:	39 80 00 00 	li      r12,0
    4148:	65 8c 00 02 	oris    r12,r12,2
    414c:	81 8c 17 48 	lwz     r12,5960(r12)
    4150:	f8 41 00 28 	std     r2,40(r1)
    4154:	80 0c 00 00 	lwz     r0,0(r12)
    4158:	80 4c 00 04 	lwz     r2,4(r12)
    415c:	7c 09 03 a6 	mtctr   r0
    4160:	4e 80 04 20 	bctr
    4164:	39 80 00 00 	li      r12,0
    4168:	65 8c 00 02 	oris    r12,r12,2
    416c:	81 8c 17 4c 	lwz     r12,5964(r12)
    4170:	f8 41 00 28 	std     r2,40(r1)
    4174:	80 0c 00 00 	lwz     r0,0(r12)
    4178:	80 4c 00 04 	lwz     r2,4(r12)
    417c:	7c 09 03 a6 	mtctr   r0
    4180:	4e 80 04 20 	bctr
    4184:	39 80 00 00 	li      r12,0
    4188:	65 8c 00 02 	oris    r12,r12,2
    418c:	81 8c 17 50 	lwz     r12,5968(r12)
    4190:	f8 41 00 28 	std     r2,40(r1)
    4194:	80 0c 00 00 	lwz     r0,0(r12)
    4198:	80 4c 00 04 	lwz     r2,4(r12)
    419c:	7c 09 03 a6 	mtctr   r0
    41a0:	4e 80 04 20 	bctr
    41a4:	39 80 00 00 	li      r12,0
    41a8:	65 8c 00 02 	oris    r12,r12,2
    41ac:	81 8c 17 54 	lwz     r12,5972(r12)
    41b0:	f8 41 00 28 	std     r2,40(r1)
    41b4:	80 0c 00 00 	lwz     r0,0(r12)
    41b8:	80 4c 00 04 	lwz     r2,4(r12)
    41bc:	7c 09 03 a6 	mtctr   r0
    41c0:	4e 80 04 20 	bctr
    41c4:	39 80 00 00 	li      r12,0
    41c8:	65 8c 00 02 	oris    r12,r12,2
    41cc:	81 8c 17 00 	lwz     r12,5888(r12)
    41d0:	f8 41 00 28 	std     r2,40(r1)
    41d4:	80 0c 00 00 	lwz     r0,0(r12)
    41d8:	80 4c 00 04 	lwz     r2,4(r12)
    41dc:	7c 09 03 a6 	mtctr   r0
    41e0:	4e 80 04 20 	bctr
    41e4:	39 80 00 00 	li      r12,0
    41e8:	65 8c 00 02 	oris    r12,r12,2
    41ec:	81 8c 17 04 	lwz     r12,5892(r12)
    41f0:	f8 41 00 28 	std     r2,40(r1)
    41f4:	80 0c 00 00 	lwz     r0,0(r12)
    41f8:	80 4c 00 04 	lwz     r2,4(r12)
    41fc:	7c 09 03 a6 	mtctr   r0
    4200:	4e 80 04 20 	bctr
    4204:	39 80 00 00 	li      r12,0
    4208:	65 8c 00 02 	oris    r12,r12,2
    420c:	81 8c 17 08 	lwz     r12,5896(r12)
    4210:	f8 41 00 28 	std     r2,40(r1)
    4214:	80 0c 00 00 	lwz     r0,0(r12)
    4218:	80 4c 00 04 	lwz     r2,4(r12)
    421c:	7c 09 03 a6 	mtctr   r0
    4220:	4e 80 04 20 	bctr
    4224:	39 80 00 00 	li      r12,0
    4228:	65 8c 00 02 	oris    r12,r12,2
    422c:	81 8c 17 0c 	lwz     r12,5900(r12)
    4230:	f8 41 00 28 	std     r2,40(r1)
    4234:	80 0c 00 00 	lwz     r0,0(r12)
    4238:	80 4c 00 04 	lwz     r2,4(r12)
    423c:	7c 09 03 a6 	mtctr   r0
    4240:	4e 80 04 20 	bctr
    4244:	39 80 00 00 	li      r12,0
    4248:	65 8c 00 02 	oris    r12,r12,2
    424c:	81 8c 17 10 	lwz     r12,5904(r12)
    4250:	f8 41 00 28 	std     r2,40(r1)
    4254:	80 0c 00 00 	lwz     r0,0(r12)
    4258:	80 4c 00 04 	lwz     r2,4(r12)
    425c:	7c 09 03 a6 	mtctr   r0
    4260:	4e 80 04 20 	bctr
    4264:	39 80 00 00 	li      r12,0
    4268:	65 8c 00 02 	oris    r12,r12,2
    426c:	81 8c 17 14 	lwz     r12,5908(r12)
    4270:	f8 41 00 28 	std     r2,40(r1)
    4274:	80 0c 00 00 	lwz     r0,0(r12)
    4278:	80 4c 00 04 	lwz     r2,4(r12)
    427c:	7c 09 03 a6 	mtctr   r0
    4280:	4e 80 04 20 	bctr
    4284:	39 80 00 00 	li      r12,0
    4288:	65 8c 00 02 	oris    r12,r12,2
    428c:	81 8c 17 18 	lwz     r12,5912(r12)
    4290:	f8 41 00 28 	std     r2,40(r1)
    4294:	80 0c 00 00 	lwz     r0,0(r12)
    4298:	80 4c 00 04 	lwz     r2,4(r12)
    429c:	7c 09 03 a6 	mtctr   r0
    42a0:	4e 80 04 20 	bctr
    42a4:	39 80 00 00 	li      r12,0
    42a8:	65 8c 00 02 	oris    r12,r12,2
    42ac:	81 8c 17 1c 	lwz     r12,5916(r12)
    42b0:	f8 41 00 28 	std     r2,40(r1)
    42b4:	80 0c 00 00 	lwz     r0,0(r12)
    42b8:	80 4c 00 04 	lwz     r2,4(r12)
    42bc:	7c 09 03 a6 	mtctr   r0
    42c0:	4e 80 04 20 	bctr
    42c4:	39 80 00 00 	li      r12,0
    42c8:	65 8c 00 02 	oris    r12,r12,2
    42cc:	81 8c 17 20 	lwz     r12,5920(r12)
    42d0:	f8 41 00 28 	std     r2,40(r1)
    42d4:	80 0c 00 00 	lwz     r0,0(r12)
    42d8:	80 4c 00 04 	lwz     r2,4(r12)
    42dc:	7c 09 03 a6 	mtctr   r0
    42e0:	4e 80 04 20 	bctr
    42e4:	39 80 00 00 	li      r12,0
    42e8:	65 8c 00 02 	oris    r12,r12,2
    42ec:	81 8c 17 24 	lwz     r12,5924(r12)
    42f0:	f8 41 00 28 	std     r2,40(r1)
    42f4:	80 0c 00 00 	lwz     r0,0(r12)
    42f8:	80 4c 00 04 	lwz     r2,4(r12)
    42fc:	7c 09 03 a6 	mtctr   r0
    4300:	4e 80 04 20 	bctr
    4304:	39 80 00 00 	li      r12,0
    4308:	65 8c 00 02 	oris    r12,r12,2
    430c:	81 8c 17 28 	lwz     r12,5928(r12)
    4310:	f8 41 00 28 	std     r2,40(r1)
    4314:	80 0c 00 00 	lwz     r0,0(r12)
    4318:	80 4c 00 04 	lwz     r2,4(r12)
    431c:	7c 09 03 a6 	mtctr   r0
    4320:	4e 80 04 20 	bctr
    4324:	39 80 00 00 	li      r12,0
    4328:	65 8c 00 02 	oris    r12,r12,2
    432c:	81 8c 17 2c 	lwz     r12,5932(r12)
    4330:	f8 41 00 28 	std     r2,40(r1)
    4334:	80 0c 00 00 	lwz     r0,0(r12)
    4338:	80 4c 00 04 	lwz     r2,4(r12)
    433c:	7c 09 03 a6 	mtctr   r0
    4340:	4e 80 04 20 	bctr
    4344:	39 80 00 00 	li      r12,0
    4348:	65 8c 00 02 	oris    r12,r12,2
    434c:	81 8c 17 30 	lwz     r12,5936(r12)
    4350:	f8 41 00 28 	std     r2,40(r1)
    4354:	80 0c 00 00 	lwz     r0,0(r12)
    4358:	80 4c 00 04 	lwz     r2,4(r12)
    435c:	7c 09 03 a6 	mtctr   r0
    4360:	4e 80 04 20 	bctr
    4364:	39 80 00 00 	li      r12,0
    4368:	65 8c 00 02 	oris    r12,r12,2
    436c:	81 8c 17 34 	lwz     r12,5940(r12)
    4370:	f8 41 00 28 	std     r2,40(r1)
    4374:	80 0c 00 00 	lwz     r0,0(r12)
    4378:	80 4c 00 04 	lwz     r2,4(r12)
    437c:	7c 09 03 a6 	mtctr   r0
    4380:	4e 80 04 20 	bctr
    4384:	39 80 00 00 	li      r12,0
    4388:	65 8c 00 02 	oris    r12,r12,2
    438c:	81 8c 17 38 	lwz     r12,5944(r12)
    4390:	f8 41 00 28 	std     r2,40(r1)
    4394:	80 0c 00 00 	lwz     r0,0(r12)
    4398:	80 4c 00 04 	lwz     r2,4(r12)
    439c:	7c 09 03 a6 	mtctr   r0
    43a0:	4e 80 04 20 	bctr
    43a4:	39 80 00 00 	li      r12,0
    43a8:	65 8c 00 02 	oris    r12,r12,2
    43ac:	81 8c 17 3c 	lwz     r12,5948(r12)
    43b0:	f8 41 00 28 	std     r2,40(r1)
    43b4:	80 0c 00 00 	lwz     r0,0(r12)
    43b8:	80 4c 00 04 	lwz     r2,4(r12)
    43bc:	7c 09 03 a6 	mtctr   r0
    43c0:	4e 80 04 20 	bctr
    43c4:	39 80 00 00 	li      r12,0
    43c8:	65 8c 00 02 	oris    r12,r12,2
    43cc:	81 8c 17 40 	lwz     r12,5952(r12)
    43d0:	f8 41 00 28 	std     r2,40(r1)
    43d4:	80 0c 00 00 	lwz     r0,0(r12)
    43d8:	80 4c 00 04 	lwz     r2,4(r12)
    43dc:	7c 09 03 a6 	mtctr   r0
    43e0:	4e 80 04 20 	bctr
