
./update_files/dev_flash/sys/external/libadec2.sprx.elf:     file format elf64-powerpc


Disassembly of section :

0000000000000000 <>:
       0:	f8 21 ff c1 	stdu    r1,-64(r1)
       4:	fb e1 00 38 	std     r31,56(r1)
       8:	7c 3f 0b 78 	mr      r31,r1
       c:	38 00 00 00 	li      r0,0
      10:	7c 00 07 b4 	extsw   r0,r0
      14:	7c 03 03 78 	mr      r3,r0
      18:	e9 61 00 00 	ld      r11,0(r1)
      1c:	eb eb ff f8 	ld      r31,-8(r11)
      20:	7d 61 5b 78 	mr      r1,r11
      24:	4e 80 00 20 	blr
      28:	f8 21 ff c1 	stdu    r1,-64(r1)
      2c:	fb e1 00 38 	std     r31,56(r1)
      30:	7c 3f 0b 78 	mr      r31,r1
      34:	38 00 00 00 	li      r0,0
      38:	7c 00 07 b4 	extsw   r0,r0
      3c:	7c 03 03 78 	mr      r3,r0
      40:	e9 61 00 00 	ld      r11,0(r1)
      44:	eb eb ff f8 	ld      r31,-8(r11)
      48:	7d 61 5b 78 	mr      r1,r11
      4c:	4e 80 00 20 	blr
      50:	39 20 00 00 	li      r9,0
      54:	7c 08 02 a6 	mflr    r0
      58:	39 00 00 00 	li      r8,0
      5c:	81 62 80 00 	lwz     r11,-32768(r2)
      60:	f8 01 00 10 	std     r0,16(r1)
      64:	38 00 00 02 	li      r0,2
      68:	99 23 05 50 	stb     r9,1360(r3)
      6c:	90 03 05 30 	stw     r0,1328(r3)
      70:	38 00 00 20 	li      r0,32
      74:	39 20 02 00 	li      r9,512
      78:	90 03 05 34 	stw     r0,1332(r3)
      7c:	38 00 20 00 	li      r0,8192
      80:	91 23 05 38 	stw     r9,1336(r3)
      84:	90 03 05 3c 	stw     r0,1340(r3)
      88:	91 03 05 48 	stw     r8,1352(r3)
      8c:	f9 03 05 40 	std     r8,1344(r3)
      90:	39 23 05 50 	addi    r9,r3,1360
      94:	e8 0b 00 00 	ld      r0,0(r11)
      98:	f8 09 00 00 	std     r0,0(r9)
      9c:	38 00 00 00 	li      r0,0
      a0:	39 09 00 07 	addi    r8,r9,7
      a4:	98 08 00 00 	stb     r0,0(r8)
      a8:	38 83 05 30 	addi    r4,r3,1328
      ac:	39 43 05 58 	addi    r10,r3,1368
      b0:	78 84 00 20 	clrldi  r4,r4,32
      b4:	79 43 00 20 	clrldi  r3,r10,32
      b8:	39 60 00 64 	li      r11,100
      bc:	44 00 00 02 	sc      
      c0:	e8 01 00 10 	ld      r0,16(r1)
      c4:	7c 63 07 b4 	extsw   r3,r3
      c8:	7c 08 03 a6 	mtlr    r0
      cc:	4e 80 00 20 	blr
      d0:	39 60 00 65 	li      r11,101
      d4:	7c 08 02 a6 	mflr    r0
      d8:	f8 01 00 10 	std     r0,16(r1)
      dc:	80 63 05 58 	lwz     r3,1368(r3)
      e0:	44 00 00 02 	sc      
      e4:	e8 01 00 10 	ld      r0,16(r1)
      e8:	7c 63 07 b4 	extsw   r3,r3
      ec:	7c 08 03 a6 	mtlr    r0
      f0:	4e 80 00 20 	blr
      f4:	7c 69 1b 78 	mr      r9,r3
      f8:	7c 08 02 a6 	mflr    r0
      fc:	f8 21 ff 91 	stdu    r1,-112(r1)
     100:	f8 01 00 80 	std     r0,128(r1)
     104:	3d 60 80 61 	lis     r11,-32671
     108:	38 80 00 03 	li      r4,3
     10c:	80 09 00 28 	lwz     r0,40(r9)
     110:	38 a0 00 00 	li      r5,0
     114:	78 63 00 20 	clrldi  r3,r3,32
     118:	80 c9 00 2c 	lwz     r6,44(r9)
     11c:	2f 80 00 00 	cmpwi   cr7,r0,0
     120:	78 0a 00 20 	clrldi  r10,r0,32
     124:	61 6b 00 01 	ori     r11,r11,1
     128:	41 9e 00 24 	beq-    cr7,0x14c
     12c:	80 0a 00 00 	lwz     r0,0(r10)
     130:	78 c6 00 20 	clrldi  r6,r6,32
     134:	f8 41 00 28 	std     r2,40(r1)
     138:	7c 09 03 a6 	mtctr   r0
     13c:	80 4a 00 04 	lwz     r2,4(r10)
     140:	4e 80 04 21 	bctrl
     144:	e8 41 00 28 	ld      r2,40(r1)
     148:	39 60 00 00 	li      r11,0
     14c:	e8 01 00 80 	ld      r0,128(r1)
     150:	7d 63 07 b4 	extsw   r3,r11
     154:	38 21 00 70 	addi    r1,r1,112
     158:	7c 08 03 a6 	mtlr    r0
     15c:	4e 80 00 20 	blr
     160:	7c 89 23 78 	mr      r9,r4
     164:	7c 08 02 a6 	mflr    r0
     168:	f8 21 ff 91 	stdu    r1,-112(r1)
     16c:	f8 01 00 80 	std     r0,128(r1)
     170:	7c 65 1b 78 	mr      r5,r3
     174:	38 80 00 02 	li      r4,2
     178:	80 09 00 28 	lwz     r0,40(r9)
     17c:	79 23 00 20 	clrldi  r3,r9,32
     180:	80 c9 00 2c 	lwz     r6,44(r9)
     184:	7c a5 07 b4 	extsw   r5,r5
     188:	2f 80 00 00 	cmpwi   cr7,r0,0
     18c:	78 0b 00 20 	clrldi  r11,r0,32
     190:	78 c6 00 20 	clrldi  r6,r6,32
     194:	41 9e 00 1c 	beq-    cr7,0x1b0
     198:	80 0b 00 00 	lwz     r0,0(r11)
     19c:	f8 41 00 28 	std     r2,40(r1)
     1a0:	7c 09 03 a6 	mtctr   r0
     1a4:	80 4b 00 04 	lwz     r2,4(r11)
     1a8:	4e 80 04 21 	bctrl
     1ac:	e8 41 00 28 	ld      r2,40(r1)
     1b0:	e8 01 00 80 	ld      r0,128(r1)
     1b4:	38 60 00 00 	li      r3,0
     1b8:	38 21 00 70 	addi    r1,r1,112
     1bc:	7c 08 03 a6 	mtlr    r0
     1c0:	4e 80 00 20 	blr
     1c4:	2c 23 00 00 	cmpdi   r3,0
     1c8:	7c 08 02 a6 	mflr    r0
     1cc:	f8 21 ff 61 	stdu    r1,-160(r1)
     1d0:	fb c1 00 90 	std     r30,144(r1)
     1d4:	fb e1 00 98 	std     r31,152(r1)
     1d8:	fb 81 00 80 	std     r28,128(r1)
     1dc:	fb a1 00 88 	std     r29,136(r1)
     1e0:	f8 01 00 b0 	std     r0,176(r1)
     1e4:	7c 7e 1b 78 	mr      r30,r3
     1e8:	7c 9f 23 78 	mr      r31,r4
     1ec:	3d 20 80 61 	lis     r9,-32671
     1f0:	40 82 00 2c 	bne-    0x21c
     1f4:	61 29 00 03 	ori     r9,r9,3
     1f8:	e8 01 00 b0 	ld      r0,176(r1)
     1fc:	7d 23 07 b4 	extsw   r3,r9
     200:	eb 81 00 80 	ld      r28,128(r1)
     204:	eb a1 00 88 	ld      r29,136(r1)
     208:	7c 08 03 a6 	mtlr    r0
     20c:	eb c1 00 90 	ld      r30,144(r1)
     210:	eb e1 00 98 	ld      r31,152(r1)
     214:	38 21 00 a0 	addi    r1,r1,160
     218:	4e 80 00 20 	blr
     21c:	2f 84 00 00 	cmpwi   cr7,r4,0
     220:	41 9e ff d4 	beq+    cr7,0x1f4
     224:	81 7e 00 00 	lwz     r11,0(r30)
     228:	38 00 00 01 	li      r0,1
     22c:	39 40 00 00 	li      r10,0
     230:	7c 00 58 36 	sld     r0,r0,r11
     234:	61 4a e0 0e 	ori     r10,r10,57358
     238:	2b 8b 00 0f 	cmplwi  cr7,r11,15
     23c:	7c 00 50 38 	and     r0,r0,r10
     240:	2f 20 00 00 	cmpdi   cr6,r0,0
     244:	41 9d ff b0 	bgt+    cr7,0x1f4
     248:	55 60 10 3a 	rlwinm  r0,r11,2,0,29
     24c:	78 83 00 20 	clrldi  r3,r4,32
     250:	7c 00 07 b4 	extsw   r0,r0
     254:	41 9a ff a0 	beq+    cr6,0x1f4
     258:	83 a2 80 04 	lwz     r29,-32764(r2)
     25c:	7d 3d 00 2e 	lwzx    r9,r29,r0
     260:	81 69 00 00 	lwz     r11,0(r9)
     264:	80 0b 00 00 	lwz     r0,0(r11)
     268:	f8 41 00 28 	std     r2,40(r1)
     26c:	7c 09 03 a6 	mtctr   r0
     270:	80 4b 00 04 	lwz     r2,4(r11)
     274:	4e 80 04 21 	bctrl
     278:	e8 41 00 28 	ld      r2,40(r1)
     27c:	80 1e 00 00 	lwz     r0,0(r30)
     280:	54 00 10 3a 	rlwinm  r0,r0,2,0,29
     284:	7c 00 07 b4 	extsw   r0,r0
     288:	7d 3d 00 2e 	lwzx    r9,r29,r0
     28c:	81 69 00 24 	lwz     r11,36(r9)
     290:	80 0b 00 00 	lwz     r0,0(r11)
     294:	f8 41 00 28 	std     r2,40(r1)
     298:	7c 09 03 a6 	mtctr   r0
     29c:	80 4b 00 04 	lwz     r2,4(r11)
     2a0:	4e 80 04 21 	bctrl
     2a4:	e8 41 00 28 	ld      r2,40(r1)
     2a8:	80 1e 00 00 	lwz     r0,0(r30)
     2ac:	7c 7c 1b 78 	mr      r28,r3
     2b0:	54 00 10 3a 	rlwinm  r0,r0,2,0,29
     2b4:	7c 00 07 b4 	extsw   r0,r0
     2b8:	7d 3d 00 2e 	lwzx    r9,r29,r0
     2bc:	81 49 00 28 	lwz     r10,40(r9)
     2c0:	80 0a 00 00 	lwz     r0,0(r10)
     2c4:	f8 41 00 28 	std     r2,40(r1)
     2c8:	7c 09 03 a6 	mtctr   r0
     2cc:	80 4a 00 04 	lwz     r2,4(r10)
     2d0:	4e 80 04 21 	bctrl
     2d4:	e8 41 00 28 	ld      r2,40(r1)
     2d8:	81 3f 00 00 	lwz     r9,0(r31)
     2dc:	39 63 00 68 	addi    r11,r3,104
     2e0:	3c 00 00 35 	lis     r0,53
     2e4:	38 61 00 70 	addi    r3,r1,112
     2e8:	60 00 50 00 	ori     r0,r0,20480
     2ec:	7d 6b e1 d6 	mullw   r11,r11,r28
     2f0:	7d 29 5a 14 	add     r9,r9,r11
     2f4:	90 1f 00 04 	stw     r0,4(r31)
     2f8:	39 29 05 df 	addi    r9,r9,1503
     2fc:	91 3f 00 00 	stw     r9,0(r31)
     300:	80 1e 00 00 	lwz     r0,0(r30)
     304:	54 00 10 3a 	rlwinm  r0,r0,2,0,29
     308:	7c 00 07 b4 	extsw   r0,r0
     30c:	7d 3d 00 2e 	lwzx    r9,r29,r0
     310:	81 69 00 18 	lwz     r11,24(r9)
     314:	80 0b 00 00 	lwz     r0,0(r11)
     318:	f8 41 00 28 	std     r2,40(r1)
     31c:	7c 09 03 a6 	mtctr   r0
     320:	80 4b 00 04 	lwz     r2,4(r11)
     324:	4e 80 04 21 	bctrl
     328:	e8 41 00 28 	ld      r2,40(r1)
     32c:	88 01 00 70 	lbz     r0,112(r1)
     330:	89 21 00 71 	lbz     r9,113(r1)
     334:	54 00 c0 0e 	rlwinm  r0,r0,24,0,7
     338:	89 61 00 72 	lbz     r11,114(r1)
     33c:	55 29 80 1e 	rlwinm  r9,r9,16,0,15
     340:	89 41 00 73 	lbz     r10,115(r1)
     344:	55 6b 40 2e 	rlwinm  r11,r11,8,0,23
     348:	7c 00 4b 78 	or      r0,r0,r9
     34c:	39 20 00 00 	li      r9,0
     350:	7c 00 53 78 	or      r0,r0,r10
     354:	7d 6b 03 78 	or      r11,r11,r0
     358:	91 7f 00 08 	stw     r11,8(r31)
     35c:	4b ff fe 9c 	b       0x1f8
     360:	2f 83 00 00 	cmpwi   cr7,r3,0
     364:	7c 08 02 a6 	mflr    r0
     368:	3d 20 80 61 	lis     r9,-32671
     36c:	f8 21 ff 91 	stdu    r1,-112(r1)
     370:	f8 01 00 80 	std     r0,128(r1)
     374:	61 29 00 03 	ori     r9,r9,3
     378:	40 9e 00 18 	bne-    cr7,0x390
     37c:	e8 01 00 80 	ld      r0,128(r1)
     380:	7d 23 07 b4 	extsw   r3,r9
     384:	38 21 00 70 	addi    r1,r1,112
     388:	7c 08 03 a6 	mtlr    r0
     38c:	4e 80 00 20 	blr
     390:	81 63 00 00 	lwz     r11,0(r3)
     394:	7f 8b 18 00 	cmpw    cr7,r11,r3
     398:	40 fe ff e4 	bne-    cr7,0x37c
     39c:	80 0b 00 0c 	lwz     r0,12(r11)
     3a0:	3d 20 80 61 	lis     r9,-32671
     3a4:	2f 80 02 00 	cmpwi   cr7,r0,512
     3a8:	61 29 00 02 	ori     r9,r9,2
     3ac:	40 9e ff d0 	bne+    cr7,0x37c
     3b0:	81 2b 00 34 	lwz     r9,52(r11)
     3b4:	80 6b 00 30 	lwz     r3,48(r11)
     3b8:	81 69 00 10 	lwz     r11,16(r9)
     3bc:	80 0b 00 00 	lwz     r0,0(r11)
     3c0:	f8 41 00 28 	std     r2,40(r1)
     3c4:	7c 09 03 a6 	mtctr   r0
     3c8:	80 4b 00 04 	lwz     r2,4(r11)
     3cc:	4e 80 04 21 	bctrl
     3d0:	e8 41 00 28 	ld      r2,40(r1)
     3d4:	7c 69 1b 78 	mr      r9,r3
     3d8:	4b ff ff a4 	b       0x37c
     3dc:	f8 21 ff 71 	stdu    r1,-144(r1)
     3e0:	7c 08 02 a6 	mflr    r0
     3e4:	fb a1 00 78 	std     r29,120(r1)
     3e8:	f8 01 00 a0 	std     r0,160(r1)
     3ec:	81 23 00 34 	lwz     r9,52(r3)
     3f0:	78 7d 00 20 	clrldi  r29,r3,32
     3f4:	fb c1 00 80 	std     r30,128(r1)
     3f8:	fb e1 00 88 	std     r31,136(r1)
     3fc:	7c 7f 1b 78 	mr      r31,r3
     400:	80 63 00 30 	lwz     r3,48(r3)
     404:	7c 9e 23 78 	mr      r30,r4
     408:	81 69 00 30 	lwz     r11,48(r9)
     40c:	80 0b 00 00 	lwz     r0,0(r11)
     410:	f8 41 00 28 	std     r2,40(r1)
     414:	7c 09 03 a6 	mtctr   r0
     418:	80 4b 00 04 	lwz     r2,4(r11)
     41c:	4e 80 04 21 	bctrl
     420:	e8 41 00 28 	ld      r2,40(r1)
     424:	7f a3 eb 78 	mr      r3,r29
     428:	48 00 0e 81 	bl      0x12a8
     42c:	60 00 00 00 	nop
     430:	3c 00 80 61 	lis     r0,-32671
     434:	60 00 00 04 	ori     r0,r0,4
     438:	7f 83 00 00 	cmpw    cr7,r3,r0
     43c:	7f a3 eb 78 	mr      r3,r29
     440:	40 9e 00 0c 	bne-    cr7,0x44c
     444:	38 00 00 01 	li      r0,1
     448:	98 1e 00 00 	stb     r0,0(r30)
     44c:	48 00 0e 55 	bl      0x12a0
     450:	60 00 00 00 	nop
     454:	38 7f 00 84 	addi    r3,r31,132
     458:	78 63 00 20 	clrldi  r3,r3,32
     45c:	48 00 40 5d 	bl      0x44b8
     460:	60 00 00 00 	nop
     464:	38 7f 00 d8 	addi    r3,r31,216
     468:	78 63 00 20 	clrldi  r3,r3,32
     46c:	48 00 40 4d 	bl      0x44b8
     470:	60 00 00 00 	nop
     474:	e8 01 00 a0 	ld      r0,160(r1)
     478:	eb a1 00 78 	ld      r29,120(r1)
     47c:	38 60 00 00 	li      r3,0
     480:	eb c1 00 80 	ld      r30,128(r1)
     484:	eb e1 00 88 	ld      r31,136(r1)
     488:	7c 08 03 a6 	mtlr    r0
     48c:	38 21 00 90 	addi    r1,r1,144
     490:	4e 80 00 20 	blr
     494:	2f 83 00 00 	cmpwi   cr7,r3,0
     498:	7c 08 02 a6 	mflr    r0
     49c:	3d 20 80 61 	lis     r9,-32671
     4a0:	f8 21 ff 81 	stdu    r1,-128(r1)
     4a4:	fb e1 00 78 	std     r31,120(r1)
     4a8:	f8 01 00 90 	std     r0,144(r1)
     4ac:	7c 9f 23 78 	mr      r31,r4
     4b0:	61 29 00 03 	ori     r9,r9,3
     4b4:	2f 04 00 00 	cmpwi   cr6,r4,0
     4b8:	40 9e 00 1c 	bne-    cr7,0x4d4
     4bc:	e8 01 00 90 	ld      r0,144(r1)
     4c0:	7d 23 07 b4 	extsw   r3,r9
     4c4:	eb e1 00 78 	ld      r31,120(r1)
     4c8:	38 21 00 80 	addi    r1,r1,128
     4cc:	7c 08 03 a6 	mtlr    r0
     4d0:	4e 80 00 20 	blr
     4d4:	38 63 00 d8 	addi    r3,r3,216
     4d8:	3d 20 80 61 	lis     r9,-32671
     4dc:	78 63 00 20 	clrldi  r3,r3,32
     4e0:	61 29 00 01 	ori     r9,r9,1
     4e4:	41 9a ff d8 	beq+    cr6,0x4bc
     4e8:	48 00 43 11 	bl      0x47f8
     4ec:	60 00 00 00 	nop
     4f0:	3d 20 80 61 	lis     r9,-32671
     4f4:	2f 83 00 00 	cmpwi   cr7,r3,0
     4f8:	61 29 00 05 	ori     r9,r9,5
     4fc:	41 9e ff c0 	beq+    cr7,0x4bc
     500:	80 03 00 08 	lwz     r0,8(r3)
     504:	39 20 00 00 	li      r9,0
     508:	90 1f 00 00 	stw     r0,0(r31)
     50c:	4b ff ff b0 	b       0x4bc
     510:	f8 21 ff 51 	stdu    r1,-176(r1)
     514:	7c 08 02 a6 	mflr    r0
     518:	2c 23 00 00 	cmpdi   r3,0
     51c:	f8 01 00 c0 	std     r0,192(r1)
     520:	7c 60 1b 78 	mr      r0,r3
     524:	3c 60 80 61 	lis     r3,-32671
     528:	fb 61 00 88 	std     r27,136(r1)
     52c:	fb 81 00 90 	std     r28,144(r1)
     530:	fb a1 00 98 	std     r29,152(r1)
     534:	fb c1 00 a0 	std     r30,160(r1)
     538:	fb e1 00 a8 	std     r31,168(r1)
     53c:	7c 9b 23 78 	mr      r27,r4
     540:	60 63 00 03 	ori     r3,r3,3
     544:	41 82 00 f0 	beq-    0x634
     548:	7c 1f 03 78 	mr      r31,r0
     54c:	38 81 00 74 	addi    r4,r1,116
     550:	38 1f 00 84 	addi    r0,r31,132
     554:	78 1d 00 20 	clrldi  r29,r0,32
     558:	7f a3 eb 78 	mr      r3,r29
     55c:	48 00 42 31 	bl      0x478c
     560:	60 00 00 00 	nop
     564:	38 1f 00 d8 	addi    r0,r31,216
     568:	78 1e 00 20 	clrldi  r30,r0,32
     56c:	38 81 00 78 	addi    r4,r1,120
     570:	7f c3 f3 78 	mr      r3,r30
     574:	48 00 42 19 	bl      0x478c
     578:	60 00 00 00 	nop
     57c:	81 21 00 74 	lwz     r9,116(r1)
     580:	81 61 00 78 	lwz     r11,120(r1)
     584:	81 49 00 0c 	lwz     r10,12(r9)
     588:	80 0b 00 0c 	lwz     r0,12(r11)
     58c:	7f 8a 00 00 	cmpw    cr7,r10,r0
     590:	41 9e 01 84 	beq-    cr7,0x714
     594:	7f a3 eb 78 	mr      r3,r29
     598:	48 00 42 61 	bl      0x47f8
     59c:	60 00 00 00 	nop
     5a0:	2f 83 00 00 	cmpwi   cr7,r3,0
     5a4:	7c 69 1b 78 	mr      r9,r3
     5a8:	41 9e 01 9c 	beq-    cr7,0x744
     5ac:	83 a3 00 08 	lwz     r29,8(r3)
     5b0:	7b fc 00 20 	clrldi  r28,r31,32
     5b4:	38 a1 00 70 	addi    r5,r1,112
     5b8:	7f 83 e3 78 	mr      r3,r28
     5bc:	91 21 00 74 	stw     r9,116(r1)
     5c0:	80 9d 00 00 	lwz     r4,0(r29)
     5c4:	48 00 12 a9 	bl      0x186c
     5c8:	60 00 00 00 	nop
     5cc:	2f 83 00 00 	cmpwi   cr7,r3,0
     5d0:	40 9e 00 64 	bne-    cr7,0x634
     5d4:	80 1f 00 10 	lwz     r0,16(r31)
     5d8:	2f 80 00 11 	cmpwi   cr7,r0,17
     5dc:	41 9e 00 80 	beq-    cr7,0x65c
     5e0:	2f 80 00 0c 	cmpwi   cr7,r0,12
     5e4:	41 9e 00 78 	beq-    cr7,0x65c
     5e8:	2f 80 00 01 	cmpwi   cr7,r0,1
     5ec:	41 9e 00 70 	beq-    cr7,0x65c
     5f0:	81 5f 00 34 	lwz     r10,52(r31)
     5f4:	7b 7e 00 20 	clrldi  r30,r27,32
     5f8:	81 01 00 74 	lwz     r8,116(r1)
     5fc:	80 7f 00 30 	lwz     r3,48(r31)
     600:	7f c4 f3 78 	mr      r4,r30
     604:	78 63 00 20 	clrldi  r3,r3,32
     608:	81 6a 00 1c 	lwz     r11,28(r10)
     60c:	81 28 00 08 	lwz     r9,8(r8)
     610:	80 0b 00 00 	lwz     r0,0(r11)
     614:	80 a9 00 08 	lwz     r5,8(r9)
     618:	f8 41 00 28 	std     r2,40(r1)
     61c:	7c 09 03 a6 	mtctr   r0
     620:	80 4b 00 04 	lwz     r2,4(r11)
     624:	4e 80 04 21 	bctrl
     628:	e8 41 00 28 	ld      r2,40(r1)
     62c:	2f 83 00 00 	cmpwi   cr7,r3,0
     630:	41 9e 00 7c 	beq-    cr7,0x6ac
     634:	e8 01 00 c0 	ld      r0,192(r1)
     638:	7c 63 07 b4 	extsw   r3,r3
     63c:	eb 61 00 88 	ld      r27,136(r1)
     640:	eb 81 00 90 	ld      r28,144(r1)
     644:	7c 08 03 a6 	mtlr    r0
     648:	eb a1 00 98 	ld      r29,152(r1)
     64c:	eb c1 00 a0 	ld      r30,160(r1)
     650:	eb e1 00 a8 	ld      r31,168(r1)
     654:	38 21 00 b0 	addi    r1,r1,176
     658:	4e 80 00 20 	blr
     65c:	80 7f 00 30 	lwz     r3,48(r31)
     660:	7b 7e 00 20 	clrldi  r30,r27,32
     664:	81 5f 00 34 	lwz     r10,52(r31)
     668:	78 69 00 20 	clrldi  r9,r3,32
     66c:	81 01 00 74 	lwz     r8,116(r1)
     670:	80 1d 00 0c 	lwz     r0,12(r29)
     674:	78 63 00 20 	clrldi  r3,r3,32
     678:	7f c4 f3 78 	mr      r4,r30
     67c:	81 6a 00 1c 	lwz     r11,28(r10)
     680:	90 09 01 88 	stw     r0,392(r9)
     684:	81 28 00 08 	lwz     r9,8(r8)
     688:	80 0b 00 00 	lwz     r0,0(r11)
     68c:	80 a9 00 08 	lwz     r5,8(r9)
     690:	7c 09 03 a6 	mtctr   r0
     694:	f8 41 00 28 	std     r2,40(r1)
     698:	80 4b 00 04 	lwz     r2,4(r11)
     69c:	4e 80 04 21 	bctrl
     6a0:	e8 41 00 28 	ld      r2,40(r1)
     6a4:	2f 83 00 00 	cmpwi   cr7,r3,0
     6a8:	40 9e ff 8c 	bne+    cr7,0x634
     6ac:	81 7f 00 34 	lwz     r11,52(r31)
     6b0:	7f c5 f3 78 	mr      r5,r30
     6b4:	80 7f 00 30 	lwz     r3,48(r31)
     6b8:	80 9d 00 00 	lwz     r4,0(r29)
     6bc:	81 2b 00 20 	lwz     r9,32(r11)
     6c0:	80 09 00 00 	lwz     r0,0(r9)
     6c4:	f8 41 00 28 	std     r2,40(r1)
     6c8:	7c 09 03 a6 	mtctr   r0
     6cc:	80 49 00 04 	lwz     r2,4(r9)
     6d0:	4e 80 04 21 	bctrl
     6d4:	e8 41 00 28 	ld      r2,40(r1)
     6d8:	2f 83 00 00 	cmpwi   cr7,r3,0
     6dc:	40 9e ff 58 	bne+    cr7,0x634
     6e0:	80 9d 00 00 	lwz     r4,0(r29)
     6e4:	7f 83 e3 78 	mr      r3,r28
     6e8:	7c 84 07 b4 	extsw   r4,r4
     6ec:	48 00 15 bd 	bl      0x1ca8
     6f0:	60 00 00 00 	nop
     6f4:	6c 60 80 61 	xoris   r0,r3,32865
     6f8:	2f 80 00 01 	cmpwi   cr7,r0,1
     6fc:	41 9e ff 38 	beq+    cr7,0x634
     700:	7f 83 e3 78 	mr      r3,r28
     704:	80 9d 00 00 	lwz     r4,0(r29)
     708:	48 00 0d 2d 	bl      0x1434
     70c:	60 00 00 00 	nop
     710:	4b ff ff 24 	b       0x634
     714:	7f c3 f3 78 	mr      r3,r30
     718:	48 00 40 e1 	bl      0x47f8
     71c:	60 00 00 00 	nop
     720:	2f 83 00 00 	cmpwi   cr7,r3,0
     724:	41 9e 00 20 	beq-    cr7,0x744
     728:	90 61 00 78 	stw     r3,120(r1)
     72c:	7f a3 eb 78 	mr      r3,r29
     730:	48 00 40 c9 	bl      0x47f8
     734:	60 00 00 00 	nop
     738:	2f 83 00 00 	cmpwi   cr7,r3,0
     73c:	7c 69 1b 78 	mr      r9,r3
     740:	40 9e fe 6c 	bne+    cr7,0x5ac
     744:	3c 60 80 61 	lis     r3,-32671
     748:	e8 01 00 c0 	ld      r0,192(r1)
     74c:	eb 61 00 88 	ld      r27,136(r1)
     750:	60 63 00 05 	ori     r3,r3,5
     754:	eb 81 00 90 	ld      r28,144(r1)
     758:	eb a1 00 98 	ld      r29,152(r1)
     75c:	7c 08 03 a6 	mtlr    r0
     760:	7c 63 07 b4 	extsw   r3,r3
     764:	eb c1 00 a0 	ld      r30,160(r1)
     768:	eb e1 00 a8 	ld      r31,168(r1)
     76c:	38 21 00 b0 	addi    r1,r1,176
     770:	4e 80 00 20 	blr
     774:	2f 83 00 00 	cmpwi   cr7,r3,0
     778:	7c 08 02 a6 	mflr    r0
     77c:	f8 21 ff 71 	stdu    r1,-144(r1)
     780:	fb e1 00 88 	std     r31,136(r1)
     784:	fb a1 00 78 	std     r29,120(r1)
     788:	fb c1 00 80 	std     r30,128(r1)
     78c:	f8 01 00 a0 	std     r0,160(r1)
     790:	7c 7f 1b 78 	mr      r31,r3
     794:	40 9e 00 2c 	bne-    cr7,0x7c0
     798:	3c 60 80 61 	lis     r3,-32671
     79c:	60 63 00 03 	ori     r3,r3,3
     7a0:	e8 01 00 a0 	ld      r0,160(r1)
     7a4:	7c 63 07 b4 	extsw   r3,r3
     7a8:	eb a1 00 78 	ld      r29,120(r1)
     7ac:	eb c1 00 80 	ld      r30,128(r1)
     7b0:	7c 08 03 a6 	mtlr    r0
     7b4:	eb e1 00 88 	ld      r31,136(r1)
     7b8:	38 21 00 90 	addi    r1,r1,144
     7bc:	4e 80 00 20 	blr
     7c0:	2f 84 00 00 	cmpwi   cr7,r4,0
     7c4:	41 9e ff d4 	beq+    cr7,0x798
     7c8:	80 04 00 04 	lwz     r0,4(r4)
     7cc:	78 9e 00 20 	clrldi  r30,r4,32
     7d0:	2f 80 00 00 	cmpwi   cr7,r0,0
     7d4:	41 9e ff c4 	beq+    cr7,0x798
     7d8:	80 03 00 0c 	lwz     r0,12(r3)
     7dc:	3c 60 80 61 	lis     r3,-32671
     7e0:	7b e9 00 20 	clrldi  r9,r31,32
     7e4:	2f 80 02 00 	cmpwi   cr7,r0,512
     7e8:	60 63 00 02 	ori     r3,r3,2
     7ec:	40 fe ff b4 	bne-    cr7,0x7a0
     7f0:	80 04 00 00 	lwz     r0,0(r4)
     7f4:	2f 80 00 00 	cmpwi   cr7,r0,0
     7f8:	41 9e ff a0 	beq+    cr7,0x798
     7fc:	7d 23 4b 78 	mr      r3,r9
     800:	7f c4 f3 78 	mr      r4,r30
     804:	48 00 0c 79 	bl      0x147c
     808:	60 00 00 00 	nop
     80c:	3c 00 80 61 	lis     r0,-32671
     810:	60 00 00 04 	ori     r0,r0,4
     814:	7c 7d 1b 78 	mr      r29,r3
     818:	7f 83 00 00 	cmpw    cr7,r3,r0
     81c:	41 9e ff 84 	beq+    cr7,0x7a0
     820:	80 1f 00 10 	lwz     r0,16(r31)
     824:	2f 80 00 0c 	cmpwi   cr7,r0,12
     828:	41 de 00 3c 	beq-    cr7,0x864
     82c:	2f 80 00 11 	cmpwi   cr7,r0,17
     830:	41 de 00 54 	beq-    cr7,0x884
     834:	81 3f 00 34 	lwz     r9,52(r31)
     838:	7b a4 00 20 	clrldi  r4,r29,32
     83c:	80 7f 00 30 	lwz     r3,48(r31)
     840:	7f c5 f3 78 	mr      r5,r30
     844:	81 69 00 14 	lwz     r11,20(r9)
     848:	80 0b 00 00 	lwz     r0,0(r11)
     84c:	f8 41 00 28 	std     r2,40(r1)
     850:	7c 09 03 a6 	mtctr   r0
     854:	80 4b 00 04 	lwz     r2,4(r11)
     858:	4e 80 04 21 	bctrl
     85c:	e8 41 00 28 	ld      r2,40(r1)
     860:	4b ff ff 40 	b       0x7a0
     864:	80 7f 00 30 	lwz     r3,48(r31)
     868:	7f c4 f3 78 	mr      r4,r30
     86c:	48 00 19 cd 	bl      0x2238
     870:	60 00 00 00 	nop
     874:	2f 83 00 00 	cmpwi   cr7,r3,0
     878:	40 9e 00 24 	bne-    cr7,0x89c
     87c:	80 1f 00 10 	lwz     r0,16(r31)
     880:	4b ff ff ac 	b       0x82c
     884:	80 7f 00 30 	lwz     r3,48(r31)
     888:	7f c4 f3 78 	mr      r4,r30
     88c:	48 00 1a dd 	bl      0x2368
     890:	60 00 00 00 	nop
     894:	2f 83 00 00 	cmpwi   cr7,r3,0
     898:	41 9e ff 9c 	beq+    cr7,0x834
     89c:	3c 60 80 61 	lis     r3,-32671
     8a0:	60 63 00 01 	ori     r3,r3,1
     8a4:	4b ff fe fc 	b       0x7a0
     8a8:	f8 21 ff 71 	stdu    r1,-144(r1)
     8ac:	7c 08 02 a6 	mflr    r0
     8b0:	2c 23 00 00 	cmpdi   r3,0
     8b4:	fb e1 00 88 	std     r31,136(r1)
     8b8:	3f e0 80 61 	lis     r31,-32671
     8bc:	fb 81 00 70 	std     r28,112(r1)
     8c0:	fb a1 00 78 	std     r29,120(r1)
     8c4:	fb c1 00 80 	std     r30,128(r1)
     8c8:	f8 01 00 a0 	std     r0,160(r1)
     8cc:	63 ff 00 03 	ori     r31,r31,3
     8d0:	2f 84 00 00 	cmpwi   cr7,r4,0
     8d4:	40 82 00 28 	bne-    0x8fc
     8d8:	e8 01 00 a0 	ld      r0,160(r1)
     8dc:	7f e3 07 b4 	extsw   r3,r31
     8e0:	eb 81 00 70 	ld      r28,112(r1)
     8e4:	eb a1 00 78 	ld      r29,120(r1)
     8e8:	7c 08 03 a6 	mtlr    r0
     8ec:	eb c1 00 80 	ld      r30,128(r1)
     8f0:	eb e1 00 88 	ld      r31,136(r1)
     8f4:	38 21 00 90 	addi    r1,r1,144
     8f8:	4e 80 00 20 	blr
     8fc:	7c 7d 1b 78 	mr      r29,r3
     900:	41 9e ff d8 	beq+    cr7,0x8d8
     904:	80 03 00 0c 	lwz     r0,12(r3)
     908:	3f e0 80 61 	lis     r31,-32671
     90c:	78 84 00 20 	clrldi  r4,r4,32
     910:	2f 80 01 00 	cmpwi   cr7,r0,256
     914:	78 7c 00 20 	clrldi  r28,r3,32
     918:	63 ff 00 02 	ori     r31,r31,2
     91c:	2f 00 02 00 	cmpwi   cr6,r0,512
     920:	40 9e 00 a8 	bne-    cr7,0x9c8
     924:	81 3d 00 34 	lwz     r9,52(r29)
     928:	80 7d 00 30 	lwz     r3,48(r29)
     92c:	81 69 00 0c 	lwz     r11,12(r9)
     930:	80 0b 00 00 	lwz     r0,0(r11)
     934:	f8 41 00 28 	std     r2,40(r1)
     938:	7c 09 03 a6 	mtctr   r0
     93c:	80 4b 00 04 	lwz     r2,4(r11)
     940:	4e 80 04 21 	bctrl
     944:	e8 41 00 28 	ld      r2,40(r1)
     948:	7c 7f 1b 78 	mr      r31,r3
     94c:	7f 83 e3 78 	mr      r3,r28
     950:	2f 9f 00 00 	cmpwi   cr7,r31,0
     954:	40 9e ff 84 	bne+    cr7,0x8d8
     958:	38 00 02 00 	li      r0,512
     95c:	90 1d 00 0c 	stw     r0,12(r29)
     960:	48 00 09 ed 	bl      0x134c
     964:	60 00 00 00 	nop
     968:	38 1d 00 84 	addi    r0,r29,132
     96c:	2f 83 00 00 	cmpwi   cr7,r3,0
     970:	78 1e 00 20 	clrldi  r30,r0,32
     974:	7c 7f 1b 78 	mr      r31,r3
     978:	7f c3 f3 78 	mr      r3,r30
     97c:	40 9e ff 5c 	bne+    cr7,0x8d8
     980:	3b bd 00 d8 	addi    r29,r29,216
     984:	48 00 3b 39 	bl      0x44bc
     988:	60 00 00 00 	nop
     98c:	7b bd 00 20 	clrldi  r29,r29,32
     990:	7f a3 eb 78 	mr      r3,r29
     994:	48 00 3b 29 	bl      0x44bc
     998:	60 00 00 00 	nop
     99c:	7f 83 e3 78 	mr      r3,r28
     9a0:	48 00 09 01 	bl      0x12a0
     9a4:	60 00 00 00 	nop
     9a8:	7c 7f 1b 78 	mr      r31,r3
     9ac:	7f c3 f3 78 	mr      r3,r30
     9b0:	48 00 3b 09 	bl      0x44b8
     9b4:	60 00 00 00 	nop
     9b8:	7f a3 eb 78 	mr      r3,r29
     9bc:	48 00 3a fd 	bl      0x44b8
     9c0:	60 00 00 00 	nop
     9c4:	4b ff ff 14 	b       0x8d8
     9c8:	40 9a ff 10 	bne+    cr6,0x8d8
     9cc:	4b ff ff 58 	b       0x924
     9d0:	2f 83 00 00 	cmpwi   cr7,r3,0
     9d4:	7c 08 02 a6 	mflr    r0
     9d8:	f8 21 fe f1 	stdu    r1,-272(r1)
     9dc:	fb 41 00 e0 	std     r26,224(r1)
     9e0:	fb 61 00 e8 	std     r27,232(r1)
     9e4:	fb 81 00 f0 	std     r28,240(r1)
     9e8:	fb a1 00 f8 	std     r29,248(r1)
     9ec:	fb c1 01 00 	std     r30,256(r1)
     9f0:	fb e1 01 08 	std     r31,264(r1)
     9f4:	fa a1 00 b8 	std     r21,184(r1)
     9f8:	fa c1 00 c0 	std     r22,192(r1)
     9fc:	fa e1 00 c8 	std     r23,200(r1)
     a00:	fb 01 00 d0 	std     r24,208(r1)
     a04:	fb 21 00 d8 	std     r25,216(r1)
     a08:	f8 01 01 20 	std     r0,288(r1)
     a0c:	7c 7e 1b 78 	mr      r30,r3
     a10:	7c 9f 23 78 	mr      r31,r4
     a14:	7c bd 2b 78 	mr      r29,r5
     a18:	7c dc 33 78 	mr      r28,r6
     a1c:	7c fa 3b 78 	mr      r26,r7
     a20:	7c 9b 23 78 	mr      r27,r4
     a24:	40 9e 00 4c 	bne-    cr7,0xa70
     a28:	3c 60 80 61 	lis     r3,-32671
     a2c:	60 63 00 03 	ori     r3,r3,3
     a30:	e8 01 01 20 	ld      r0,288(r1)
     a34:	7c 63 07 b4 	extsw   r3,r3
     a38:	ea a1 00 b8 	ld      r21,184(r1)
     a3c:	ea c1 00 c0 	ld      r22,192(r1)
     a40:	7c 08 03 a6 	mtlr    r0
     a44:	ea e1 00 c8 	ld      r23,200(r1)
     a48:	eb 01 00 d0 	ld      r24,208(r1)
     a4c:	eb 21 00 d8 	ld      r25,216(r1)
     a50:	eb 41 00 e0 	ld      r26,224(r1)
     a54:	eb 61 00 e8 	ld      r27,232(r1)
     a58:	eb 81 00 f0 	ld      r28,240(r1)
     a5c:	eb a1 00 f8 	ld      r29,248(r1)
     a60:	eb c1 01 00 	ld      r30,256(r1)
     a64:	eb e1 01 08 	ld      r31,264(r1)
     a68:	38 21 01 10 	addi    r1,r1,272
     a6c:	4e 80 00 20 	blr
     a70:	2f 84 00 00 	cmpwi   cr7,r4,0
     a74:	41 9e ff b4 	beq+    cr7,0xa28
     a78:	2f 85 00 00 	cmpwi   cr7,r5,0
     a7c:	41 9e ff ac 	beq+    cr7,0xa28
     a80:	80 04 00 04 	lwz     r0,4(r4)
     a84:	2f 80 00 00 	cmpwi   cr7,r0,0
     a88:	41 9e ff a0 	beq+    cr7,0xa28
     a8c:	80 1e 00 00 	lwz     r0,0(r30)
     a90:	78 63 00 20 	clrldi  r3,r3,32
     a94:	2b 80 00 1f 	cmplwi  cr7,r0,31
     a98:	41 9d ff 90 	bgt+    cr7,0xa28
     a9c:	80 04 00 08 	lwz     r0,8(r4)
     aa0:	2b 80 0b ff 	cmplwi  cr7,r0,3071
     aa4:	41 9d ff 84 	bgt+    cr7,0xa28
     aa8:	80 04 00 0c 	lwz     r0,12(r4)
     aac:	2b 80 00 ff 	cmplwi  cr7,r0,255
     ab0:	41 9d ff 78 	bgt+    cr7,0xa28
     ab4:	80 05 00 00 	lwz     r0,0(r5)
     ab8:	2f 80 00 00 	cmpwi   cr7,r0,0
     abc:	41 9e ff 6c 	beq+    cr7,0xa28
     ac0:	80 04 00 10 	lwz     r0,16(r4)
     ac4:	2b 80 0f ff 	cmplwi  cr7,r0,4095
     ac8:	40 9d ff 60 	ble+    cr7,0xa28
     acc:	2f 86 00 00 	cmpwi   cr7,r6,0
     ad0:	41 9e ff 58 	beq+    cr7,0xa28
     ad4:	38 81 00 90 	addi    r4,r1,144
     ad8:	4b ff f6 ed 	bl      0x1c4
     adc:	80 1f 00 00 	lwz     r0,0(r31)
     ae0:	81 21 00 90 	lwz     r9,144(r1)
     ae4:	3c 60 80 61 	lis     r3,-32671
     ae8:	7f 89 00 40 	cmplw   cr7,r9,r0
     aec:	60 63 00 01 	ori     r3,r3,1
     af0:	41 9d ff 40 	bgt+    cr7,0xa30
     af4:	80 1e 00 00 	lwz     r0,0(r30)
     af8:	82 a2 80 04 	lwz     r21,-32764(r2)
     afc:	54 00 10 3a 	rlwinm  r0,r0,2,0,29
     b00:	81 3f 00 04 	lwz     r9,4(r31)
     b04:	7c 00 07 b4 	extsw   r0,r0
     b08:	39 29 00 7f 	addi    r9,r9,127
     b0c:	55 37 00 30 	rlwinm  r23,r9,0,0,24
     b10:	7d 75 00 2e 	lwzx    r11,r21,r0
     b14:	7a f9 00 20 	clrldi  r25,r23,32
     b18:	38 17 05 60 	addi    r0,r23,1376
     b1c:	81 2b 00 24 	lwz     r9,36(r11)
     b20:	90 19 00 50 	stw     r0,80(r25)
     b24:	80 09 00 00 	lwz     r0,0(r9)
     b28:	f8 41 00 28 	std     r2,40(r1)
     b2c:	7c 09 03 a6 	mtctr   r0
     b30:	80 49 00 04 	lwz     r2,4(r9)
     b34:	4e 80 04 21 	bctrl
     b38:	e8 41 00 28 	ld      r2,40(r1)
     b3c:	80 1e 00 00 	lwz     r0,0(r30)
     b40:	7c 78 1b 78 	mr      r24,r3
     b44:	54 00 10 3a 	rlwinm  r0,r0,2,0,29
     b48:	7c 76 1b 78 	mr      r22,r3
     b4c:	7c 00 07 b4 	extsw   r0,r0
     b50:	7d 35 00 2e 	lwzx    r9,r21,r0
     b54:	81 69 00 28 	lwz     r11,40(r9)
     b58:	80 0b 00 00 	lwz     r0,0(r11)
     b5c:	f8 41 00 28 	std     r2,40(r1)
     b60:	7c 09 03 a6 	mtctr   r0
     b64:	80 4b 00 04 	lwz     r2,4(r11)
     b68:	4e 80 04 21 	bctrl
     b6c:	e8 41 00 28 	ld      r2,40(r1)
     b70:	2f 98 00 00 	cmpwi   cr7,r24,0
     b74:	7c 67 1b 78 	mr      r7,r3
     b78:	7f 0a c3 78 	mr      r10,r24
     b7c:	40 9d 00 38 	ble-    cr7,0xbb4
     b80:	7b 00 00 20 	clrldi  r0,r24,32
     b84:	39 60 00 00 	li      r11,0
     b88:	7c 09 03 a6 	mtctr   r0
     b8c:	1d 38 00 68 	mulli   r9,r24,104
     b90:	7d 37 4a 14 	add     r9,r23,r9
     b94:	38 09 05 60 	addi    r0,r9,1376
     b98:	81 39 00 50 	lwz     r9,80(r25)
     b9c:	7d 2b 4a 14 	add     r9,r11,r9
     ba0:	39 6b 00 68 	addi    r11,r11,104
     ba4:	79 29 00 20 	clrldi  r9,r9,32
     ba8:	90 09 00 38 	stw     r0,56(r9)
     bac:	7c 00 1a 14 	add     r0,r0,r3
     bb0:	42 00 ff e8 	bdnz+   0xb98
     bb4:	38 07 00 68 	addi    r0,r7,104
     bb8:	81 39 00 50 	lwz     r9,80(r25)
     bbc:	81 7e 00 00 	lwz     r11,0(r30)
     bc0:	7d 40 51 d6 	mullw   r10,r0,r10
     bc4:	7d 2a 4a 14 	add     r9,r10,r9
     bc8:	2f 8b 00 11 	cmpwi   cr7,r11,17
     bcc:	39 29 00 7f 	addi    r9,r9,127
     bd0:	55 29 00 30 	rlwinm  r9,r9,0,0,24
     bd4:	91 39 00 30 	stw     r9,48(r25)
     bd8:	41 9e 01 78 	beq-    cr7,0xd50
     bdc:	2f 8b 00 01 	cmpwi   cr7,r11,1
     be0:	41 9e 01 cc 	beq-    cr7,0xdac
     be4:	2f 8b 00 0c 	cmpwi   cr7,r11,12
     be8:	41 9e 01 c4 	beq-    cr7,0xdac
     bec:	39 00 00 00 	li      r8,0
     bf0:	39 2a 05 60 	addi    r9,r10,1376
     bf4:	38 00 01 00 	li      r0,256
     bf8:	91 19 00 08 	stw     r8,8(r25)
     bfc:	91 39 00 04 	stw     r9,4(r25)
     c00:	90 19 00 0c 	stw     r0,12(r25)
     c04:	80 1e 00 00 	lwz     r0,0(r30)
     c08:	38 77 00 84 	addi    r3,r23,132
     c0c:	92 f9 00 00 	stw     r23,0(r25)
     c10:	90 19 00 10 	stw     r0,16(r25)
     c14:	81 5f 00 0c 	lwz     r10,12(r31)
     c18:	54 63 00 3a 	rlwinm  r3,r3,0,0,29
     c1c:	81 3f 00 00 	lwz     r9,0(r31)
     c20:	80 1f 00 04 	lwz     r0,4(r31)
     c24:	81 7f 00 08 	lwz     r11,8(r31)
     c28:	91 59 00 20 	stw     r10,32(r25)
     c2c:	91 79 00 1c 	stw     r11,28(r25)
     c30:	91 39 00 14 	stw     r9,20(r25)
     c34:	90 19 00 18 	stw     r0,24(r25)
     c38:	81 3f 00 10 	lwz     r9,16(r31)
     c3c:	39 60 ff ff 	li      r11,-1
     c40:	7b 7f 00 20 	clrldi  r31,r27,32
     c44:	91 39 00 24 	stw     r9,36(r25)
     c48:	80 1e 00 00 	lwz     r0,0(r30)
     c4c:	91 19 00 44 	stw     r8,68(r25)
     c50:	54 00 10 3a 	rlwinm  r0,r0,2,0,29
     c54:	91 79 00 4c 	stw     r11,76(r25)
     c58:	7c 00 07 b4 	extsw   r0,r0
     c5c:	90 f9 00 54 	stw     r7,84(r25)
     c60:	91 79 00 38 	stw     r11,56(r25)
     c64:	91 79 00 3c 	stw     r11,60(r25)
     c68:	91 79 00 48 	stw     r11,72(r25)
     c6c:	7d 35 00 2e 	lwzx    r9,r21,r0
     c70:	92 d9 00 40 	stw     r22,64(r25)
     c74:	91 39 00 34 	stw     r9,52(r25)
     c78:	48 00 38 45 	bl      0x44bc
     c7c:	60 00 00 00 	nop
     c80:	38 77 00 d8 	addi    r3,r23,216
     c84:	54 63 00 38 	rlwinm  r3,r3,0,0,28
     c88:	48 00 38 35 	bl      0x44bc
     c8c:	60 00 00 00 	nop
     c90:	7f 23 cb 78 	mr      r3,r25
     c94:	92 fc 00 00 	stw     r23,0(r28)
     c98:	48 00 06 b5 	bl      0x134c
     c9c:	60 00 00 00 	nop
     ca0:	2f 83 00 00 	cmpwi   cr7,r3,0
     ca4:	40 9e fd 8c 	bne+    cr7,0xa30
     ca8:	39 37 00 28 	addi    r9,r23,40
     cac:	80 1d 00 04 	lwz     r0,4(r29)
     cb0:	81 1d 00 00 	lwz     r8,0(r29)
     cb4:	38 61 00 a0 	addi    r3,r1,160
     cb8:	79 29 00 20 	clrldi  r9,r9,32
     cbc:	90 09 00 04 	stw     r0,4(r9)
     cc0:	81 79 00 34 	lwz     r11,52(r25)
     cc4:	91 09 00 00 	stw     r8,0(r9)
     cc8:	81 4b 00 18 	lwz     r10,24(r11)
     ccc:	80 0a 00 00 	lwz     r0,0(r10)
     cd0:	f8 41 00 28 	std     r2,40(r1)
     cd4:	7c 09 03 a6 	mtctr   r0
     cd8:	80 4a 00 04 	lwz     r2,4(r10)
     cdc:	4e 80 04 21 	bctrl
     ce0:	e8 41 00 28 	ld      r2,40(r1)
     ce4:	2f 9a 00 00 	cmpwi   cr7,r26,0
     ce8:	41 9e 00 78 	beq-    cr7,0xd60
     cec:	81 39 00 34 	lwz     r9,52(r25)
     cf0:	7b 40 00 20 	clrldi  r0,r26,32
     cf4:	80 79 00 30 	lwz     r3,48(r25)
     cf8:	7f 25 cb 78 	mr      r5,r25
     cfc:	fb e1 00 78 	std     r31,120(r1)
     d00:	f8 01 00 80 	std     r0,128(r1)
     d04:	fb 21 00 70 	std     r25,112(r1)
     d08:	81 69 00 2c 	lwz     r11,44(r9)
     d0c:	7f 27 cb 78 	mr      r7,r25
     d10:	80 82 80 08 	lwz     r4,-32760(r2)
     d14:	7f 29 cb 78 	mr      r9,r25
     d18:	80 c2 80 0c 	lwz     r6,-32756(r2)
     d1c:	81 02 80 10 	lwz     r8,-32752(r2)
     d20:	81 42 80 14 	lwz     r10,-32748(r2)
     d24:	80 0b 00 00 	lwz     r0,0(r11)
     d28:	f8 41 00 28 	std     r2,40(r1)
     d2c:	7c 09 03 a6 	mtctr   r0
     d30:	80 4b 00 04 	lwz     r2,4(r11)
     d34:	4e 80 04 21 	bctrl
     d38:	e8 41 00 28 	ld      r2,40(r1)
     d3c:	2f 83 00 00 	cmpwi   cr7,r3,0
     d40:	40 9e fc f0 	bne+    cr7,0xa30
     d44:	7f 23 cb 78 	mr      r3,r25
     d48:	4b ff f3 09 	bl      0x50
     d4c:	4b ff fc e4 	b       0xa30
     d50:	79 29 00 20 	clrldi  r9,r9,32
     d54:	38 00 00 01 	li      r0,1
     d58:	90 09 01 84 	stw     r0,388(r9)
     d5c:	4b ff fe 90 	b       0xbec
     d60:	81 39 00 34 	lwz     r9,52(r25)
     d64:	7f 25 cb 78 	mr      r5,r25
     d68:	80 79 00 30 	lwz     r3,48(r25)
     d6c:	7f 27 cb 78 	mr      r7,r25
     d70:	fb e1 00 78 	std     r31,120(r1)
     d74:	fb 21 00 70 	std     r25,112(r1)
     d78:	80 82 80 08 	lwz     r4,-32760(r2)
     d7c:	81 69 00 04 	lwz     r11,4(r9)
     d80:	7f 29 cb 78 	mr      r9,r25
     d84:	80 c2 80 0c 	lwz     r6,-32756(r2)
     d88:	81 02 80 10 	lwz     r8,-32752(r2)
     d8c:	81 42 80 14 	lwz     r10,-32748(r2)
     d90:	80 0b 00 00 	lwz     r0,0(r11)
     d94:	f8 41 00 28 	std     r2,40(r1)
     d98:	7c 09 03 a6 	mtctr   r0
     d9c:	80 4b 00 04 	lwz     r2,4(r11)
     da0:	4e 80 04 21 	bctrl
     da4:	e8 41 00 28 	ld      r2,40(r1)
     da8:	4b ff ff 94 	b       0xd3c
     dac:	79 29 00 20 	clrldi  r9,r9,32
     db0:	38 00 00 00 	li      r0,0
     db4:	90 09 01 84 	stw     r0,388(r9)
     db8:	4b ff fe 34 	b       0xbec
     dbc:	38 e0 00 00 	li      r7,0
     dc0:	4b ff fc 10 	b       0x9d0
     dc4:	f8 21 ff 61 	stdu    r1,-160(r1)
     dc8:	7c 08 02 a6 	mflr    r0
     dcc:	2c 24 00 00 	cmpdi   r4,0
     dd0:	f8 01 00 b0 	std     r0,176(r1)
     dd4:	3c 00 80 61 	lis     r0,-32671
     dd8:	7c 88 23 78 	mr      r8,r4
     ddc:	38 e1 00 70 	addi    r7,r1,112
     de0:	38 81 00 80 	addi    r4,r1,128
     de4:	60 00 00 03 	ori     r0,r0,3
     de8:	78 63 00 20 	clrldi  r3,r3,32
     dec:	78 a5 00 20 	clrldi  r5,r5,32
     df0:	78 c6 00 20 	clrldi  r6,r6,32
     df4:	41 82 00 84 	beq-    0xe78
     df8:	80 08 00 00 	lwz     r0,0(r8)
     dfc:	81 68 00 04 	lwz     r11,4(r8)
     e00:	90 01 00 80 	stw     r0,128(r1)
     e04:	81 28 00 08 	lwz     r9,8(r8)
     e08:	38 00 00 00 	li      r0,0
     e0c:	81 48 00 10 	lwz     r10,16(r8)
     e10:	90 01 00 8c 	stw     r0,140(r1)
     e14:	91 21 00 88 	stw     r9,136(r1)
     e18:	80 08 00 0c 	lwz     r0,12(r8)
     e1c:	91 61 00 84 	stw     r11,132(r1)
     e20:	90 01 00 90 	stw     r0,144(r1)
     e24:	91 41 00 70 	stw     r10,112(r1)
     e28:	88 08 00 14 	lbz     r0,20(r8)
     e2c:	98 01 00 74 	stb     r0,116(r1)
     e30:	89 28 00 15 	lbz     r9,21(r8)
     e34:	99 21 00 75 	stb     r9,117(r1)
     e38:	88 08 00 16 	lbz     r0,22(r8)
     e3c:	98 01 00 76 	stb     r0,118(r1)
     e40:	89 28 00 17 	lbz     r9,23(r8)
     e44:	99 21 00 77 	stb     r9,119(r1)
     e48:	88 08 00 18 	lbz     r0,24(r8)
     e4c:	98 01 00 78 	stb     r0,120(r1)
     e50:	89 28 00 19 	lbz     r9,25(r8)
     e54:	99 21 00 79 	stb     r9,121(r1)
     e58:	88 08 00 1a 	lbz     r0,26(r8)
     e5c:	98 01 00 7a 	stb     r0,122(r1)
     e60:	89 28 00 1b 	lbz     r9,27(r8)
     e64:	99 21 00 7b 	stb     r9,123(r1)
     e68:	80 08 00 1c 	lwz     r0,28(r8)
     e6c:	90 01 00 7c 	stw     r0,124(r1)
     e70:	4b ff fb 61 	bl      0x9d0
     e74:	7c 60 1b 78 	mr      r0,r3
     e78:	7c 03 07 b4 	extsw   r3,r0
     e7c:	e8 01 00 b0 	ld      r0,176(r1)
     e80:	38 21 00 a0 	addi    r1,r1,160
     e84:	7c 08 03 a6 	mtlr    r0
     e88:	4e 80 00 20 	blr
     e8c:	4b ff ff 38 	b       0xdc4
     e90:	f8 21 ff 71 	stdu    r1,-144(r1)
     e94:	7c 08 02 a6 	mflr    r0
     e98:	2f 83 00 00 	cmpwi   cr7,r3,0
     e9c:	f8 01 00 a0 	std     r0,160(r1)
     ea0:	3c 00 80 61 	lis     r0,-32671
     ea4:	fb c1 00 80 	std     r30,128(r1)
     ea8:	fb a1 00 78 	std     r29,120(r1)
     eac:	fb e1 00 88 	std     r31,136(r1)
     eb0:	60 00 00 03 	ori     r0,r0,3
     eb4:	78 7e 00 20 	clrldi  r30,r3,32
     eb8:	40 9e 00 24 	bne-    cr7,0xedc
     ebc:	7c 03 07 b4 	extsw   r3,r0
     ec0:	e8 01 00 a0 	ld      r0,160(r1)
     ec4:	eb a1 00 78 	ld      r29,120(r1)
     ec8:	eb c1 00 80 	ld      r30,128(r1)
     ecc:	7c 08 03 a6 	mtlr    r0
     ed0:	eb e1 00 88 	ld      r31,136(r1)
     ed4:	38 21 00 90 	addi    r1,r1,144
     ed8:	4e 80 00 20 	blr
     edc:	83 e3 00 00 	lwz     r31,0(r3)
     ee0:	7f 9f 18 00 	cmpw    cr7,r31,r3
     ee4:	40 9e ff d8 	bne+    cr7,0xebc
     ee8:	81 3f 00 34 	lwz     r9,52(r31)
     eec:	80 7f 00 30 	lwz     r3,48(r31)
     ef0:	81 69 00 08 	lwz     r11,8(r9)
     ef4:	80 0b 00 00 	lwz     r0,0(r11)
     ef8:	f8 41 00 28 	std     r2,40(r1)
     efc:	7c 09 03 a6 	mtctr   r0
     f00:	80 4b 00 04 	lwz     r2,4(r11)
     f04:	4e 80 04 21 	bctrl
     f08:	e8 41 00 28 	ld      r2,40(r1)
     f0c:	7c 60 1b 78 	mr      r0,r3
     f10:	7f c3 f3 78 	mr      r3,r30
     f14:	2f 80 00 00 	cmpwi   cr7,r0,0
     f18:	40 9e ff a4 	bne+    cr7,0xebc
     f1c:	48 00 0b 35 	bl      0x1a50
     f20:	60 00 00 00 	nop
     f24:	7c 60 1b 78 	mr      r0,r3
     f28:	38 7f 00 84 	addi    r3,r31,132
     f2c:	2f 80 00 00 	cmpwi   cr7,r0,0
     f30:	78 63 00 20 	clrldi  r3,r3,32
     f34:	40 9e ff 88 	bne+    cr7,0xebc
     f38:	48 00 36 a5 	bl      0x45dc
     f3c:	60 00 00 00 	nop
     f40:	7c 7d 1b 78 	mr      r29,r3
     f44:	38 7f 00 d8 	addi    r3,r31,216
     f48:	2f 9d 00 00 	cmpwi   cr7,r29,0
     f4c:	7f a0 eb 78 	mr      r0,r29
     f50:	78 63 00 20 	clrldi  r3,r3,32
     f54:	40 9e ff 68 	bne+    cr7,0xebc
     f58:	48 00 36 85 	bl      0x45dc
     f5c:	60 00 00 00 	nop
     f60:	7c 60 1b 78 	mr      r0,r3
     f64:	7f c3 f3 78 	mr      r3,r30
     f68:	2f 80 00 00 	cmpwi   cr7,r0,0
     f6c:	40 9e ff 50 	bne+    cr7,0xebc
     f70:	38 00 0a 00 	li      r0,2560
     f74:	eb c1 00 80 	ld      r30,128(r1)
     f78:	93 bf 00 00 	stw     r29,0(r31)
     f7c:	90 1f 00 0c 	stw     r0,12(r31)
     f80:	e8 01 00 a0 	ld      r0,160(r1)
     f84:	eb a1 00 78 	ld      r29,120(r1)
     f88:	eb e1 00 88 	ld      r31,136(r1)
     f8c:	38 21 00 90 	addi    r1,r1,144
     f90:	7c 08 03 a6 	mtlr    r0
     f94:	4b ff f1 3c 	b       0xd0
     f98:	f8 21 ff 71 	stdu    r1,-144(r1)
     f9c:	7c 08 02 a6 	mflr    r0
     fa0:	fb e1 00 88 	std     r31,136(r1)
     fa4:	78 9f 00 20 	clrldi  r31,r4,32
     fa8:	fb a1 00 78 	std     r29,120(r1)
     fac:	fb c1 00 80 	std     r30,128(r1)
     fb0:	7c 7d 1b 78 	mr      r29,r3
     fb4:	7c 9e 23 78 	mr      r30,r4
     fb8:	7c 64 1b 78 	mr      r4,r3
     fbc:	7f e3 fb 78 	mr      r3,r31
     fc0:	fb 81 00 70 	std     r28,112(r1)
     fc4:	f8 01 00 a0 	std     r0,160(r1)
     fc8:	48 00 08 41 	bl      0x1808
     fcc:	60 00 00 00 	nop
     fd0:	7c 7c 1b 78 	mr      r28,r3
     fd4:	3c 00 80 61 	lis     r0,-32671
     fd8:	2f 9c 00 00 	cmpwi   cr7,r28,0
     fdc:	7f a4 eb 78 	mr      r4,r29
     fe0:	38 a0 02 00 	li      r5,512
     fe4:	7f e3 fb 78 	mr      r3,r31
     fe8:	60 00 00 01 	ori     r0,r0,1
     fec:	41 9e 00 50 	beq-    cr7,0x103c
     ff0:	48 00 09 ad 	bl      0x199c
     ff4:	60 00 00 00 	nop
     ff8:	80 1e 00 28 	lwz     r0,40(r30)
     ffc:	80 de 00 2c 	lwz     r6,44(r30)
    1000:	2f 80 00 00 	cmpwi   cr7,r0,0
    1004:	78 09 00 20 	clrldi  r9,r0,32
    1008:	7f e3 fb 78 	mr      r3,r31
    100c:	7f 85 07 b4 	extsw   r5,r28
    1010:	38 80 00 00 	li      r4,0
    1014:	38 00 00 00 	li      r0,0
    1018:	78 c6 00 20 	clrldi  r6,r6,32
    101c:	41 9e 00 20 	beq-    cr7,0x103c
    1020:	80 09 00 00 	lwz     r0,0(r9)
    1024:	f8 41 00 28 	std     r2,40(r1)
    1028:	7c 09 03 a6 	mtctr   r0
    102c:	80 49 00 04 	lwz     r2,4(r9)
    1030:	4e 80 04 21 	bctrl
    1034:	e8 41 00 28 	ld      r2,40(r1)
    1038:	38 00 00 00 	li      r0,0
    103c:	7c 03 07 b4 	extsw   r3,r0
    1040:	e8 01 00 a0 	ld      r0,160(r1)
    1044:	eb 81 00 70 	ld      r28,112(r1)
    1048:	eb a1 00 78 	ld      r29,120(r1)
    104c:	7c 08 03 a6 	mtlr    r0
    1050:	eb c1 00 80 	ld      r30,128(r1)
    1054:	eb e1 00 88 	ld      r31,136(r1)
    1058:	38 21 00 90 	addi    r1,r1,144
    105c:	4e 80 00 20 	blr
    1060:	f8 21 ff 11 	stdu    r1,-240(r1)
    1064:	7c 08 02 a6 	mflr    r0
    1068:	fb 81 00 d0 	std     r28,208(r1)
    106c:	fb a1 00 d8 	std     r29,216(r1)
    1070:	78 7c 00 20 	clrldi  r28,r3,32
    1074:	78 dd 00 20 	clrldi  r29,r6,32
    1078:	fa e1 00 a8 	std     r23,168(r1)
    107c:	fb 61 00 c8 	std     r27,200(r1)
    1080:	7c 97 23 78 	mr      r23,r4
    1084:	7c 7b 1b 78 	mr      r27,r3
    1088:	7f 84 e3 78 	mr      r4,r28
    108c:	7f a3 eb 78 	mr      r3,r29
    1090:	fa c1 00 a0 	std     r22,160(r1)
    1094:	fb 01 00 b0 	std     r24,176(r1)
    1098:	fb 21 00 b8 	std     r25,184(r1)
    109c:	fb 41 00 c0 	std     r26,192(r1)
    10a0:	fb e1 00 e8 	std     r31,232(r1)
    10a4:	fb c1 00 e0 	std     r30,224(r1)
    10a8:	f8 01 01 00 	std     r0,256(r1)
    10ac:	7c da 33 78 	mr      r26,r6
    10b0:	7c b9 2b 78 	mr      r25,r5
    10b4:	7c f8 3b 78 	mr      r24,r7
    10b8:	7d 1f 43 78 	mr      r31,r8
    10bc:	7d 36 4b 78 	mr      r22,r9
    10c0:	48 00 07 49 	bl      0x1808
    10c4:	60 00 00 00 	nop
    10c8:	2f 83 00 00 	cmpwi   cr7,r3,0
    10cc:	41 9e 01 90 	beq-    cr7,0x125c
    10d0:	7f 7e 07 b4 	extsw   r30,r27
    10d4:	7f e5 07 74 	extsb   r5,r31
    10d8:	7f a3 eb 78 	mr      r3,r29
    10dc:	7f c4 f3 78 	mr      r4,r30
    10e0:	48 00 04 7d 	bl      0x155c
    10e4:	60 00 00 00 	nop
    10e8:	2f 83 00 00 	cmpwi   cr7,r3,0
    10ec:	7c 7f 1b 78 	mr      r31,r3
    10f0:	41 9e 00 40 	beq-    cr7,0x1130
    10f4:	e8 01 01 00 	ld      r0,256(r1)
    10f8:	7f e3 07 b4 	extsw   r3,r31
    10fc:	ea c1 00 a0 	ld      r22,160(r1)
    1100:	ea e1 00 a8 	ld      r23,168(r1)
    1104:	7c 08 03 a6 	mtlr    r0
    1108:	eb 01 00 b0 	ld      r24,176(r1)
    110c:	eb 21 00 b8 	ld      r25,184(r1)
    1110:	eb 41 00 c0 	ld      r26,192(r1)
    1114:	eb 61 00 c8 	ld      r27,200(r1)
    1118:	eb 81 00 d0 	ld      r28,208(r1)
    111c:	eb a1 00 d8 	ld      r29,216(r1)
    1120:	eb c1 00 e0 	ld      r30,224(r1)
    1124:	eb e1 00 e8 	ld      r31,232(r1)
    1128:	38 21 00 f0 	addi    r1,r1,240
    112c:	4e 80 00 20 	blr
    1130:	7f c4 f3 78 	mr      r4,r30
    1134:	3f c0 80 61 	lis     r30,-32671
    1138:	7f a3 eb 78 	mr      r3,r29
    113c:	63 de 00 01 	ori     r30,r30,1
    1140:	48 00 0a 41 	bl      0x1b80
    1144:	60 00 00 00 	nop
    1148:	7f 83 f0 00 	cmpw    cr7,r3,r30
    114c:	7c 7f 1b 78 	mr      r31,r3
    1150:	41 9e ff a4 	beq+    cr7,0x10f4
    1154:	7f a3 eb 78 	mr      r3,r29
    1158:	7f 84 e3 78 	mr      r4,r28
    115c:	38 a0 08 00 	li      r5,2048
    1160:	48 00 08 3d 	bl      0x199c
    1164:	60 00 00 00 	nop
    1168:	54 7f 06 3e 	clrlwi  r31,r3,24
    116c:	7f 9f f0 00 	cmpw    cr7,r31,r30
    1170:	41 9e ff 84 	beq+    cr7,0x10f4
    1174:	7a e5 00 20 	clrldi  r5,r23,32
    1178:	7b 26 00 20 	clrldi  r6,r25,32
    117c:	7b 07 00 20 	clrldi  r7,r24,32
    1180:	7f a3 eb 78 	mr      r3,r29
    1184:	7f 84 e3 78 	mr      r4,r28
    1188:	48 00 09 1d 	bl      0x1aa4
    118c:	60 00 00 00 	nop
    1190:	7f 83 f0 00 	cmpw    cr7,r3,r30
    1194:	7c 7f 1b 78 	mr      r31,r3
    1198:	41 de ff 5c 	beq+    cr7,0x10f4
    119c:	7f 84 e3 78 	mr      r4,r28
    11a0:	7f a3 eb 78 	mr      r3,r29
    11a4:	38 a1 00 70 	addi    r5,r1,112
    11a8:	48 00 06 c5 	bl      0x186c
    11ac:	60 00 00 00 	nop
    11b0:	2f 83 00 00 	cmpwi   cr7,r3,0
    11b4:	7c 7f 1b 78 	mr      r31,r3
    11b8:	40 9e ff 3c 	bne+    cr7,0x10f4
    11bc:	38 7a 00 84 	addi    r3,r26,132
    11c0:	80 01 00 70 	lwz     r0,112(r1)
    11c4:	3b e0 00 10 	li      r31,16
    11c8:	78 63 00 20 	clrldi  r3,r3,32
    11cc:	38 81 00 74 	addi    r4,r1,116
    11d0:	90 01 00 7c 	stw     r0,124(r1)
    11d4:	93 e1 00 78 	stw     r31,120(r1)
    11d8:	93 61 00 80 	stw     r27,128(r1)
    11dc:	48 00 34 49 	bl      0x4624
    11e0:	60 00 00 00 	nop
    11e4:	2f 83 00 00 	cmpwi   cr7,r3,0
    11e8:	40 fe 00 74 	bne+    cr7,0x125c
    11ec:	38 7a 00 d8 	addi    r3,r26,216
    11f0:	80 01 00 70 	lwz     r0,112(r1)
    11f4:	38 81 00 84 	addi    r4,r1,132
    11f8:	78 63 00 20 	clrldi  r3,r3,32
    11fc:	93 e1 00 88 	stw     r31,136(r1)
    1200:	90 01 00 8c 	stw     r0,140(r1)
    1204:	93 61 00 90 	stw     r27,144(r1)
    1208:	48 00 34 1d 	bl      0x4624
    120c:	60 00 00 00 	nop
    1210:	2f 83 00 00 	cmpwi   cr7,r3,0
    1214:	7c 7f 1b 78 	mr      r31,r3
    1218:	40 9e 00 44 	bne-    cr7,0x125c
    121c:	81 3a 00 28 	lwz     r9,40(r26)
    1220:	80 da 00 2c 	lwz     r6,44(r26)
    1224:	2f 89 00 00 	cmpwi   cr7,r9,0
    1228:	41 9e fe cc 	beq+    cr7,0x10f4
    122c:	79 29 00 20 	clrldi  r9,r9,32
    1230:	7f a3 eb 78 	mr      r3,r29
    1234:	7e c5 07 b4 	extsw   r5,r22
    1238:	78 c6 00 20 	clrldi  r6,r6,32
    123c:	38 80 00 01 	li      r4,1
    1240:	80 09 00 00 	lwz     r0,0(r9)
    1244:	f8 41 00 28 	std     r2,40(r1)
    1248:	7c 09 03 a6 	mtctr   r0
    124c:	80 49 00 04 	lwz     r2,4(r9)
    1250:	4e 80 04 21 	bctrl
    1254:	e8 41 00 28 	ld      r2,40(r1)
    1258:	4b ff fe 9c 	b       0x10f4
    125c:	3f e0 80 61 	lis     r31,-32671
    1260:	e8 01 01 00 	ld      r0,256(r1)
    1264:	ea c1 00 a0 	ld      r22,160(r1)
    1268:	63 ff 00 01 	ori     r31,r31,1
    126c:	ea e1 00 a8 	ld      r23,168(r1)
    1270:	eb 01 00 b0 	ld      r24,176(r1)
    1274:	7c 08 03 a6 	mtlr    r0
    1278:	7f e3 07 b4 	extsw   r3,r31
    127c:	eb 21 00 b8 	ld      r25,184(r1)
    1280:	eb 41 00 c0 	ld      r26,192(r1)
    1284:	eb 61 00 c8 	ld      r27,200(r1)
    1288:	eb 81 00 d0 	ld      r28,208(r1)
    128c:	eb a1 00 d8 	ld      r29,216(r1)
    1290:	eb c1 00 e0 	ld      r30,224(r1)
    1294:	eb e1 00 e8 	ld      r31,232(r1)
    1298:	38 21 00 f0 	addi    r1,r1,240
    129c:	4e 80 00 20 	blr
    12a0:	38 60 00 00 	li      r3,0
    12a4:	4e 80 00 20 	blr
    12a8:	81 43 00 40 	lwz     r10,64(r3)
    12ac:	81 63 00 50 	lwz     r11,80(r3)
    12b0:	2f 8a 00 00 	cmpwi   cr7,r10,0
    12b4:	40 9d 00 48 	ble-    cr7,0x12fc
    12b8:	79 69 00 20 	clrldi  r9,r11,32
    12bc:	38 60 00 00 	li      r3,0
    12c0:	88 09 00 00 	lbz     r0,0(r9)
    12c4:	2f 80 00 00 	cmpwi   cr7,r0,0
    12c8:	41 9e 00 3c 	beq-    cr7,0x1304
    12cc:	79 4a 00 20 	clrldi  r10,r10,32
    12d0:	7d 69 5b 78 	mr      r9,r11
    12d4:	38 60 00 00 	li      r3,0
    12d8:	7d 49 03 a6 	mtctr   r10
    12dc:	48 00 00 10 	b       0x12ec
    12e0:	88 0b 00 00 	lbz     r0,0(r11)
    12e4:	2f 80 00 00 	cmpwi   cr7,r0,0
    12e8:	41 9e 00 1c 	beq-    cr7,0x1304
    12ec:	39 29 00 68 	addi    r9,r9,104
    12f0:	38 63 00 01 	addi    r3,r3,1
    12f4:	79 2b 00 20 	clrldi  r11,r9,32
    12f8:	42 00 ff e8 	bdnz+   0x12e0
    12fc:	3c 60 80 61 	lis     r3,-32671
    1300:	60 63 00 04 	ori     r3,r3,4
    1304:	7c 63 07 b4 	extsw   r3,r3
    1308:	4e 80 00 20 	blr
    130c:	81 23 00 40 	lwz     r9,64(r3)
    1310:	80 03 00 50 	lwz     r0,80(r3)
    1314:	2f 89 00 00 	cmpwi   cr7,r9,0
    1318:	40 9d 00 28 	ble-    cr7,0x1340
    131c:	79 29 00 20 	clrldi  r9,r9,32
    1320:	39 60 00 00 	li      r11,0
    1324:	39 40 00 00 	li      r10,0
    1328:	7d 29 03 a6 	mtctr   r9
    132c:	7d 2b 02 14 	add     r9,r11,r0
    1330:	39 6b 00 68 	addi    r11,r11,104
    1334:	79 29 00 20 	clrldi  r9,r9,32
    1338:	99 49 00 00 	stb     r10,0(r9)
    133c:	42 00 ff f0 	bdnz+   0x132c
    1340:	3c 60 80 61 	lis     r3,-32671
    1344:	60 63 00 04 	ori     r3,r3,4
    1348:	4e 80 00 20 	blr
    134c:	7c 66 1b 78 	mr      r6,r3
    1350:	7c 08 02 a6 	mflr    r0
    1354:	f8 01 00 10 	std     r0,16(r1)
    1358:	80 03 00 40 	lwz     r0,64(r3)
    135c:	80 e3 00 50 	lwz     r7,80(r3)
    1360:	2f 80 00 00 	cmpwi   cr7,r0,0
    1364:	40 9d 00 58 	ble-    cr7,0x13bc
    1368:	78 00 00 20 	clrldi  r0,r0,32
    136c:	39 00 00 00 	li      r8,0
    1370:	7c 09 03 a6 	mtctr   r0
    1374:	39 40 00 00 	li      r10,0
    1378:	38 00 00 00 	li      r0,0
    137c:	39 60 00 00 	li      r11,0
    1380:	7d 2a 3a 14 	add     r9,r10,r7
    1384:	39 4a 00 68 	addi    r10,r10,104
    1388:	79 29 00 20 	clrldi  r9,r9,32
    138c:	91 09 00 04 	stw     r8,4(r9)
    1390:	91 69 00 64 	stw     r11,100(r9)
    1394:	98 09 00 00 	stb     r0,0(r9)
    1398:	98 09 00 08 	stb     r0,8(r9)
    139c:	98 09 00 09 	stb     r0,9(r9)
    13a0:	98 09 00 0a 	stb     r0,10(r9)
    13a4:	98 09 00 0b 	stb     r0,11(r9)
    13a8:	91 69 00 58 	stw     r11,88(r9)
    13ac:	91 69 00 5c 	stw     r11,92(r9)
    13b0:	91 69 00 60 	stw     r11,96(r9)
    13b4:	39 08 00 01 	addi    r8,r8,1
    13b8:	42 00 ff c8 	bdnz+   0x1380
    13bc:	38 00 00 02 	li      r0,2
    13c0:	81 62 80 18 	lwz     r11,-32744(r2)
    13c4:	39 20 00 00 	li      r9,0
    13c8:	90 03 00 58 	stw     r0,88(r3)
    13cc:	38 00 00 20 	li      r0,32
    13d0:	39 40 00 00 	li      r10,0
    13d4:	99 23 00 78 	stb     r9,120(r3)
    13d8:	90 03 00 5c 	stw     r0,92(r3)
    13dc:	39 20 02 00 	li      r9,512
    13e0:	38 00 20 00 	li      r0,8192
    13e4:	91 23 00 60 	stw     r9,96(r3)
    13e8:	90 03 00 64 	stw     r0,100(r3)
    13ec:	91 43 00 70 	stw     r10,112(r3)
    13f0:	f9 43 00 68 	std     r10,104(r3)
    13f4:	39 26 00 78 	addi    r9,r6,120
    13f8:	e8 0b 00 00 	ld      r0,0(r11)
    13fc:	f8 09 00 00 	std     r0,0(r9)
    1400:	38 00 00 00 	li      r0,0
    1404:	39 49 00 07 	addi    r10,r9,7
    1408:	98 0a 00 00 	stb     r0,0(r10)
    140c:	38 86 00 58 	addi    r4,r6,88
    1410:	38 66 00 80 	addi    r3,r6,128
    1414:	78 84 00 20 	clrldi  r4,r4,32
    1418:	78 63 00 20 	clrldi  r3,r3,32
    141c:	39 60 00 64 	li      r11,100
    1420:	44 00 00 02 	sc      
    1424:	e8 01 00 10 	ld      r0,16(r1)
    1428:	38 60 00 00 	li      r3,0
    142c:	7c 08 03 a6 	mtlr    r0
    1430:	4e 80 00 20 	blr
    1434:	81 23 00 50 	lwz     r9,80(r3)
    1438:	38 00 00 00 	li      r0,0
    143c:	39 60 00 00 	li      r11,0
    1440:	39 40 ff ff 	li      r10,-1
    1444:	38 60 00 00 	li      r3,0
    1448:	1c 84 00 68 	mulli   r4,r4,104
    144c:	7c 84 4a 14 	add     r4,r4,r9
    1450:	78 84 00 20 	clrldi  r4,r4,32
    1454:	91 44 00 64 	stw     r10,100(r4)
    1458:	98 04 00 0b 	stb     r0,11(r4)
    145c:	91 64 00 5c 	stw     r11,92(r4)
    1460:	98 04 00 00 	stb     r0,0(r4)
    1464:	98 04 00 08 	stb     r0,8(r4)
    1468:	98 04 00 09 	stb     r0,9(r4)
    146c:	98 04 00 0a 	stb     r0,10(r4)
    1470:	91 64 00 58 	stw     r11,88(r4)
    1474:	91 44 00 60 	stw     r10,96(r4)
    1478:	4e 80 00 20 	blr
    147c:	81 03 00 40 	lwz     r8,64(r3)
    1480:	81 63 00 50 	lwz     r11,80(r3)
    1484:	2f 88 00 00 	cmpwi   cr7,r8,0
    1488:	40 9d 00 50 	ble-    cr7,0x14d8
    148c:	79 69 00 20 	clrldi  r9,r11,32
    1490:	7d 6a 5b 78 	mr      r10,r11
    1494:	38 60 00 00 	li      r3,0
    1498:	88 09 00 00 	lbz     r0,0(r9)
    149c:	2f 80 00 00 	cmpwi   cr7,r0,0
    14a0:	41 9e 00 48 	beq-    cr7,0x14e8
    14a4:	79 08 00 20 	clrldi  r8,r8,32
    14a8:	39 2b 00 68 	addi    r9,r11,104
    14ac:	38 60 00 00 	li      r3,0
    14b0:	7d 09 03 a6 	mtctr   r8
    14b4:	48 00 00 10 	b       0x14c4
    14b8:	88 0b 00 00 	lbz     r0,0(r11)
    14bc:	2f 80 00 00 	cmpwi   cr7,r0,0
    14c0:	41 9e 00 28 	beq-    cr7,0x14e8
    14c4:	79 2b 00 20 	clrldi  r11,r9,32
    14c8:	7d 2a 4b 78 	mr      r10,r9
    14cc:	38 63 00 01 	addi    r3,r3,1
    14d0:	39 29 00 68 	addi    r9,r9,104
    14d4:	42 00 ff e4 	bdnz+   0x14b8
    14d8:	3c 60 80 61 	lis     r3,-32671
    14dc:	60 63 00 04 	ori     r3,r3,4
    14e0:	7c 63 07 b4 	extsw   r3,r3
    14e4:	4e 80 00 20 	blr
    14e8:	79 49 00 20 	clrldi  r9,r10,32
    14ec:	e8 04 00 00 	ld      r0,0(r4)
    14f0:	7c 63 07 b4 	extsw   r3,r3
    14f4:	f8 09 00 10 	std     r0,16(r9)
    14f8:	e9 64 00 08 	ld      r11,8(r4)
    14fc:	38 00 00 01 	li      r0,1
    1500:	f9 69 00 18 	std     r11,24(r9)
    1504:	98 09 00 00 	stb     r0,0(r9)
    1508:	e8 04 00 10 	ld      r0,16(r4)
    150c:	f8 09 00 20 	std     r0,32(r9)
    1510:	4e 80 00 20 	blr
    1514:	2f 84 00 00 	cmpwi   cr7,r4,0
    1518:	39 60 00 00 	li      r11,0
    151c:	41 dc 00 28 	blt-    cr7,0x1544
    1520:	80 03 00 50 	lwz     r0,80(r3)
    1524:	1d 24 00 68 	mulli   r9,r4,104
    1528:	7d 29 02 14 	add     r9,r9,r0
    152c:	79 29 00 20 	clrldi  r9,r9,32
    1530:	88 09 00 00 	lbz     r0,0(r9)
    1534:	2f 80 00 00 	cmpwi   cr7,r0,0
    1538:	41 9e 00 18 	beq-    cr7,0x1550
    153c:	7d 63 07 b4 	extsw   r3,r11
    1540:	4e 80 00 20 	blr
    1544:	80 03 00 40 	lwz     r0,64(r3)
    1548:	7f 80 20 00 	cmpw    cr7,r0,r4
    154c:	41 9d ff d4 	bgt+    cr7,0x1520
    1550:	3d 60 80 61 	lis     r11,-32671
    1554:	61 6b 00 01 	ori     r11,r11,1
    1558:	4b ff ff e4 	b       0x153c
    155c:	f8 21 ff 71 	stdu    r1,-144(r1)
    1560:	7c 08 02 a6 	mflr    r0
    1564:	fb e1 00 88 	std     r31,136(r1)
    1568:	7c 9f 23 78 	mr      r31,r4
    156c:	7c 84 07 b4 	extsw   r4,r4
    1570:	fb a1 00 78 	std     r29,120(r1)
    1574:	fb c1 00 80 	std     r30,128(r1)
    1578:	f8 01 00 a0 	std     r0,160(r1)
    157c:	7c 7e 1b 78 	mr      r30,r3
    1580:	7c bd 2b 78 	mr      r29,r5
    1584:	4b ff ff 91 	bl      0x1514
    1588:	6c 60 80 61 	xoris   r0,r3,32865
    158c:	2f 80 00 01 	cmpwi   cr7,r0,1
    1590:	41 9e 00 6c 	beq-    cr7,0x15fc
    1594:	80 1e 00 50 	lwz     r0,80(r30)
    1598:	1d 3f 00 68 	mulli   r9,r31,104
    159c:	7d 29 02 14 	add     r9,r9,r0
    15a0:	39 29 00 10 	addi    r9,r9,16
    15a4:	79 24 00 20 	clrldi  r4,r9,32
    15a8:	80 04 00 08 	lwz     r0,8(r4)
    15ac:	2f 80 ff ff 	cmpwi   cr7,r0,-1
    15b0:	41 9e 00 40 	beq-    cr7,0x15f0
    15b4:	80 04 00 08 	lwz     r0,8(r4)
    15b8:	80 84 00 0c 	lwz     r4,12(r4)
    15bc:	2f 84 ff ff 	cmpwi   cr7,r4,-1
    15c0:	41 9e 00 3c 	beq-    cr7,0x15fc
    15c4:	38 60 00 00 	li      r3,0
    15c8:	90 9e 00 3c 	stw     r4,60(r30)
    15cc:	90 1e 00 38 	stw     r0,56(r30)
    15d0:	e8 01 00 a0 	ld      r0,160(r1)
    15d4:	7c 63 07 b4 	extsw   r3,r3
    15d8:	eb a1 00 78 	ld      r29,120(r1)
    15dc:	eb c1 00 80 	ld      r30,128(r1)
    15e0:	7c 08 03 a6 	mtlr    r0
    15e4:	eb e1 00 88 	ld      r31,136(r1)
    15e8:	38 21 00 90 	addi    r1,r1,144
    15ec:	4e 80 00 20 	blr
    15f0:	80 04 00 0c 	lwz     r0,12(r4)
    15f4:	2f 80 ff ff 	cmpwi   cr7,r0,-1
    15f8:	41 9e 00 2c 	beq-    cr7,0x1624
    15fc:	3c 60 80 61 	lis     r3,-32671
    1600:	e8 01 00 a0 	ld      r0,160(r1)
    1604:	eb a1 00 78 	ld      r29,120(r1)
    1608:	60 63 00 01 	ori     r3,r3,1
    160c:	eb c1 00 80 	ld      r30,128(r1)
    1610:	eb e1 00 88 	ld      r31,136(r1)
    1614:	7c 08 03 a6 	mtlr    r0
    1618:	7c 63 07 b4 	extsw   r3,r3
    161c:	38 21 00 90 	addi    r1,r1,144
    1620:	4e 80 00 20 	blr
    1624:	81 5e 00 38 	lwz     r10,56(r30)
    1628:	2f 8a ff ff 	cmpwi   cr7,r10,-1
    162c:	41 9e 00 e4 	beq-    cr7,0x1710
    1630:	81 1e 00 3c 	lwz     r8,60(r30)
    1634:	2b 9d 00 09 	cmplwi  cr7,r29,9
    1638:	38 00 00 00 	li      r0,0
    163c:	41 9d 00 4c 	bgt-    cr7,0x1688
    1640:	81 62 80 1c 	lwz     r11,-32740(r2)
    1644:	7b a9 17 88 	rldic   r9,r29,2,30
    1648:	7c 09 58 2e 	lwzx    r0,r9,r11
    164c:	7c 00 07 b4 	extsw   r0,r0
    1650:	7c 00 5a 14 	add     r0,r0,r11
    1654:	7c 09 03 a6 	mtctr   r0
    1658:	4e 80 04 20 	bctr
    165c:	00 00 00 74 	.long 0x74
    1660:	00 00 00 7c 	.long 0x7c
    1664:	00 00 00 84 	.long 0x84
    1668:	00 00 00 28 	.long 0x28
    166c:	00 00 00 8c 	.long 0x8c
    1670:	00 00 00 94 	.long 0x94
    1674:	00 00 00 28 	.long 0x28
    1678:	00 00 00 9c 	.long 0x9c
    167c:	00 00 00 a4 	.long 0xa4
    1680:	00 00 00 ac 	.long 0xac
    1684:	38 00 10 54 	li      r0,4180
    1688:	7c 00 42 14 	add     r0,r0,r8
    168c:	91 44 00 08 	stw     r10,8(r4)
    1690:	90 04 00 0c 	stw     r0,12(r4)
    1694:	81 3e 00 3c 	lwz     r9,60(r30)
    1698:	7f 80 48 40 	cmplw   cr7,r0,r9
    169c:	40 9c 00 24 	bge-    cr7,0x16c0
    16a0:	55 40 07 fe 	clrlwi  r0,r10,31
    16a4:	2f 80 00 00 	cmpwi   cr7,r0,0
    16a8:	41 9e 00 10 	beq-    cr7,0x16b8
    16ac:	38 00 00 00 	li      r0,0
    16b0:	90 04 00 08 	stw     r0,8(r4)
    16b4:	4b ff ff 00 	b       0x15b4
    16b8:	38 0a 00 01 	addi    r0,r10,1
    16bc:	90 04 00 08 	stw     r0,8(r4)
    16c0:	80 04 00 08 	lwz     r0,8(r4)
    16c4:	2f 80 ff ff 	cmpwi   cr7,r0,-1
    16c8:	40 9e fe f0 	bne+    cr7,0x15b8
    16cc:	4b ff ff 30 	b       0x15fc
    16d0:	38 00 01 c2 	li      r0,450
    16d4:	4b ff ff b4 	b       0x1688
    16d8:	38 00 00 96 	li      r0,150
    16dc:	4b ff ff ac 	b       0x1688
    16e0:	38 00 0f 00 	li      r0,3840
    16e4:	4b ff ff a4 	b       0x1688
    16e8:	38 00 16 80 	li      r0,5760
    16ec:	4b ff ff 9c 	b       0x1688
    16f0:	38 00 0b 40 	li      r0,2880
    16f4:	4b ff ff 94 	b       0x1688
    16f8:	38 00 08 70 	li      r0,2160
    16fc:	4b ff ff 8c 	b       0x1688
    1700:	38 00 09 2f 	li      r0,2351
    1704:	4b ff ff 84 	b       0x1688
    1708:	38 00 0c a8 	li      r0,3240
    170c:	4b ff ff 7c 	b       0x1688
    1710:	81 1e 00 3c 	lwz     r8,60(r30)
    1714:	38 60 00 00 	li      r3,0
    1718:	2f 88 ff ff 	cmpwi   cr7,r8,-1
    171c:	40 9e ff 18 	bne+    cr7,0x1634
    1720:	4b ff fe b0 	b       0x15d0
    1724:	81 63 00 40 	lwz     r11,64(r3)
    1728:	81 23 00 50 	lwz     r9,80(r3)
    172c:	2f 8b 00 00 	cmpwi   cr7,r11,0
    1730:	40 9d 00 40 	ble-    cr7,0x1770
    1734:	38 09 00 10 	addi    r0,r9,16
    1738:	38 60 00 00 	li      r3,0
    173c:	7f 80 20 00 	cmpw    cr7,r0,r4
    1740:	41 9e 00 38 	beq-    cr7,0x1778
    1744:	79 6b 00 20 	clrldi  r11,r11,32
    1748:	39 29 00 68 	addi    r9,r9,104
    174c:	38 60 00 00 	li      r3,0
    1750:	7d 69 03 a6 	mtctr   r11
    1754:	48 00 00 08 	b       0x175c
    1758:	41 9e 00 20 	beq-    cr7,0x1778
    175c:	38 09 00 10 	addi    r0,r9,16
    1760:	38 63 00 01 	addi    r3,r3,1
    1764:	39 29 00 68 	addi    r9,r9,104
    1768:	7f 80 20 00 	cmpw    cr7,r0,r4
    176c:	42 00 ff ec 	bdnz+   0x1758
    1770:	3c 60 80 61 	lis     r3,-32671
    1774:	60 63 00 01 	ori     r3,r3,1
    1778:	7c 63 07 b4 	extsw   r3,r3
    177c:	4e 80 00 20 	blr
    1780:	f8 21 ff 71 	stdu    r1,-144(r1)
    1784:	7c 08 02 a6 	mflr    r0
    1788:	fb c1 00 80 	std     r30,128(r1)
    178c:	7c 7e 1b 78 	mr      r30,r3
    1790:	f8 01 00 a0 	std     r0,160(r1)
    1794:	fb e1 00 88 	std     r31,136(r1)
    1798:	fb a1 00 78 	std     r29,120(r1)
    179c:	7c 9d 23 78 	mr      r29,r4
    17a0:	83 fe 00 48 	lwz     r31,72(r30)
    17a4:	2f 9f ff ff 	cmpwi   cr7,r31,-1
    17a8:	7f e4 07 b4 	extsw   r4,r31
    17ac:	40 9e 00 2c 	bne-    cr7,0x17d8
    17b0:	3d 60 80 61 	lis     r11,-32671
    17b4:	61 6b 00 01 	ori     r11,r11,1
    17b8:	e8 01 00 a0 	ld      r0,160(r1)
    17bc:	7d 63 07 b4 	extsw   r3,r11
    17c0:	eb a1 00 78 	ld      r29,120(r1)
    17c4:	eb c1 00 80 	ld      r30,128(r1)
    17c8:	7c 08 03 a6 	mtlr    r0
    17cc:	eb e1 00 88 	ld      r31,136(r1)
    17d0:	38 21 00 90 	addi    r1,r1,144
    17d4:	4e 80 00 20 	blr
    17d8:	4b ff fd 3d 	bl      0x1514
    17dc:	3c 00 80 61 	lis     r0,-32671
    17e0:	39 60 00 00 	li      r11,0
    17e4:	60 00 00 01 	ori     r0,r0,1
    17e8:	7f 83 00 00 	cmpw    cr7,r3,r0
    17ec:	41 9e ff c4 	beq+    cr7,0x17b0
    17f0:	80 1e 00 50 	lwz     r0,80(r30)
    17f4:	1d 3f 00 68 	mulli   r9,r31,104
    17f8:	7d 29 02 14 	add     r9,r9,r0
    17fc:	39 29 00 28 	addi    r9,r9,40
    1800:	91 3d 00 00 	stw     r9,0(r29)
    1804:	4b ff ff b4 	b       0x17b8
    1808:	f8 21 ff 81 	stdu    r1,-128(r1)
    180c:	7c 08 02 a6 	mflr    r0
    1810:	fb c1 00 70 	std     r30,112(r1)
    1814:	7c 9e 23 78 	mr      r30,r4
    1818:	7c 84 07 b4 	extsw   r4,r4
    181c:	fb e1 00 78 	std     r31,120(r1)
    1820:	f8 01 00 90 	std     r0,144(r1)
    1824:	7c 7f 1b 78 	mr      r31,r3
    1828:	4b ff fc ed 	bl      0x1514
    182c:	3c 00 80 61 	lis     r0,-32671
    1830:	38 80 00 00 	li      r4,0
    1834:	60 00 00 01 	ori     r0,r0,1
    1838:	7f 83 00 00 	cmpw    cr7,r3,r0
    183c:	41 9e 00 14 	beq-    cr7,0x1850
    1840:	80 1f 00 50 	lwz     r0,80(r31)
    1844:	1d 3e 00 68 	mulli   r9,r30,104
    1848:	7d 29 02 14 	add     r9,r9,r0
    184c:	38 89 00 10 	addi    r4,r9,16
    1850:	e8 01 00 90 	ld      r0,144(r1)
    1854:	78 83 00 20 	clrldi  r3,r4,32
    1858:	eb c1 00 70 	ld      r30,112(r1)
    185c:	eb e1 00 78 	ld      r31,120(r1)
    1860:	7c 08 03 a6 	mtlr    r0
    1864:	38 21 00 80 	addi    r1,r1,128
    1868:	4e 80 00 20 	blr
    186c:	f8 21 ff 71 	stdu    r1,-144(r1)
    1870:	7c 08 02 a6 	mflr    r0
    1874:	fb c1 00 80 	std     r30,128(r1)
    1878:	7c 9e 23 78 	mr      r30,r4
    187c:	7c 84 07 b4 	extsw   r4,r4
    1880:	fb a1 00 78 	std     r29,120(r1)
    1884:	fb e1 00 88 	std     r31,136(r1)
    1888:	f8 01 00 a0 	std     r0,160(r1)
    188c:	7c 7f 1b 78 	mr      r31,r3
    1890:	7c bd 2b 78 	mr      r29,r5
    1894:	4b ff fc 81 	bl      0x1514
    1898:	3c 00 80 61 	lis     r0,-32671
    189c:	7c 6b 1b 78 	mr      r11,r3
    18a0:	60 00 00 01 	ori     r0,r0,1
    18a4:	7f 80 18 00 	cmpw    cr7,r0,r3
    18a8:	41 9e 00 1c 	beq-    cr7,0x18c4
    18ac:	80 1f 00 50 	lwz     r0,80(r31)
    18b0:	39 60 00 00 	li      r11,0
    18b4:	1d 3e 00 68 	mulli   r9,r30,104
    18b8:	7d 29 02 14 	add     r9,r9,r0
    18bc:	39 29 00 28 	addi    r9,r9,40
    18c0:	91 3d 00 00 	stw     r9,0(r29)
    18c4:	e8 01 00 a0 	ld      r0,160(r1)
    18c8:	7d 63 07 b4 	extsw   r3,r11
    18cc:	eb a1 00 78 	ld      r29,120(r1)
    18d0:	eb c1 00 80 	ld      r30,128(r1)
    18d4:	7c 08 03 a6 	mtlr    r0
    18d8:	eb e1 00 88 	ld      r31,136(r1)
    18dc:	38 21 00 90 	addi    r1,r1,144
    18e0:	4e 80 00 20 	blr
    18e4:	38 60 00 00 	li      r3,0
    18e8:	4e 80 00 20 	blr
    18ec:	2f 85 00 40 	cmpwi   cr7,r5,64
    18f0:	80 03 00 50 	lwz     r0,80(r3)
    18f4:	41 9e 00 4c 	beq-    cr7,0x1940
    18f8:	2b 85 00 40 	cmplwi  cr7,r5,64
    18fc:	40 9d 00 20 	ble-    cr7,0x191c
    1900:	2f 85 00 80 	cmpwi   cr7,r5,128
    1904:	41 9e 00 68 	beq-    cr7,0x196c
    1908:	2f 85 01 00 	cmpwi   cr7,r5,256
    190c:	41 9e 00 4c 	beq-    cr7,0x1958
    1910:	38 60 00 00 	li      r3,0
    1914:	7c 63 07 b4 	extsw   r3,r3
    1918:	4e 80 00 20 	blr
    191c:	2f 85 00 10 	cmpwi   cr7,r5,16
    1920:	41 9e 00 64 	beq-    cr7,0x1984
    1924:	2f 85 00 20 	cmpwi   cr7,r5,32
    1928:	40 9e ff e8 	bne+    cr7,0x1910
    192c:	1d 24 00 68 	mulli   r9,r4,104
    1930:	7d 29 02 14 	add     r9,r9,r0
    1934:	79 29 00 20 	clrldi  r9,r9,32
    1938:	88 69 00 08 	lbz     r3,8(r9)
    193c:	4b ff ff d8 	b       0x1914
    1940:	1d 24 00 68 	mulli   r9,r4,104
    1944:	7d 29 02 14 	add     r9,r9,r0
    1948:	79 29 00 20 	clrldi  r9,r9,32
    194c:	88 69 00 09 	lbz     r3,9(r9)
    1950:	7c 63 07 b4 	extsw   r3,r3
    1954:	4e 80 00 20 	blr
    1958:	1d 24 00 68 	mulli   r9,r4,104
    195c:	7d 29 02 14 	add     r9,r9,r0
    1960:	79 29 00 20 	clrldi  r9,r9,32
    1964:	88 69 00 0b 	lbz     r3,11(r9)
    1968:	4b ff ff ac 	b       0x1914
    196c:	1d 24 00 68 	mulli   r9,r4,104
    1970:	7d 29 02 14 	add     r9,r9,r0
    1974:	79 29 00 20 	clrldi  r9,r9,32
    1978:	88 69 00 0a 	lbz     r3,10(r9)
    197c:	7c 63 07 b4 	extsw   r3,r3
    1980:	4e 80 00 20 	blr
    1984:	1d 24 00 68 	mulli   r9,r4,104
    1988:	7d 29 02 14 	add     r9,r9,r0
    198c:	79 29 00 20 	clrldi  r9,r9,32
    1990:	88 69 00 00 	lbz     r3,0(r9)
    1994:	7c 63 07 b4 	extsw   r3,r3
    1998:	4e 80 00 20 	blr
    199c:	2f 85 04 00 	cmpwi   cr7,r5,1024
    19a0:	80 03 00 50 	lwz     r0,80(r3)
    19a4:	41 9e 00 50 	beq-    cr7,0x19f4
    19a8:	2b 85 04 00 	cmplwi  cr7,r5,1024
    19ac:	40 9d 00 20 	ble-    cr7,0x19cc
    19b0:	2f 85 08 00 	cmpwi   cr7,r5,2048
    19b4:	41 9e 00 7c 	beq-    cr7,0x1a30
    19b8:	2f 85 10 00 	cmpwi   cr7,r5,4096
    19bc:	41 9e 00 58 	beq-    cr7,0x1a14
    19c0:	38 60 00 00 	li      r3,0
    19c4:	7c 63 07 b4 	extsw   r3,r3
    19c8:	4e 80 00 20 	blr
    19cc:	2f 85 02 00 	cmpwi   cr7,r5,512
    19d0:	40 9e ff f0 	bne+    cr7,0x19c0
    19d4:	38 60 00 01 	li      r3,1
    19d8:	1d 24 00 68 	mulli   r9,r4,104
    19dc:	7d 29 02 14 	add     r9,r9,r0
    19e0:	7c 63 07 b4 	extsw   r3,r3
    19e4:	79 29 00 20 	clrldi  r9,r9,32
    19e8:	38 00 00 01 	li      r0,1
    19ec:	98 09 00 08 	stb     r0,8(r9)
    19f0:	4e 80 00 20 	blr
    19f4:	38 60 00 01 	li      r3,1
    19f8:	1d 24 00 68 	mulli   r9,r4,104
    19fc:	7d 29 02 14 	add     r9,r9,r0
    1a00:	7c 63 07 b4 	extsw   r3,r3
    1a04:	79 29 00 20 	clrldi  r9,r9,32
    1a08:	38 00 00 01 	li      r0,1
    1a0c:	98 09 00 09 	stb     r0,9(r9)
    1a10:	4e 80 00 20 	blr
    1a14:	38 60 00 01 	li      r3,1
    1a18:	1d 24 00 68 	mulli   r9,r4,104
    1a1c:	7d 29 02 14 	add     r9,r9,r0
    1a20:	38 00 00 01 	li      r0,1
    1a24:	79 29 00 20 	clrldi  r9,r9,32
    1a28:	98 09 00 0b 	stb     r0,11(r9)
    1a2c:	4b ff ff 98 	b       0x19c4
    1a30:	38 60 00 01 	li      r3,1
    1a34:	1d 24 00 68 	mulli   r9,r4,104
    1a38:	7d 29 02 14 	add     r9,r9,r0
    1a3c:	7c 63 07 b4 	extsw   r3,r3
    1a40:	79 29 00 20 	clrldi  r9,r9,32
    1a44:	38 00 00 01 	li      r0,1
    1a48:	98 09 00 0a 	stb     r0,10(r9)
    1a4c:	4e 80 00 20 	blr
    1a50:	fb a1 ff e8 	std     r29,-24(r1)
    1a54:	7c 08 02 a6 	mflr    r0
    1a58:	39 60 00 65 	li      r11,101
    1a5c:	f8 01 00 10 	std     r0,16(r1)
    1a60:	80 63 00 80 	lwz     r3,128(r3)
    1a64:	44 00 00 02 	sc      
    1a68:	7c 60 fe 70 	srawi   r0,r3,31
    1a6c:	7c 1d 1a 78 	xor     r29,r0,r3
    1a70:	7f a0 e8 50 	subf    r29,r0,r29
    1a74:	3c 00 7f 9e 	lis     r0,32670
    1a78:	3b bd ff ff 	addi    r29,r29,-1
    1a7c:	60 00 ff ff 	ori     r0,r0,65535
    1a80:	7f bd fe 70 	srawi   r29,r29,31
    1a84:	7f a3 00 38 	and     r3,r29,r0
    1a88:	e8 01 00 10 	ld      r0,16(r1)
    1a8c:	eb a1 ff e8 	ld      r29,-24(r1)
    1a90:	3c 63 80 61 	addis   r3,r3,-32671
    1a94:	7c 08 03 a6 	mtlr    r0
    1a98:	38 63 00 01 	addi    r3,r3,1
    1a9c:	7c 63 07 b4 	extsw   r3,r3
    1aa0:	4e 80 00 20 	blr
    1aa4:	f8 21 ff 61 	stdu    r1,-160(r1)
    1aa8:	7c 08 02 a6 	mflr    r0
    1aac:	fb a1 00 88 	std     r29,136(r1)
    1ab0:	7c 9d 23 78 	mr      r29,r4
    1ab4:	7c 84 07 b4 	extsw   r4,r4
    1ab8:	fb 41 00 70 	std     r26,112(r1)
    1abc:	fb 61 00 78 	std     r27,120(r1)
    1ac0:	fb 81 00 80 	std     r28,128(r1)
    1ac4:	fb e1 00 98 	std     r31,152(r1)
    1ac8:	f8 01 00 b0 	std     r0,176(r1)
    1acc:	fb c1 00 90 	std     r30,144(r1)
    1ad0:	7c 7f 1b 78 	mr      r31,r3
    1ad4:	7c bc 2b 78 	mr      r28,r5
    1ad8:	7c db 33 78 	mr      r27,r6
    1adc:	7c fa 3b 78 	mr      r26,r7
    1ae0:	4b ff fa 35 	bl      0x1514
    1ae4:	3c 00 80 61 	lis     r0,-32671
    1ae8:	7c 69 1b 78 	mr      r9,r3
    1aec:	60 00 00 01 	ori     r0,r0,1
    1af0:	7f 80 18 00 	cmpw    cr7,r0,r3
    1af4:	41 9e 00 60 	beq-    cr7,0x1b54
    1af8:	80 1f 00 50 	lwz     r0,80(r31)
    1afc:	1d 5d 00 68 	mulli   r10,r29,104
    1b00:	7d 4a 02 14 	add     r10,r10,r0
    1b04:	38 00 00 00 	li      r0,0
    1b08:	39 2a 00 28 	addi    r9,r10,40
    1b0c:	79 4a 00 20 	clrldi  r10,r10,32
    1b10:	79 29 00 20 	clrldi  r9,r9,32
    1b14:	93 a9 00 00 	stw     r29,0(r9)
    1b18:	90 09 00 04 	stw     r0,4(r9)
    1b1c:	93 89 00 08 	stw     r28,8(r9)
    1b20:	93 69 00 0c 	stw     r27,12(r9)
    1b24:	e9 6a 00 10 	ld      r11,16(r10)
    1b28:	80 69 00 10 	lwz     r3,16(r9)
    1b2c:	f9 69 00 18 	std     r11,24(r9)
    1b30:	e8 0a 00 18 	ld      r0,24(r10)
    1b34:	f8 09 00 20 	std     r0,32(r9)
    1b38:	e9 6a 00 20 	ld      r11,32(r10)
    1b3c:	f9 69 00 28 	std     r11,40(r9)
    1b40:	80 9a 00 00 	lwz     r4,0(r26)
    1b44:	80 bf 00 54 	lwz     r5,84(r31)
    1b48:	48 00 32 91 	bl      0x4dd8
    1b4c:	e8 41 00 28 	ld      r2,40(r1)
    1b50:	39 20 00 00 	li      r9,0
    1b54:	e8 01 00 b0 	ld      r0,176(r1)
    1b58:	7d 23 07 b4 	extsw   r3,r9
    1b5c:	eb 41 00 70 	ld      r26,112(r1)
    1b60:	eb 61 00 78 	ld      r27,120(r1)
    1b64:	7c 08 03 a6 	mtlr    r0
    1b68:	eb 81 00 80 	ld      r28,128(r1)
    1b6c:	eb a1 00 88 	ld      r29,136(r1)
    1b70:	eb c1 00 90 	ld      r30,144(r1)
    1b74:	eb e1 00 98 	ld      r31,152(r1)
    1b78:	38 21 00 a0 	addi    r1,r1,160
    1b7c:	4e 80 00 20 	blr
    1b80:	f8 21 ff 61 	stdu    r1,-160(r1)
    1b84:	7c 08 02 a6 	mflr    r0
    1b88:	fb c1 00 90 	std     r30,144(r1)
    1b8c:	f8 01 00 b0 	std     r0,176(r1)
    1b90:	fb e1 00 98 	std     r31,152(r1)
    1b94:	7c 9e 23 78 	mr      r30,r4
    1b98:	7c 7f 1b 78 	mr      r31,r3
    1b9c:	80 63 00 80 	lwz     r3,128(r3)
    1ba0:	fb 61 00 78 	std     r27,120(r1)
    1ba4:	fb 81 00 80 	std     r28,128(r1)
    1ba8:	fb a1 00 88 	std     r29,136(r1)
    1bac:	38 80 00 00 	li      r4,0
    1bb0:	39 60 00 66 	li      r11,102
    1bb4:	44 00 00 02 	sc      
    1bb8:	3f 60 80 61 	lis     r27,-32671
    1bbc:	7f e3 fb 78 	mr      r3,r31
    1bc0:	7f c4 07 b4 	extsw   r4,r30
    1bc4:	63 7b 00 01 	ori     r27,r27,1
    1bc8:	4b ff f9 4d 	bl      0x1514
    1bcc:	7f 9b 18 00 	cmpw    cr7,r27,r3
    1bd0:	7c 7d 1b 78 	mr      r29,r3
    1bd4:	41 de 00 c0 	beq-    cr7,0x1c94
    1bd8:	81 5f 00 4c 	lwz     r10,76(r31)
    1bdc:	81 1f 00 50 	lwz     r8,80(r31)
    1be0:	2f 8a ff ff 	cmpwi   cr7,r10,-1
    1be4:	41 9e 00 70 	beq-    cr7,0x1c54
    1be8:	80 1f 00 48 	lwz     r0,72(r31)
    1bec:	2f 80 ff ff 	cmpwi   cr7,r0,-1
    1bf0:	41 de 00 90 	beq-    cr7,0x1c80
    1bf4:	1d 3e 00 68 	mulli   r9,r30,104
    1bf8:	7d 28 4a 14 	add     r9,r8,r9
    1bfc:	1d 6a 00 68 	mulli   r11,r10,104
    1c00:	7d 6b 42 14 	add     r11,r11,r8
    1c04:	79 29 00 20 	clrldi  r9,r9,32
    1c08:	79 6b 00 20 	clrldi  r11,r11,32
    1c0c:	91 49 00 64 	stw     r10,100(r9)
    1c10:	93 cb 00 60 	stw     r30,96(r11)
    1c14:	93 c9 00 60 	stw     r30,96(r9)
    1c18:	93 df 00 4c 	stw     r30,76(r31)
    1c1c:	80 7f 00 80 	lwz     r3,128(r31)
    1c20:	39 60 00 68 	li      r11,104
    1c24:	44 00 00 02 	sc      
    1c28:	38 60 00 00 	li      r3,0
    1c2c:	e8 01 00 b0 	ld      r0,176(r1)
    1c30:	7c 63 07 b4 	extsw   r3,r3
    1c34:	eb 61 00 78 	ld      r27,120(r1)
    1c38:	eb 81 00 80 	ld      r28,128(r1)
    1c3c:	7c 08 03 a6 	mtlr    r0
    1c40:	eb a1 00 88 	ld      r29,136(r1)
    1c44:	eb c1 00 90 	ld      r30,144(r1)
    1c48:	eb e1 00 98 	ld      r31,152(r1)
    1c4c:	38 21 00 a0 	addi    r1,r1,160
    1c50:	4e 80 00 20 	blr
    1c54:	80 1f 00 48 	lwz     r0,72(r31)
    1c58:	2f 80 ff ff 	cmpwi   cr7,r0,-1
    1c5c:	40 9e 00 24 	bne-    cr7,0x1c80
    1c60:	1d 3e 00 68 	mulli   r9,r30,104
    1c64:	7d 28 4a 14 	add     r9,r8,r9
    1c68:	79 29 00 20 	clrldi  r9,r9,32
    1c6c:	93 c9 00 60 	stw     r30,96(r9)
    1c70:	93 c9 00 64 	stw     r30,100(r9)
    1c74:	93 df 00 4c 	stw     r30,76(r31)
    1c78:	93 df 00 48 	stw     r30,72(r31)
    1c7c:	4b ff ff a0 	b       0x1c1c
    1c80:	80 7f 00 80 	lwz     r3,128(r31)
    1c84:	39 60 00 68 	li      r11,104
    1c88:	44 00 00 02 	sc      
    1c8c:	7f 63 db 78 	mr      r3,r27
    1c90:	4b ff ff 9c 	b       0x1c2c
    1c94:	80 7f 00 80 	lwz     r3,128(r31)
    1c98:	39 60 00 68 	li      r11,104
    1c9c:	44 00 00 02 	sc      
    1ca0:	7f a3 eb 78 	mr      r3,r29
    1ca4:	4b ff ff 88 	b       0x1c2c
    1ca8:	f8 21 ff 71 	stdu    r1,-144(r1)
    1cac:	7c 08 02 a6 	mflr    r0
    1cb0:	fb c1 00 80 	std     r30,128(r1)
    1cb4:	f8 01 00 a0 	std     r0,160(r1)
    1cb8:	fb e1 00 88 	std     r31,136(r1)
    1cbc:	7c 9e 23 78 	mr      r30,r4
    1cc0:	7c 7f 1b 78 	mr      r31,r3
    1cc4:	80 63 00 80 	lwz     r3,128(r3)
    1cc8:	fb 81 00 70 	std     r28,112(r1)
    1ccc:	fb a1 00 78 	std     r29,120(r1)
    1cd0:	38 80 00 00 	li      r4,0
    1cd4:	39 60 00 66 	li      r11,102
    1cd8:	44 00 00 02 	sc      
    1cdc:	3f 80 80 61 	lis     r28,-32671
    1ce0:	7f e3 fb 78 	mr      r3,r31
    1ce4:	7f c4 07 b4 	extsw   r4,r30
    1ce8:	63 9c 00 01 	ori     r28,r28,1
    1cec:	4b ff f8 29 	bl      0x1514
    1cf0:	7f 9c 18 00 	cmpw    cr7,r28,r3
    1cf4:	7c 7d 1b 78 	mr      r29,r3
    1cf8:	41 de 01 4c 	beq-    cr7,0x1e44
    1cfc:	81 3f 00 48 	lwz     r9,72(r31)
    1d00:	39 60 ff ff 	li      r11,-1
    1d04:	2f 89 ff ff 	cmpwi   cr7,r9,-1
    1d08:	41 9e 00 a0 	beq-    cr7,0x1da8
    1d0c:	80 9f 00 4c 	lwz     r4,76(r31)
    1d10:	2f 84 ff ff 	cmpwi   cr7,r4,-1
    1d14:	41 9e 00 a0 	beq-    cr7,0x1db4
    1d18:	81 5f 00 50 	lwz     r10,80(r31)
    1d1c:	7f 89 20 00 	cmpw    cr7,r9,r4
    1d20:	1c 1e 00 68 	mulli   r0,r30,104
    1d24:	7c 0a 02 14 	add     r0,r10,r0
    1d28:	78 08 00 20 	clrldi  r8,r0,32
    1d2c:	80 c8 00 64 	lwz     r6,100(r8)
    1d30:	80 e8 00 60 	lwz     r7,96(r8)
    1d34:	41 9e 00 d0 	beq-    cr7,0x1e04
    1d38:	7f 9e 48 00 	cmpw    cr7,r30,r9
    1d3c:	41 9e 00 dc 	beq-    cr7,0x1e18
    1d40:	7f 9e 20 00 	cmpw    cr7,r30,r4
    1d44:	41 9e 00 a8 	beq-    cr7,0x1dec
    1d48:	1d 27 00 68 	mulli   r9,r7,104
    1d4c:	7d 29 52 14 	add     r9,r9,r10
    1d50:	1d 66 00 68 	mulli   r11,r6,104
    1d54:	7d 6b 52 14 	add     r11,r11,r10
    1d58:	79 29 00 20 	clrldi  r9,r9,32
    1d5c:	79 6b 00 20 	clrldi  r11,r11,32
    1d60:	90 c9 00 64 	stw     r6,100(r9)
    1d64:	90 eb 00 60 	stw     r7,96(r11)
    1d68:	38 00 ff ff 	li      r0,-1
    1d6c:	39 60 00 68 	li      r11,104
    1d70:	90 08 00 60 	stw     r0,96(r8)
    1d74:	90 08 00 64 	stw     r0,100(r8)
    1d78:	80 7f 00 80 	lwz     r3,128(r31)
    1d7c:	44 00 00 02 	sc      
    1d80:	38 60 00 00 	li      r3,0
    1d84:	e8 01 00 a0 	ld      r0,160(r1)
    1d88:	eb 81 00 70 	ld      r28,112(r1)
    1d8c:	7c 63 07 b4 	extsw   r3,r3
    1d90:	eb a1 00 78 	ld      r29,120(r1)
    1d94:	eb c1 00 80 	ld      r30,128(r1)
    1d98:	7c 08 03 a6 	mtlr    r0
    1d9c:	eb e1 00 88 	ld      r31,136(r1)
    1da0:	38 21 00 90 	addi    r1,r1,144
    1da4:	4e 80 00 20 	blr
    1da8:	80 1f 00 4c 	lwz     r0,76(r31)
    1dac:	2f 80 ff ff 	cmpwi   cr7,r0,-1
    1db0:	41 de 00 80 	beq-    cr7,0x1e30
    1db4:	80 7f 00 80 	lwz     r3,128(r31)
    1db8:	39 60 00 68 	li      r11,104
    1dbc:	44 00 00 02 	sc      
    1dc0:	3c 60 80 61 	lis     r3,-32671
    1dc4:	60 63 00 01 	ori     r3,r3,1
    1dc8:	e8 01 00 a0 	ld      r0,160(r1)
    1dcc:	7c 63 07 b4 	extsw   r3,r3
    1dd0:	eb 81 00 70 	ld      r28,112(r1)
    1dd4:	eb a1 00 78 	ld      r29,120(r1)
    1dd8:	7c 08 03 a6 	mtlr    r0
    1ddc:	eb c1 00 80 	ld      r30,128(r1)
    1de0:	eb e1 00 88 	ld      r31,136(r1)
    1de4:	38 21 00 90 	addi    r1,r1,144
    1de8:	4e 80 00 20 	blr
    1dec:	90 df 00 4c 	stw     r6,76(r31)
    1df0:	1d 26 00 68 	mulli   r9,r6,104
    1df4:	7d 29 52 14 	add     r9,r9,r10
    1df8:	79 29 00 20 	clrldi  r9,r9,32
    1dfc:	90 c9 00 60 	stw     r6,96(r9)
    1e00:	4b ff ff 68 	b       0x1d68
    1e04:	7f 9e 20 00 	cmpw    cr7,r30,r4
    1e08:	40 9e 00 28 	bne-    cr7,0x1e30
    1e0c:	91 7f 00 4c 	stw     r11,76(r31)
    1e10:	91 7f 00 48 	stw     r11,72(r31)
    1e14:	4b ff ff 54 	b       0x1d68
    1e18:	90 ff 00 48 	stw     r7,72(r31)
    1e1c:	1d 27 00 68 	mulli   r9,r7,104
    1e20:	7d 29 52 14 	add     r9,r9,r10
    1e24:	79 29 00 20 	clrldi  r9,r9,32
    1e28:	90 e9 00 64 	stw     r7,100(r9)
    1e2c:	4b ff ff 3c 	b       0x1d68
    1e30:	80 7f 00 80 	lwz     r3,128(r31)
    1e34:	39 60 00 68 	li      r11,104
    1e38:	44 00 00 02 	sc      
    1e3c:	7f 83 e3 78 	mr      r3,r28
    1e40:	4b ff ff 88 	b       0x1dc8
    1e44:	80 7f 00 80 	lwz     r3,128(r31)
    1e48:	39 60 00 68 	li      r11,104
    1e4c:	44 00 00 02 	sc      
    1e50:	7f a3 eb 78 	mr      r3,r29
    1e54:	4b ff ff 74 	b       0x1dc8
    1e58:	fb e1 ff f8 	std     r31,-8(r1)
    1e5c:	7c 08 02 a6 	mflr    r0
    1e60:	7c 7f 1b 78 	mr      r31,r3
    1e64:	f8 01 00 10 	std     r0,16(r1)
    1e68:	38 80 00 00 	li      r4,0
    1e6c:	80 63 01 50 	lwz     r3,336(r3)
    1e70:	39 60 00 66 	li      r11,102
    1e74:	44 00 00 02 	sc      
    1e78:	2f 83 00 00 	cmpwi   cr7,r3,0
    1e7c:	40 9e 00 20 	bne-    cr7,0x1e9c
    1e80:	80 1f 02 64 	lwz     r0,612(r31)
    1e84:	39 60 00 68 	li      r11,104
    1e88:	2f 80 00 00 	cmpwi   cr7,r0,0
    1e8c:	40 9e 00 24 	bne-    cr7,0x1eb0
    1e90:	80 7f 01 50 	lwz     r3,336(r31)
    1e94:	39 60 00 68 	li      r11,104
    1e98:	44 00 00 02 	sc      
    1e9c:	e8 01 00 10 	ld      r0,16(r1)
    1ea0:	7c 63 07 b4 	extsw   r3,r3
    1ea4:	eb e1 ff f8 	ld      r31,-8(r1)
    1ea8:	7c 08 03 a6 	mtlr    r0
    1eac:	4e 80 00 20 	blr
    1eb0:	80 7f 01 50 	lwz     r3,336(r31)
    1eb4:	44 00 00 02 	sc      
    1eb8:	3c 60 80 61 	lis     r3,-32671
    1ebc:	60 63 00 02 	ori     r3,r3,2
    1ec0:	4b ff ff dc 	b       0x1e9c
    1ec4:	38 00 00 00 	li      r0,0
    1ec8:	39 20 00 04 	li      r9,4
    1ecc:	39 43 01 d0 	addi    r10,r3,464
    1ed0:	39 00 00 00 	li      r8,0
    1ed4:	7d 29 03 a6 	mtctr   r9
    1ed8:	38 e0 00 00 	li      r7,0
    1edc:	90 03 01 cc 	stw     r0,460(r3)
    1ee0:	90 03 01 c4 	stw     r0,452(r3)
    1ee4:	90 03 01 c8 	stw     r0,456(r3)
    1ee8:	81 23 01 00 	lwz     r9,256(r3)
    1eec:	3d 68 00 04 	addis   r11,r8,4
    1ef0:	90 ea 00 00 	stw     r7,0(r10)
    1ef4:	39 29 04 0e 	addi    r9,r9,1038
    1ef8:	7d 29 42 14 	add     r9,r9,r8
    1efc:	39 0b c1 0e 	addi    r8,r11,-16114
    1f00:	55 29 00 30 	rlwinm  r9,r9,0,0,24
    1f04:	3d 69 00 04 	addis   r11,r9,4
    1f08:	91 2a 00 08 	stw     r9,8(r10)
    1f0c:	39 6b c0 80 	addi    r11,r11,-16256
    1f10:	91 6a 00 0c 	stw     r11,12(r10)
    1f14:	39 4a 00 10 	addi    r10,r10,16
    1f18:	42 00 ff d0 	bdnz+   0x1ee8
    1f1c:	38 60 00 00 	li      r3,0
    1f20:	4e 80 00 20 	blr
    1f24:	fb 81 ff e0 	std     r28,-32(r1)
    1f28:	7c 08 02 a6 	mflr    r0
    1f2c:	fb c1 ff f0 	std     r30,-16(r1)
    1f30:	f8 01 00 10 	std     r0,16(r1)
    1f34:	fb e1 ff f8 	std     r31,-8(r1)
    1f38:	7c 7e 1b 78 	mr      r30,r3
    1f3c:	83 83 01 04 	lwz     r28,260(r3)
    1f40:	7c 9f 23 78 	mr      r31,r4
    1f44:	80 63 01 50 	lwz     r3,336(r3)
    1f48:	fb a1 ff e8 	std     r29,-24(r1)
    1f4c:	38 80 00 00 	li      r4,0
    1f50:	39 60 00 66 	li      r11,102
    1f54:	44 00 00 02 	sc      
    1f58:	2f 83 00 00 	cmpwi   cr7,r3,0
    1f5c:	40 9e 00 cc 	bne-    cr7,0x2028
    1f60:	81 3e 00 b4 	lwz     r9,180(r30)
    1f64:	7b 84 00 20 	clrldi  r4,r28,32
    1f68:	39 60 00 68 	li      r11,104
    1f6c:	38 09 00 01 	addi    r0,r9,1
    1f70:	1d 29 00 2c 	mulli   r9,r9,44
    1f74:	7d 25 07 b4 	extsw   r5,r9
    1f78:	54 03 07 be 	clrlwi  r3,r0,30
    1f7c:	7c de 2a 14 	add     r6,r30,r5
    1f80:	7c 1e 28 2e 	lwzx    r0,r30,r5
    1f84:	2f 80 00 ff 	cmpwi   cr7,r0,255
    1f88:	40 9e 00 c0 	bne-    cr7,0x2048
    1f8c:	80 1f 00 00 	lwz     r0,0(r31)
    1f90:	39 60 00 68 	li      r11,104
    1f94:	81 3f 00 04 	lwz     r9,4(r31)
    1f98:	81 5f 00 08 	lwz     r10,8(r31)
    1f9c:	81 1f 00 0c 	lwz     r8,12(r31)
    1fa0:	7c 1e 29 2e 	stwx    r0,r30,r5
    1fa4:	91 26 00 04 	stw     r9,4(r6)
    1fa8:	91 46 00 08 	stw     r10,8(r6)
    1fac:	91 06 00 0c 	stw     r8,12(r6)
    1fb0:	81 3f 00 14 	lwz     r9,20(r31)
    1fb4:	81 5f 00 18 	lwz     r10,24(r31)
    1fb8:	81 1f 00 1c 	lwz     r8,28(r31)
    1fbc:	80 1f 00 10 	lwz     r0,16(r31)
    1fc0:	80 fe 00 b8 	lwz     r7,184(r30)
    1fc4:	91 26 00 14 	stw     r9,20(r6)
    1fc8:	90 06 00 10 	stw     r0,16(r6)
    1fcc:	91 46 00 18 	stw     r10,24(r6)
    1fd0:	91 06 00 1c 	stw     r8,28(r6)
    1fd4:	81 3f 00 20 	lwz     r9,32(r31)
    1fd8:	38 e7 00 01 	addi    r7,r7,1
    1fdc:	81 5f 00 24 	lwz     r10,36(r31)
    1fe0:	80 1f 00 28 	lwz     r0,40(r31)
    1fe4:	90 7e 00 b4 	stw     r3,180(r30)
    1fe8:	91 26 00 20 	stw     r9,32(r6)
    1fec:	90 06 00 28 	stw     r0,40(r6)
    1ff0:	91 46 00 24 	stw     r10,36(r6)
    1ff4:	90 fe 00 b8 	stw     r7,184(r30)
    1ff8:	80 04 00 00 	lwz     r0,0(r4)
    1ffc:	81 04 00 0c 	lwz     r8,12(r4)
    2000:	81 24 00 04 	lwz     r9,4(r4)
    2004:	81 44 00 08 	lwz     r10,8(r4)
    2008:	90 1f 00 14 	stw     r0,20(r31)
    200c:	91 3f 00 18 	stw     r9,24(r31)
    2010:	91 5f 00 1c 	stw     r10,28(r31)
    2014:	91 1f 00 20 	stw     r8,32(r31)
    2018:	80 1e 01 84 	lwz     r0,388(r30)
    201c:	90 1f 00 28 	stw     r0,40(r31)
    2020:	80 7e 01 50 	lwz     r3,336(r30)
    2024:	44 00 00 02 	sc      
    2028:	e8 01 00 10 	ld      r0,16(r1)
    202c:	7c 63 07 b4 	extsw   r3,r3
    2030:	eb 81 ff e0 	ld      r28,-32(r1)
    2034:	7c 08 03 a6 	mtlr    r0
    2038:	eb a1 ff e8 	ld      r29,-24(r1)
    203c:	eb c1 ff f0 	ld      r30,-16(r1)
    2040:	eb e1 ff f8 	ld      r31,-8(r1)
    2044:	4e 80 00 20 	blr
    2048:	80 7e 01 50 	lwz     r3,336(r30)
    204c:	44 00 00 02 	sc      
    2050:	2f 83 00 00 	cmpwi   cr7,r3,0
    2054:	40 9e ff d4 	bne+    cr7,0x2028
    2058:	3c 60 80 61 	lis     r3,-32671
    205c:	60 63 00 01 	ori     r3,r3,1
    2060:	4b ff ff c8 	b       0x2028
    2064:	fb c1 ff f0 	std     r30,-16(r1)
    2068:	7c 08 02 a6 	mflr    r0
    206c:	7c 9e 23 78 	mr      r30,r4
    2070:	f8 01 00 10 	std     r0,16(r1)
    2074:	fb a1 ff e8 	std     r29,-24(r1)
    2078:	fb e1 ff f8 	std     r31,-8(r1)
    207c:	7c 9d 23 78 	mr      r29,r4
    2080:	78 7f 00 20 	clrldi  r31,r3,32
    2084:	80 7e 01 50 	lwz     r3,336(r30)
    2088:	38 80 00 00 	li      r4,0
    208c:	39 60 00 66 	li      r11,102
    2090:	44 00 00 02 	sc      
    2094:	80 de 00 b0 	lwz     r6,176(r30)
    2098:	39 60 00 68 	li      r11,104
    209c:	1c 06 00 2c 	mulli   r0,r6,44
    20a0:	7c 00 07 b4 	extsw   r0,r0
    20a4:	7d 3e 00 2e 	lwzx    r9,r30,r0
    20a8:	2f 89 00 ff 	cmpwi   cr7,r9,255
    20ac:	40 9e 00 10 	bne-    cr7,0x20bc
    20b0:	80 7e 01 50 	lwz     r3,336(r30)
    20b4:	44 00 00 02 	sc      
    20b8:	80 de 00 b0 	lwz     r6,176(r30)
    20bc:	39 60 00 68 	li      r11,104
    20c0:	1c c6 00 2c 	mulli   r6,r6,44
    20c4:	7c c6 07 b4 	extsw   r6,r6
    20c8:	7d 3d 32 14 	add     r9,r29,r6
    20cc:	7c 1d 30 2e 	lwzx    r0,r29,r6
    20d0:	81 49 00 04 	lwz     r10,4(r9)
    20d4:	81 09 00 08 	lwz     r8,8(r9)
    20d8:	80 e9 00 0c 	lwz     r7,12(r9)
    20dc:	90 1f 00 00 	stw     r0,0(r31)
    20e0:	91 5f 00 04 	stw     r10,4(r31)
    20e4:	91 1f 00 08 	stw     r8,8(r31)
    20e8:	90 ff 00 0c 	stw     r7,12(r31)
    20ec:	80 09 00 10 	lwz     r0,16(r9)
    20f0:	81 49 00 14 	lwz     r10,20(r9)
    20f4:	81 09 00 18 	lwz     r8,24(r9)
    20f8:	80 e9 00 1c 	lwz     r7,28(r9)
    20fc:	90 1f 00 10 	stw     r0,16(r31)
    2100:	91 5f 00 14 	stw     r10,20(r31)
    2104:	91 1f 00 18 	stw     r8,24(r31)
    2108:	90 ff 00 1c 	stw     r7,28(r31)
    210c:	80 09 00 20 	lwz     r0,32(r9)
    2110:	81 49 00 24 	lwz     r10,36(r9)
    2114:	81 09 00 28 	lwz     r8,40(r9)
    2118:	90 1f 00 20 	stw     r0,32(r31)
    211c:	38 00 00 ff 	li      r0,255
    2120:	91 5f 00 24 	stw     r10,36(r31)
    2124:	91 1f 00 28 	stw     r8,40(r31)
    2128:	7c 1d 31 2e 	stwx    r0,r29,r6
    212c:	81 3e 00 b0 	lwz     r9,176(r30)
    2130:	81 5e 00 b8 	lwz     r10,184(r30)
    2134:	39 29 00 01 	addi    r9,r9,1
    2138:	80 7e 01 50 	lwz     r3,336(r30)
    213c:	39 4a ff ff 	addi    r10,r10,-1
    2140:	55 29 07 be 	clrlwi  r9,r9,30
    2144:	91 5e 00 b8 	stw     r10,184(r30)
    2148:	91 3e 00 b0 	stw     r9,176(r30)
    214c:	44 00 00 02 	sc      
    2150:	e8 01 00 10 	ld      r0,16(r1)
    2154:	7f e3 fb 78 	mr      r3,r31
    2158:	eb a1 ff e8 	ld      r29,-24(r1)
    215c:	7c 08 03 a6 	mtlr    r0
    2160:	eb c1 ff f0 	ld      r30,-16(r1)
    2164:	eb e1 ff f8 	ld      r31,-8(r1)
    2168:	4e 80 00 20 	blr
    216c:	7c 69 1b 78 	mr      r9,r3
    2170:	39 60 00 ff 	li      r11,255
    2174:	38 00 00 00 	li      r0,0
    2178:	38 60 00 00 	li      r3,0
    217c:	91 69 00 84 	stw     r11,132(r9)
    2180:	90 09 00 b8 	stw     r0,184(r9)
    2184:	90 09 00 b0 	stw     r0,176(r9)
    2188:	90 09 00 b4 	stw     r0,180(r9)
    218c:	91 69 00 00 	stw     r11,0(r9)
    2190:	91 69 00 2c 	stw     r11,44(r9)
    2194:	91 69 00 58 	stw     r11,88(r9)
    2198:	4e 80 00 20 	blr
    219c:	7c 6b 1b 78 	mr      r11,r3
    21a0:	7c 08 02 a6 	mflr    r0
    21a4:	f8 21 ff 91 	stdu    r1,-112(r1)
    21a8:	f8 01 00 80 	std     r0,128(r1)
    21ac:	3c 60 80 61 	lis     r3,-32671
    21b0:	80 0b 00 f4 	lwz     r0,244(r11)
    21b4:	60 63 20 03 	ori     r3,r3,8195
    21b8:	2f 80 00 00 	cmpwi   cr7,r0,0
    21bc:	78 09 00 20 	clrldi  r9,r0,32
    21c0:	41 9e 00 24 	beq-    cr7,0x21e4
    21c4:	80 09 00 00 	lwz     r0,0(r9)
    21c8:	80 6b 00 f8 	lwz     r3,248(r11)
    21cc:	f8 41 00 28 	std     r2,40(r1)
    21d0:	7c 09 03 a6 	mtctr   r0
    21d4:	80 49 00 04 	lwz     r2,4(r9)
    21d8:	4e 80 04 21 	bctrl
    21dc:	e8 41 00 28 	ld      r2,40(r1)
    21e0:	38 60 00 00 	li      r3,0
    21e4:	e8 01 00 80 	ld      r0,128(r1)
    21e8:	7c 63 07 b4 	extsw   r3,r3
    21ec:	38 21 00 70 	addi    r1,r1,112
    21f0:	7c 08 03 a6 	mtlr    r0
    21f4:	4e 80 00 20 	blr
    21f8:	78 63 00 20 	clrldi  r3,r3,32
    21fc:	38 00 00 23 	li      r0,35
    2200:	39 20 00 03 	li      r9,3
    2204:	98 03 00 03 	stb     r0,3(r3)
    2208:	99 23 00 02 	stb     r9,2(r3)
    220c:	38 00 00 07 	li      r0,7
    2210:	39 20 00 20 	li      r9,32
    2214:	98 03 00 01 	stb     r0,1(r3)
    2218:	99 23 00 00 	stb     r9,0(r3)
    221c:	4e 80 00 20 	blr
    2220:	38 60 00 00 	li      r3,0
    2224:	4e 80 00 20 	blr
    2228:	38 60 00 08 	li      r3,8
    222c:	4e 80 00 20 	blr
    2230:	38 60 00 0c 	li      r3,12
    2234:	4e 80 00 20 	blr
    2238:	e9 04 00 10 	ld      r8,16(r4)
    223c:	80 e3 01 04 	lwz     r7,260(r3)
    2240:	79 09 06 22 	rldicl  r9,r8,32,56
    2244:	79 0b 86 20 	rldicl  r11,r8,16,56
    2248:	2b 89 00 0b 	cmplwi  cr7,r9,11
    224c:	79 00 c6 20 	rldicl  r0,r8,24,56
    2250:	91 67 00 08 	stw     r11,8(r7)
    2254:	90 07 00 04 	stw     r0,4(r7)
    2258:	91 27 00 00 	stw     r9,0(r7)
    225c:	7d 66 5b 78 	mr      r6,r11
    2260:	41 9d 00 8c 	bgt-    cr7,0x22ec
    2264:	81 62 80 20 	lwz     r11,-32736(r2)
    2268:	55 29 15 ba 	rlwinm  r9,r9,2,22,29
    226c:	7c 09 58 2e 	lwzx    r0,r9,r11
    2270:	7c 00 07 b4 	extsw   r0,r0
    2274:	7c 00 5a 14 	add     r0,r0,r11
    2278:	7c 09 03 a6 	mtctr   r0
    227c:	4e 80 04 20 	bctr
    2280:	00 00 00 6c 	.long 0x6c
    2284:	00 00 00 30 	.long 0x30
    2288:	00 00 00 6c 	.long 0x6c
    228c:	00 00 00 30 	.long 0x30
    2290:	00 00 00 9c 	.long 0x9c
    2294:	00 00 00 9c 	.long 0x9c
    2298:	00 00 00 9c 	.long 0x9c
    229c:	00 00 00 9c 	.long 0x9c
    22a0:	00 00 00 94 	.long 0x94
    22a4:	00 00 00 94 	.long 0x94
    22a8:	00 00 00 7c 	.long 0x7c
    22ac:	00 00 00 7c 	.long 0x7c
    22b0:	39 40 00 02 	li      r10,2
    22b4:	80 07 00 04 	lwz     r0,4(r7)
    22b8:	2f 80 00 03 	cmpwi   cr7,r0,3
    22bc:	41 9e 00 50 	beq-    cr7,0x230c
    22c0:	2f 80 00 04 	cmpwi   cr7,r0,4
    22c4:	41 9e 00 60 	beq-    cr7,0x2324
    22c8:	2f 80 00 01 	cmpwi   cr7,r0,1
    22cc:	40 9e 00 20 	bne-    cr7,0x22ec
    22d0:	39 20 00 30 	li      r9,48
    22d4:	2f 86 00 01 	cmpwi   cr7,r6,1
    22d8:	41 9e 00 54 	beq-    cr7,0x232c
    22dc:	2b 86 00 01 	cmplwi  cr7,r6,1
    22e0:	41 9c 00 0c 	blt-    cr7,0x22ec
    22e4:	2b 86 00 03 	cmplwi  cr7,r6,3
    22e8:	40 9d 00 78 	ble-    cr7,0x2360
    22ec:	3c 60 80 61 	lis     r3,-32671
    22f0:	60 63 00 01 	ori     r3,r3,1
    22f4:	7c 63 07 b4 	extsw   r3,r3
    22f8:	4e 80 00 20 	blr
    22fc:	80 07 00 04 	lwz     r0,4(r7)
    2300:	39 40 00 08 	li      r10,8
    2304:	2f 80 00 03 	cmpwi   cr7,r0,3
    2308:	40 9e ff b8 	bne+    cr7,0x22c0
    230c:	39 20 00 60 	li      r9,96
    2310:	4b ff ff c4 	b       0x22d4
    2314:	39 40 00 06 	li      r10,6
    2318:	4b ff ff 9c 	b       0x22b4
    231c:	39 40 00 04 	li      r10,4
    2320:	4b ff ff 94 	b       0x22b4
    2324:	39 20 00 c0 	li      r9,192
    2328:	4b ff ff ac 	b       0x22d4
    232c:	38 c0 00 10 	li      r6,16
    2330:	55 40 10 3a 	rlwinm  r0,r10,2,0,29
    2334:	79 0b 46 20 	rldicl  r11,r8,8,56
    2338:	7c 00 52 14 	add     r0,r0,r10
    233c:	38 60 00 00 	li      r3,0
    2340:	7d 29 31 d6 	mullw   r9,r9,r6
    2344:	7c 63 07 b4 	extsw   r3,r3
    2348:	7d 29 01 d6 	mullw   r9,r9,r0
    234c:	7d 29 1e 70 	srawi   r9,r9,3
    2350:	7d 29 01 94 	addze   r9,r9
    2354:	7d 29 59 d6 	mullw   r9,r9,r11
    2358:	91 27 00 0c 	stw     r9,12(r7)
    235c:	4e 80 00 20 	blr
    2360:	38 c0 00 18 	li      r6,24
    2364:	4b ff ff cc 	b       0x2330
    2368:	e8 e4 00 10 	ld      r7,16(r4)
    236c:	81 03 01 04 	lwz     r8,260(r3)
    2370:	78 e9 c6 20 	rldicl  r9,r7,24,56
    2374:	78 eb 86 20 	rldicl  r11,r7,16,56
    2378:	2f 89 00 01 	cmpwi   cr7,r9,1
    237c:	78 e0 06 22 	rldicl  r0,r7,32,56
    2380:	91 68 00 08 	stw     r11,8(r8)
    2384:	90 08 00 00 	stw     r0,0(r8)
    2388:	91 28 00 04 	stw     r9,4(r8)
    238c:	41 9e 00 1c 	beq-    cr7,0x23a8
    2390:	2f 89 00 03 	cmpwi   cr7,r9,3
    2394:	41 9e 00 84 	beq-    cr7,0x2418
    2398:	3c 60 80 61 	lis     r3,-32671
    239c:	60 63 00 01 	ori     r3,r3,1
    23a0:	7c 63 07 b4 	extsw   r3,r3
    23a4:	4e 80 00 20 	blr
    23a8:	2f 8b 00 02 	cmpwi   cr7,r11,2
    23ac:	39 40 00 50 	li      r10,80
    23b0:	41 9e 00 74 	beq-    cr7,0x2424
    23b4:	2f 8b 00 03 	cmpwi   cr7,r11,3
    23b8:	41 9e 00 74 	beq-    cr7,0x242c
    23bc:	2f 8b 00 01 	cmpwi   cr7,r11,1
    23c0:	40 9e ff d8 	bne+    cr7,0x2398
    23c4:	38 c0 00 10 	li      r6,16
    23c8:	80 08 00 00 	lwz     r0,0(r8)
    23cc:	2b 80 00 09 	cmplwi  cr7,r0,9
    23d0:	41 9d ff c8 	bgt+    cr7,0x2398
    23d4:	81 62 80 24 	lwz     r11,-32732(r2)
    23d8:	78 09 17 88 	rldic   r9,r0,2,30
    23dc:	7c 09 58 2e 	lwzx    r0,r9,r11
    23e0:	7c 00 07 b4 	extsw   r0,r0
    23e4:	7c 00 5a 14 	add     r0,r0,r11
    23e8:	7c 09 03 a6 	mtctr   r0
    23ec:	4e 80 04 20 	bctr
    23f0:	ff ff ff a8 	.long 0xffffffa8
    23f4:	00 00 00 44 	.long 0x44
    23f8:	ff ff ff a8 	.long 0xffffffa8
    23fc:	00 00 00 70 	.long 0x70
    2400:	00 00 00 78 	.long 0x78
    2404:	00 00 00 88 	.long 0x88
    2408:	00 00 00 98 	.long 0x98
    240c:	00 00 00 a8 	.long 0xa8
    2410:	00 00 00 c0 	.long 0xc0
    2414:	00 00 00 d8 	.long 0xd8
    2418:	2f 8b 00 02 	cmpwi   cr7,r11,2
    241c:	39 40 00 a0 	li      r10,160
    2420:	40 9e ff 94 	bne+    cr7,0x23b4
    2424:	38 c0 00 14 	li      r6,20
    2428:	4b ff ff a0 	b       0x23c8
    242c:	38 c0 00 18 	li      r6,24
    2430:	4b ff ff 98 	b       0x23c8
    2434:	38 00 00 01 	li      r0,1
    2438:	78 e9 46 20 	rldicl  r9,r7,8,56
    243c:	38 60 00 00 	li      r3,0
    2440:	7c 06 01 d6 	mullw   r0,r6,r0
    2444:	7c 63 07 b4 	extsw   r3,r3
    2448:	7c 0a 01 d6 	mullw   r0,r10,r0
    244c:	7c 00 1e 70 	srawi   r0,r0,3
    2450:	7c 00 01 94 	addze   r0,r0
    2454:	7c 00 49 d6 	mullw   r0,r0,r9
    2458:	90 08 00 0c 	stw     r0,12(r8)
    245c:	4e 80 00 20 	blr
    2460:	38 00 00 02 	li      r0,2
    2464:	4b ff ff d4 	b       0x2438
    2468:	2f 8a 00 a0 	cmpwi   cr7,r10,160
    246c:	41 de 00 74 	beq-    cr7,0x24e0
    2470:	38 00 00 03 	li      r0,3
    2474:	4b ff ff c4 	b       0x2438
    2478:	2f 8a 00 a0 	cmpwi   cr7,r10,160
    247c:	41 de 00 74 	beq-    cr7,0x24f0
    2480:	38 00 00 04 	li      r0,4
    2484:	4b ff ff b4 	b       0x2438
    2488:	2f 8a 00 a0 	cmpwi   cr7,r10,160
    248c:	38 00 00 05 	li      r0,5
    2490:	40 9e ff a8 	bne+    cr7,0x2438
    2494:	4b ff ff 04 	b       0x2398
    2498:	2f 8a 00 a0 	cmpwi   cr7,r10,160
    249c:	41 9e fe fc 	beq+    cr7,0x2398
    24a0:	2f 8a 00 50 	cmpwi   cr7,r10,80
    24a4:	41 de 00 7c 	beq-    cr7,0x2520
    24a8:	38 00 00 06 	li      r0,6
    24ac:	4b ff ff 8c 	b       0x2438
    24b0:	2f 8a 00 a0 	cmpwi   cr7,r10,160
    24b4:	41 9e fe e4 	beq+    cr7,0x2398
    24b8:	2f 8a 00 50 	cmpwi   cr7,r10,80
    24bc:	41 de 00 74 	beq-    cr7,0x2530
    24c0:	38 00 00 07 	li      r0,7
    24c4:	4b ff ff 74 	b       0x2438
    24c8:	2f 8a 00 a0 	cmpwi   cr7,r10,160
    24cc:	41 9e fe cc 	beq+    cr7,0x2398
    24d0:	2f 8a 00 50 	cmpwi   cr7,r10,80
    24d4:	41 de 00 34 	beq-    cr7,0x2508
    24d8:	38 00 00 08 	li      r0,8
    24dc:	4b ff ff 5c 	b       0x2438
    24e0:	2f 86 00 18 	cmpwi   cr7,r6,24
    24e4:	41 9e fe b4 	beq+    cr7,0x2398
    24e8:	38 00 00 03 	li      r0,3
    24ec:	4b ff ff 4c 	b       0x2438
    24f0:	2f 86 00 18 	cmpwi   cr7,r6,24
    24f4:	41 9e fe a4 	beq+    cr7,0x2398
    24f8:	2f 86 00 14 	cmpwi   cr7,r6,20
    24fc:	41 9e fe 9c 	beq+    cr7,0x2398
    2500:	38 00 00 04 	li      r0,4
    2504:	4b ff ff 34 	b       0x2438
    2508:	2f 86 00 18 	cmpwi   cr7,r6,24
    250c:	41 9e fe 8c 	beq+    cr7,0x2398
    2510:	2f 86 00 14 	cmpwi   cr7,r6,20
    2514:	41 9e fe 84 	beq+    cr7,0x2398
    2518:	38 00 00 08 	li      r0,8
    251c:	4b ff ff 1c 	b       0x2438
    2520:	2f 86 00 18 	cmpwi   cr7,r6,24
    2524:	41 9e fe 74 	beq+    cr7,0x2398
    2528:	38 00 00 06 	li      r0,6
    252c:	4b ff ff 0c 	b       0x2438
    2530:	2f 86 00 18 	cmpwi   cr7,r6,24
    2534:	41 9e fe 64 	beq+    cr7,0x2398
    2538:	2f 86 00 14 	cmpwi   cr7,r6,20
    253c:	41 9e fe 5c 	beq+    cr7,0x2398
    2540:	38 00 00 07 	li      r0,7
    2544:	4b ff fe f4 	b       0x2438
    2548:	fb c1 ff f0 	std     r30,-16(r1)
    254c:	7c 08 02 a6 	mflr    r0
    2550:	fb e1 ff f8 	std     r31,-8(r1)
    2554:	f8 01 00 10 	std     r0,16(r1)
    2558:	7c 7f 1b 78 	mr      r31,r3
    255c:	80 63 01 50 	lwz     r3,336(r3)
    2560:	7c 9e 23 78 	mr      r30,r4
    2564:	39 60 00 66 	li      r11,102
    2568:	38 80 00 00 	li      r4,0
    256c:	44 00 00 02 	sc      
    2570:	2f 83 00 00 	cmpwi   cr7,r3,0
    2574:	39 60 00 68 	li      r11,104
    2578:	40 9e 00 18 	bne-    cr7,0x2590
    257c:	80 7f 01 50 	lwz     r3,336(r31)
    2580:	83 ff 00 b8 	lwz     r31,184(r31)
    2584:	44 00 00 02 	sc      
    2588:	2f 83 00 00 	cmpwi   cr7,r3,0
    258c:	41 9e 00 1c 	beq-    cr7,0x25a8
    2590:	e8 01 00 10 	ld      r0,16(r1)
    2594:	7c 63 07 b4 	extsw   r3,r3
    2598:	eb c1 ff f0 	ld      r30,-16(r1)
    259c:	7c 08 03 a6 	mtlr    r0
    25a0:	eb e1 ff f8 	ld      r31,-8(r1)
    25a4:	4e 80 00 20 	blr
    25a8:	2f 9f 00 00 	cmpwi   cr7,r31,0
    25ac:	41 9e 00 1c 	beq-    cr7,0x25c8
    25b0:	2f 9f 00 04 	cmpwi   cr7,r31,4
    25b4:	38 00 00 00 	li      r0,0
    25b8:	41 9e 00 34 	beq-    cr7,0x25ec
    25bc:	98 1e 00 01 	stb     r0,1(r30)
    25c0:	98 1e 00 00 	stb     r0,0(r30)
    25c4:	4b ff ff cc 	b       0x2590
    25c8:	38 00 00 01 	li      r0,1
    25cc:	9b fe 00 00 	stb     r31,0(r30)
    25d0:	98 1e 00 01 	stb     r0,1(r30)
    25d4:	e8 01 00 10 	ld      r0,16(r1)
    25d8:	7c 63 07 b4 	extsw   r3,r3
    25dc:	eb c1 ff f0 	ld      r30,-16(r1)
    25e0:	7c 08 03 a6 	mtlr    r0
    25e4:	eb e1 ff f8 	ld      r31,-8(r1)
    25e8:	4e 80 00 20 	blr
    25ec:	39 20 00 01 	li      r9,1
    25f0:	98 1e 00 01 	stb     r0,1(r30)
    25f4:	99 3e 00 00 	stb     r9,0(r30)
    25f8:	4b ff ff 98 	b       0x2590
    25fc:	f8 21 ff 71 	stdu    r1,-144(r1)
    2600:	7c 08 02 a6 	mflr    r0
    2604:	fb c1 00 80 	std     r30,128(r1)
    2608:	7c 9e 23 78 	mr      r30,r4
    260c:	7c 64 1b 78 	mr      r4,r3
    2610:	7f c3 f3 78 	mr      r3,r30
    2614:	fb a1 00 78 	std     r29,120(r1)
    2618:	fb e1 00 88 	std     r31,136(r1)
    261c:	f8 01 00 a0 	std     r0,160(r1)
    2620:	7c bf 2b 78 	mr      r31,r5
    2624:	7c dd 33 78 	mr      r29,r6
    2628:	48 00 28 b1 	bl      0x4ed8
    262c:	e8 41 00 28 	ld      r2,40(r1)
    2630:	2f 83 00 00 	cmpwi   cr7,r3,0
    2634:	7b e4 00 20 	clrldi  r4,r31,32
    2638:	41 9e 00 24 	beq-    cr7,0x265c
    263c:	e8 01 00 a0 	ld      r0,160(r1)
    2640:	7c 63 07 b4 	extsw   r3,r3
    2644:	eb a1 00 78 	ld      r29,120(r1)
    2648:	eb c1 00 80 	ld      r30,128(r1)
    264c:	7c 08 03 a6 	mtlr    r0
    2650:	eb e1 00 88 	ld      r31,136(r1)
    2654:	38 21 00 90 	addi    r1,r1,144
    2658:	4e 80 00 20 	blr
    265c:	81 62 80 28 	lwz     r11,-32728(r2)
    2660:	7b a3 00 20 	clrldi  r3,r29,32
    2664:	e9 3e 00 00 	ld      r9,0(r30)
    2668:	e8 0b 00 00 	ld      r0,0(r11)
    266c:	e9 4b 00 08 	ld      r10,8(r11)
    2670:	7c 09 48 78 	andc    r9,r0,r9
    2674:	f9 3f 00 00 	std     r9,0(r31)
    2678:	e8 1e 00 08 	ld      r0,8(r30)
    267c:	7d 40 00 78 	andc    r0,r10,r0
    2680:	f8 1f 00 08 	std     r0,8(r31)
    2684:	48 00 28 75 	bl      0x4ef8
    2688:	e8 41 00 28 	ld      r2,40(r1)
    268c:	2f 83 00 00 	cmpwi   cr7,r3,0
    2690:	40 9e ff ac 	bne+    cr7,0x263c
    2694:	81 3d 00 00 	lwz     r9,0(r29)
    2698:	7c 63 07 b4 	extsw   r3,r3
    269c:	e8 01 00 a0 	ld      r0,160(r1)
    26a0:	39 29 40 00 	addi    r9,r9,16384
    26a4:	eb c1 00 80 	ld      r30,128(r1)
    26a8:	eb e1 00 88 	ld      r31,136(r1)
    26ac:	7c 08 03 a6 	mtlr    r0
    26b0:	91 3d 00 00 	stw     r9,0(r29)
    26b4:	eb a1 00 78 	ld      r29,120(r1)
    26b8:	38 21 00 90 	addi    r1,r1,144
    26bc:	4e 80 00 20 	blr
    26c0:	f8 21 ff 51 	stdu    r1,-176(r1)
    26c4:	7c 08 02 a6 	mflr    r0
    26c8:	fb e1 00 a8 	std     r31,168(r1)
    26cc:	7c 7f 1b 78 	mr      r31,r3
    26d0:	80 62 80 2c 	lwz     r3,-32724(r2)
    26d4:	38 81 00 88 	addi    r4,r1,136
    26d8:	38 a1 00 78 	addi    r5,r1,120
    26dc:	38 c1 00 70 	addi    r6,r1,112
    26e0:	f8 01 00 c0 	std     r0,192(r1)
    26e4:	4b ff ff 19 	bl      0x25fc
    26e8:	2f 83 00 00 	cmpwi   cr7,r3,0
    26ec:	40 9e 00 18 	bne-    cr7,0x2704
    26f0:	81 21 00 70 	lwz     r9,112(r1)
    26f4:	38 60 00 00 	li      r3,0
    26f8:	3d 29 00 10 	addis   r9,r9,16
    26fc:	39 29 3c 75 	addi    r9,r9,15477
    2700:	91 3f 00 00 	stw     r9,0(r31)
    2704:	e8 01 00 c0 	ld      r0,192(r1)
    2708:	7c 63 07 b4 	extsw   r3,r3
    270c:	eb e1 00 a8 	ld      r31,168(r1)
    2710:	38 21 00 b0 	addi    r1,r1,176
    2714:	7c 08 03 a6 	mtlr    r0
    2718:	4e 80 00 20 	blr
    271c:	2c 24 00 00 	cmpdi   r4,0
    2720:	7c 08 02 a6 	mflr    r0
    2724:	f8 21 f9 31 	stdu    r1,-1744(r1)
    2728:	fa c1 06 80 	std     r22,1664(r1)
    272c:	fa e1 06 88 	std     r23,1672(r1)
    2730:	fb 81 06 b0 	std     r28,1712(r1)
    2734:	fb a1 06 b8 	std     r29,1720(r1)
    2738:	fb c1 06 c0 	std     r30,1728(r1)
    273c:	fb e1 06 c8 	std     r31,1736(r1)
    2740:	f9 c1 06 40 	std     r14,1600(r1)
    2744:	f9 e1 06 48 	std     r15,1608(r1)
    2748:	fa 01 06 50 	std     r16,1616(r1)
    274c:	fa 21 06 58 	std     r17,1624(r1)
    2750:	fa 41 06 60 	std     r18,1632(r1)
    2754:	fa 61 06 68 	std     r19,1640(r1)
    2758:	fa 81 06 70 	std     r20,1648(r1)
    275c:	fa a1 06 78 	std     r21,1656(r1)
    2760:	fb 01 06 90 	std     r24,1680(r1)
    2764:	fb 21 06 98 	std     r25,1688(r1)
    2768:	fb 41 06 a0 	std     r26,1696(r1)
    276c:	fb 61 06 a8 	std     r27,1704(r1)
    2770:	f8 01 06 e0 	std     r0,1760(r1)
    2774:	7c 9c 23 78 	mr      r28,r4
    2778:	82 e1 07 54 	lwz     r23,1876(r1)
    277c:	7c 7e 1b 78 	mr      r30,r3
    2780:	7c df 33 78 	mr      r31,r6
    2784:	7c bd 2b 78 	mr      r29,r5
    2788:	7c 76 1b 78 	mr      r22,r3
    278c:	40 82 00 68 	bne-    0x27f4
    2790:	3f e0 80 61 	lis     r31,-32671
    2794:	63 ff 20 03 	ori     r31,r31,8195
    2798:	e8 01 06 e0 	ld      r0,1760(r1)
    279c:	7f e3 07 b4 	extsw   r3,r31
    27a0:	e9 c1 06 40 	ld      r14,1600(r1)
    27a4:	e9 e1 06 48 	ld      r15,1608(r1)
    27a8:	7c 08 03 a6 	mtlr    r0
    27ac:	ea 01 06 50 	ld      r16,1616(r1)
    27b0:	ea 21 06 58 	ld      r17,1624(r1)
    27b4:	ea 41 06 60 	ld      r18,1632(r1)
    27b8:	ea 61 06 68 	ld      r19,1640(r1)
    27bc:	ea 81 06 70 	ld      r20,1648(r1)
    27c0:	ea a1 06 78 	ld      r21,1656(r1)
    27c4:	ea c1 06 80 	ld      r22,1664(r1)
    27c8:	ea e1 06 88 	ld      r23,1672(r1)
    27cc:	eb 01 06 90 	ld      r24,1680(r1)
    27d0:	eb 21 06 98 	ld      r25,1688(r1)
    27d4:	eb 41 06 a0 	ld      r26,1696(r1)
    27d8:	eb 61 06 a8 	ld      r27,1704(r1)
    27dc:	eb 81 06 b0 	ld      r28,1712(r1)
    27e0:	eb a1 06 b8 	ld      r29,1720(r1)
    27e4:	eb c1 06 c0 	ld      r30,1728(r1)
    27e8:	eb e1 06 c8 	ld      r31,1736(r1)
    27ec:	38 21 06 d0 	addi    r1,r1,1744
    27f0:	4e 80 00 20 	blr
    27f4:	2f 86 00 00 	cmpwi   cr7,r6,0
    27f8:	41 9e ff 98 	beq+    cr7,0x2790
    27fc:	2f 88 00 00 	cmpwi   cr7,r8,0
    2800:	41 9e ff 90 	beq+    cr7,0x2790
    2804:	81 c2 80 2c 	lwz     r14,-32724(r2)
    2808:	3a 40 00 01 	li      r18,1
    280c:	93 be 00 e0 	stw     r29,224(r30)
    2810:	90 fe 00 e8 	stw     r7,232(r30)
    2814:	91 3e 00 f0 	stw     r9,240(r30)
    2818:	80 01 07 44 	lwz     r0,1860(r1)
    281c:	7d c3 73 78 	mr      r3,r14
    2820:	38 81 00 80 	addi    r4,r1,128
    2824:	38 a1 00 a0 	addi    r5,r1,160
    2828:	38 c1 00 70 	addi    r6,r1,112
    282c:	93 fe 00 e4 	stw     r31,228(r30)
    2830:	93 9e 00 dc 	stw     r28,220(r30)
    2834:	91 1e 00 ec 	stw     r8,236(r30)
    2838:	91 5e 00 f4 	stw     r10,244(r30)
    283c:	90 1e 00 f8 	stw     r0,248(r30)
    2840:	92 5e 00 d8 	stw     r18,216(r30)
    2844:	4b ff fd b9 	bl      0x25fc
    2848:	7b d0 00 20 	clrldi  r16,r30,32
    284c:	2f 83 00 00 	cmpwi   cr7,r3,0
    2850:	7c 7f 1b 78 	mr      r31,r3
    2854:	40 9e ff 44 	bne+    cr7,0x2798
    2858:	39 1e 06 e7 	addi    r8,r30,1767
    285c:	80 e1 00 70 	lwz     r7,112(r1)
    2860:	81 e1 07 4c 	lwz     r15,1868(r1)
    2864:	38 80 00 20 	li      r4,32
    2868:	55 08 00 30 	rlwinm  r8,r8,0,0,24
    286c:	e9 41 00 a8 	ld      r10,168(r1)
    2870:	e8 01 00 a0 	ld      r0,160(r1)
    2874:	3a 88 00 80 	addi    r20,r8,128
    2878:	81 62 80 28 	lwz     r11,-32728(r2)
    287c:	f8 1e 01 b0 	std     r0,432(r30)
    2880:	3b 14 01 00 	addi    r24,r20,256
    2884:	80 a2 80 30 	lwz     r5,-32720(r2)
    2888:	f9 5e 01 b8 	std     r10,440(r30)
    288c:	3f 78 00 10 	addis   r27,r24,16
    2890:	90 fe 01 c0 	stw     r7,448(r30)
    2894:	3b 5b 10 00 	addi    r26,r27,4096
    2898:	82 af 00 08 	lwz     r21,8(r15)
    289c:	39 6b 00 10 	addi    r11,r11,16
    28a0:	3b 3a 19 00 	addi    r25,r26,6400
    28a4:	38 1e 01 8c 	addi    r0,r30,396
    28a8:	7d 39 3a 14 	add     r9,r25,r7
    28ac:	7e a7 fe 70 	srawi   r7,r21,31
    28b0:	39 29 00 7f 	addi    r9,r9,127
    28b4:	7c ea aa 78 	xor     r10,r7,r21
    28b8:	55 29 00 30 	rlwinm  r9,r9,0,0,24
    28bc:	7d 4a 38 50 	subf    r10,r10,r7
    28c0:	3b 89 01 00 	addi    r28,r9,256
    28c4:	78 11 00 20 	clrldi  r17,r0,32
    28c8:	3b bc 00 80 	addi    r29,r28,128
    28cc:	79 73 00 20 	clrldi  r19,r11,32
    28d0:	38 1d 01 00 	addi    r0,r29,256
    28d4:	55 4a 0f fe 	rlwinm  r10,r10,1,31,31
    28d8:	7e 23 8b 78 	mr      r3,r17
    28dc:	7e 66 9b 78 	mr      r6,r19
    28e0:	7e 07 83 78 	mr      r7,r16
    28e4:	90 1e 01 74 	stw     r0,372(r30)
    28e8:	91 1e 01 04 	stw     r8,260(r30)
    28ec:	92 9e 01 08 	stw     r20,264(r30)
    28f0:	93 1e 01 00 	stw     r24,256(r30)
    28f4:	93 7e 01 58 	stw     r27,344(r30)
    28f8:	93 5e 01 5c 	stw     r26,348(r30)
    28fc:	93 3e 01 64 	stw     r25,356(r30)
    2900:	91 3e 01 68 	stw     r9,360(r30)
    2904:	93 9e 01 6c 	stw     r28,364(r30)
    2908:	93 be 01 70 	stw     r29,368(r30)
    290c:	7e aa a8 50 	subf    r21,r10,r21
    2910:	48 00 24 89 	bl      0x4d98
    2914:	e8 41 00 28 	ld      r2,40(r1)
    2918:	2f 97 00 00 	cmpwi   cr7,r23,0
    291c:	9b fe 01 ab 	stb     r31,427(r30)
    2920:	41 9e 05 08 	beq-    cr7,0x2e28
    2924:	7a e9 00 20 	clrldi  r9,r23,32
    2928:	92 5e 01 80 	stw     r18,384(r30)
    292c:	38 f7 00 04 	addi    r7,r23,4
    2930:	80 09 00 00 	lwz     r0,0(r9)
    2934:	81 09 00 0c 	lwz     r8,12(r9)
    2938:	90 1e 01 58 	stw     r0,344(r30)
    293c:	38 01 04 40 	addi    r0,r1,1088
    2940:	56 86 00 30 	rlwinm  r6,r20,0,0,24
    2944:	78 1d 00 20 	clrldi  r29,r0,32
    2948:	78 e7 00 20 	clrldi  r7,r7,32
    294c:	79 08 00 20 	clrldi  r8,r8,32
    2950:	7f a3 eb 78 	mr      r3,r29
    2954:	38 80 00 01 	li      r4,1
    2958:	3c a0 00 33 	lis     r5,51
    295c:	48 00 25 1d 	bl      0x4e78
    2960:	e8 41 00 28 	ld      r2,40(r1)
    2964:	2f 83 00 00 	cmpwi   cr7,r3,0
    2968:	7c 7f 1b 78 	mr      r31,r3
    296c:	40 9e fe 2c 	bne+    cr7,0x2798
    2970:	7e 24 8b 78 	mr      r4,r17
    2974:	7f a3 eb 78 	mr      r3,r29
    2978:	48 00 25 41 	bl      0x4eb8
    297c:	e8 41 00 28 	ld      r2,40(r1)
    2980:	2f 83 00 00 	cmpwi   cr7,r3,0
    2984:	7c 7f 1b 78 	mr      r31,r3
    2988:	40 9e fe 10 	bne+    cr7,0x2798
    298c:	7f a5 eb 78 	mr      r5,r29
    2990:	80 7e 01 58 	lwz     r3,344(r30)
    2994:	80 9e 01 5c 	lwz     r4,348(r30)
    2998:	48 00 26 61 	bl      0x4ff8
    299c:	e8 41 00 28 	ld      r2,40(r1)
    29a0:	2f 83 00 00 	cmpwi   cr7,r3,0
    29a4:	7c 7f 1b 78 	mr      r31,r3
    29a8:	40 9e fd f0 	bne+    cr7,0x2798
    29ac:	38 60 00 00 	li      r3,0
    29b0:	80 9e 01 5c 	lwz     r4,348(r30)
    29b4:	80 be 01 68 	lwz     r5,360(r30)
    29b8:	38 e0 00 80 	li      r7,128
    29bc:	80 de 01 6c 	lwz     r6,364(r30)
    29c0:	39 00 00 01 	li      r8,1
    29c4:	39 20 00 01 	li      r9,1
    29c8:	48 00 24 91 	bl      0x4e58
    29cc:	e8 41 00 28 	ld      r2,40(r1)
    29d0:	2f 83 00 00 	cmpwi   cr7,r3,0
    29d4:	7c 7f 1b 78 	mr      r31,r3
    29d8:	40 9e fd c0 	bne+    cr7,0x2798
    29dc:	80 7e 01 68 	lwz     r3,360(r30)
    29e0:	48 00 26 59 	bl      0x5038
    29e4:	e8 41 00 28 	ld      r2,40(r1)
    29e8:	2f 83 00 00 	cmpwi   cr7,r3,0
    29ec:	7c 7f 1b 78 	mr      r31,r3
    29f0:	40 9e fd a8 	bne+    cr7,0x2798
    29f4:	38 60 00 00 	li      r3,0
    29f8:	80 9e 01 5c 	lwz     r4,348(r30)
    29fc:	80 be 01 70 	lwz     r5,368(r30)
    2a00:	38 e0 00 10 	li      r7,16
    2a04:	80 de 01 74 	lwz     r6,372(r30)
    2a08:	39 00 00 01 	li      r8,1
    2a0c:	39 20 00 02 	li      r9,2
    2a10:	48 00 24 49 	bl      0x4e58
    2a14:	e8 41 00 28 	ld      r2,40(r1)
    2a18:	2f 83 00 00 	cmpwi   cr7,r3,0
    2a1c:	7c 7f 1b 78 	mr      r31,r3
    2a20:	40 9e fd 78 	bne+    cr7,0x2798
    2a24:	80 7e 01 70 	lwz     r3,368(r30)
    2a28:	48 00 26 11 	bl      0x5038
    2a2c:	e8 41 00 28 	ld      r2,40(r1)
    2a30:	2f 83 00 00 	cmpwi   cr7,r3,0
    2a34:	7c 7f 1b 78 	mr      r31,r3
    2a38:	40 9e fd 60 	bne+    cr7,0x2798
    2a3c:	38 01 01 40 	addi    r0,r1,320
    2a40:	81 7e 01 64 	lwz     r11,356(r30)
    2a44:	81 5e 01 c0 	lwz     r10,448(r30)
    2a48:	7d c6 73 78 	mr      r6,r14
    2a4c:	78 1c 00 20 	clrldi  r28,r0,32
    2a50:	81 3e 01 68 	lwz     r9,360(r30)
    2a54:	80 1e 01 70 	lwz     r0,368(r30)
    2a58:	3b b6 01 b0 	addi    r29,r22,432
    2a5c:	7f 83 e3 78 	mr      r3,r28
    2a60:	38 80 00 01 	li      r4,1
    2a64:	3c a0 00 33 	lis     r5,51
    2a68:	38 e1 00 74 	addi    r7,r1,116
    2a6c:	39 01 00 90 	addi    r8,r1,144
    2a70:	f9 21 00 90 	std     r9,144(r1)
    2a74:	f8 01 00 98 	std     r0,152(r1)
    2a78:	91 61 00 74 	stw     r11,116(r1)
    2a7c:	91 41 00 78 	stw     r10,120(r1)
    2a80:	93 a1 00 7c 	stw     r29,124(r1)
    2a84:	48 00 25 55 	bl      0x4fd8
    2a88:	e8 41 00 28 	ld      r2,40(r1)
    2a8c:	2f 83 00 00 	cmpwi   cr7,r3,0
    2a90:	7c 7f 1b 78 	mr      r31,r3
    2a94:	40 9e fd 04 	bne+    cr7,0x2798
    2a98:	38 96 01 60 	addi    r4,r22,352
    2a9c:	80 7e 01 5c 	lwz     r3,348(r30)
    2aa0:	7f 85 e3 78 	mr      r5,r28
    2aa4:	78 84 00 20 	clrldi  r4,r4,32
    2aa8:	48 00 23 f1 	bl      0x4e98
    2aac:	e8 41 00 28 	ld      r2,40(r1)
    2ab0:	2f 83 00 00 	cmpwi   cr7,r3,0
    2ab4:	7c 7f 1b 78 	mr      r31,r3
    2ab8:	40 9e fc e0 	bne+    cr7,0x2798
    2abc:	38 00 00 00 	li      r0,0
    2ac0:	7e 03 83 78 	mr      r3,r16
    2ac4:	90 1e 01 54 	stw     r0,340(r30)
    2ac8:	4b ff f6 a5 	bl      0x216c
    2acc:	2f 83 00 00 	cmpwi   cr7,r3,0
    2ad0:	7c 7f 1b 78 	mr      r31,r3
    2ad4:	40 9e fc c4 	bne+    cr7,0x2798
    2ad8:	7e 03 83 78 	mr      r3,r16
    2adc:	4b ff f3 e9 	bl      0x1ec4
    2ae0:	2f 83 00 00 	cmpwi   cr7,r3,0
    2ae4:	7c 7f 1b 78 	mr      r31,r3
    2ae8:	40 9e fc b0 	bne+    cr7,0x2798
    2aec:	3b a0 00 00 	li      r29,0
    2af0:	81 62 80 38 	lwz     r11,-32712(r2)
    2af4:	38 00 00 02 	li      r0,2
    2af8:	38 e0 00 20 	li      r7,32
    2afc:	38 c0 02 00 	li      r6,512
    2b00:	38 a0 20 00 	li      r5,8192
    2b04:	90 01 00 f0 	stw     r0,240(r1)
    2b08:	90 e1 00 f4 	stw     r7,244(r1)
    2b0c:	90 c1 00 f8 	stw     r6,248(r1)
    2b10:	90 a1 00 fc 	stw     r5,252(r1)
    2b14:	fb a1 01 00 	std     r29,256(r1)
    2b18:	93 a1 01 08 	stw     r29,264(r1)
    2b1c:	98 61 01 10 	stb     r3,272(r1)
    2b20:	3b 81 00 f0 	addi    r28,r1,240
    2b24:	39 21 01 10 	addi    r9,r1,272
    2b28:	e9 0b 00 00 	ld      r8,0(r11)
    2b2c:	f9 09 00 00 	std     r8,0(r9)
    2b30:	39 00 00 00 	li      r8,0
    2b34:	39 49 00 07 	addi    r10,r9,7
    2b38:	99 0a 00 00 	stb     r8,0(r10)
    2b3c:	90 c1 00 b0 	stw     r6,176(r1)
    2b40:	fb a1 00 b8 	std     r29,184(r1)
    2b44:	93 a1 00 b4 	stw     r29,180(r1)
    2b48:	98 61 00 c0 	stb     r3,192(r1)
    2b4c:	81 22 80 3c 	lwz     r9,-32708(r2)
    2b50:	3b 61 00 b0 	addi    r27,r1,176
    2b54:	39 01 00 c0 	addi    r8,r1,192
    2b58:	e9 49 00 00 	ld      r10,0(r9)
    2b5c:	f9 48 00 00 	std     r10,0(r8)
    2b60:	39 40 00 00 	li      r10,0
    2b64:	39 68 00 07 	addi    r11,r8,7
    2b68:	99 4b 00 00 	stb     r10,0(r11)
    2b6c:	90 01 00 c8 	stw     r0,200(r1)
    2b70:	90 e1 00 cc 	stw     r7,204(r1)
    2b74:	90 c1 00 d0 	stw     r6,208(r1)
    2b78:	90 a1 00 d4 	stw     r5,212(r1)
    2b7c:	fb a1 00 d8 	std     r29,216(r1)
    2b80:	93 a1 00 e0 	stw     r29,224(r1)
    2b84:	98 61 00 e8 	stb     r3,232(r1)
    2b88:	81 42 80 40 	lwz     r10,-32704(r2)
    2b8c:	39 21 00 e8 	addi    r9,r1,232
    2b90:	e8 6a 00 00 	ld      r3,0(r10)
    2b94:	f8 69 00 00 	std     r3,0(r9)
    2b98:	38 60 00 00 	li      r3,0
    2b9c:	38 89 00 07 	addi    r4,r9,7
    2ba0:	98 64 00 00 	stb     r3,0(r4)
    2ba4:	81 62 80 44 	lwz     r11,-32700(r2)
    2ba8:	e9 4b 00 00 	ld      r10,0(r11)
    2bac:	f9 48 00 00 	std     r10,0(r8)
    2bb0:	39 40 00 00 	li      r10,0
    2bb4:	39 28 00 07 	addi    r9,r8,7
    2bb8:	99 49 00 00 	stb     r10,0(r9)
    2bbc:	90 01 01 18 	stw     r0,280(r1)
    2bc0:	90 e1 01 1c 	stw     r7,284(r1)
    2bc4:	90 c1 01 20 	stw     r6,288(r1)
    2bc8:	90 a1 01 24 	stw     r5,292(r1)
    2bcc:	9b e1 01 38 	stb     r31,312(r1)
    2bd0:	fb a1 01 28 	std     r29,296(r1)
    2bd4:	93 a1 01 30 	stw     r29,304(r1)
    2bd8:	81 62 80 48 	lwz     r11,-32696(r2)
    2bdc:	39 21 01 38 	addi    r9,r1,312
    2be0:	e8 0b 00 00 	ld      r0,0(r11)
    2be4:	f8 09 00 00 	std     r0,0(r9)
    2be8:	38 00 00 00 	li      r0,0
    2bec:	39 49 00 07 	addi    r10,r9,7
    2bf0:	98 0a 00 00 	stb     r0,0(r10)
    2bf4:	38 76 00 c8 	addi    r3,r22,200
    2bf8:	7f 84 e3 78 	mr      r4,r28
    2bfc:	78 63 00 20 	clrldi  r3,r3,32
    2c00:	39 60 00 64 	li      r11,100
    2c04:	44 00 00 02 	sc      
    2c08:	2f 83 00 00 	cmpwi   cr7,r3,0
    2c0c:	7c 7f 1b 78 	mr      r31,r3
    2c10:	40 9e fb 88 	bne+    cr7,0x2798
    2c14:	38 76 00 cc 	addi    r3,r22,204
    2c18:	80 9e 00 c8 	lwz     r4,200(r30)
    2c1c:	7f 65 db 78 	mr      r5,r27
    2c20:	78 63 00 20 	clrldi  r3,r3,32
    2c24:	39 60 00 69 	li      r11,105
    2c28:	44 00 00 02 	sc      
    2c2c:	2f 83 00 00 	cmpwi   cr7,r3,0
    2c30:	7c 7f 1b 78 	mr      r31,r3
    2c34:	40 9e fb 64 	bne+    cr7,0x2798
    2c38:	38 76 00 d0 	addi    r3,r22,208
    2c3c:	7f 84 e3 78 	mr      r4,r28
    2c40:	78 63 00 20 	clrldi  r3,r3,32
    2c44:	39 60 00 64 	li      r11,100
    2c48:	44 00 00 02 	sc      
    2c4c:	2f 83 00 00 	cmpwi   cr7,r3,0
    2c50:	7c 7f 1b 78 	mr      r31,r3
    2c54:	40 9e fb 44 	bne+    cr7,0x2798
    2c58:	38 76 00 d4 	addi    r3,r22,212
    2c5c:	80 9e 00 d0 	lwz     r4,208(r30)
    2c60:	7f 65 db 78 	mr      r5,r27
    2c64:	78 63 00 20 	clrldi  r3,r3,32
    2c68:	39 60 00 69 	li      r11,105
    2c6c:	44 00 00 02 	sc      
    2c70:	2f 83 00 00 	cmpwi   cr7,r3,0
    2c74:	7c 7f 1b 78 	mr      r31,r3
    2c78:	40 9e fb 20 	bne+    cr7,0x2798
    2c7c:	38 76 01 50 	addi    r3,r22,336
    2c80:	38 81 01 18 	addi    r4,r1,280
    2c84:	78 63 00 20 	clrldi  r3,r3,32
    2c88:	39 60 00 64 	li      r11,100
    2c8c:	44 00 00 02 	sc      
    2c90:	2f 83 00 00 	cmpwi   cr7,r3,0
    2c94:	7c 7f 1b 78 	mr      r31,r3
    2c98:	40 9e fb 00 	bne+    cr7,0x2798
    2c9c:	38 76 01 38 	addi    r3,r22,312
    2ca0:	38 80 00 00 	li      r4,0
    2ca4:	78 63 00 20 	clrldi  r3,r3,32
    2ca8:	48 00 1e e1 	bl      0x4b88
    2cac:	60 00 00 00 	nop
    2cb0:	2f 83 00 00 	cmpwi   cr7,r3,0
    2cb4:	7c 7f 1b 78 	mr      r31,r3
    2cb8:	40 9e fa e0 	bne+    cr7,0x2798
    2cbc:	38 76 01 44 	addi    r3,r22,324
    2cc0:	38 80 00 04 	li      r4,4
    2cc4:	78 63 00 20 	clrldi  r3,r3,32
    2cc8:	48 00 1e c1 	bl      0x4b88
    2ccc:	60 00 00 00 	nop
    2cd0:	2f 83 00 00 	cmpwi   cr7,r3,0
    2cd4:	7c 7f 1b 78 	mr      r31,r3
    2cd8:	40 9e fa c0 	bne+    cr7,0x2798
    2cdc:	38 76 02 1c 	addi    r3,r22,540
    2ce0:	7f 84 e3 78 	mr      r4,r28
    2ce4:	78 63 00 20 	clrldi  r3,r3,32
    2ce8:	39 60 00 64 	li      r11,100
    2cec:	44 00 00 02 	sc      
    2cf0:	2f 83 00 00 	cmpwi   cr7,r3,0
    2cf4:	7c 7f 1b 78 	mr      r31,r3
    2cf8:	40 9e fa a0 	bne+    cr7,0x2798
    2cfc:	38 76 02 20 	addi    r3,r22,544
    2d00:	7f 84 e3 78 	mr      r4,r28
    2d04:	78 63 00 20 	clrldi  r3,r3,32
    2d08:	39 60 00 64 	li      r11,100
    2d0c:	44 00 00 02 	sc      
    2d10:	2f 83 00 00 	cmpwi   cr7,r3,0
    2d14:	7c 7f 1b 78 	mr      r31,r3
    2d18:	40 9e fa 80 	bne+    cr7,0x2798
    2d1c:	38 76 02 54 	addi    r3,r22,596
    2d20:	7f 84 e3 78 	mr      r4,r28
    2d24:	78 63 00 20 	clrldi  r3,r3,32
    2d28:	39 60 00 64 	li      r11,100
    2d2c:	44 00 00 02 	sc      
    2d30:	2f 83 00 00 	cmpwi   cr7,r3,0
    2d34:	7c 7f 1b 78 	mr      r31,r3
    2d38:	40 9e fa 60 	bne+    cr7,0x2798
    2d3c:	38 76 02 10 	addi    r3,r22,528
    2d40:	38 80 00 04 	li      r4,4
    2d44:	78 63 00 20 	clrldi  r3,r3,32
    2d48:	48 00 1e 41 	bl      0x4b88
    2d4c:	60 00 00 00 	nop
    2d50:	2f 83 00 00 	cmpwi   cr7,r3,0
    2d54:	7c 7f 1b 78 	mr      r31,r3
    2d58:	40 9e fa 40 	bne+    cr7,0x2798
    2d5c:	38 76 02 58 	addi    r3,r22,600
    2d60:	38 80 00 00 	li      r4,0
    2d64:	78 63 00 20 	clrldi  r3,r3,32
    2d68:	48 00 1b f1 	bl      0x4958
    2d6c:	60 00 00 00 	nop
    2d70:	2f 83 00 00 	cmpwi   cr7,r3,0
    2d74:	7c 7f 1b 78 	mr      r31,r3
    2d78:	40 9e fa 20 	bne+    cr7,0x2798
    2d7c:	80 7e 01 50 	lwz     r3,336(r30)
    2d80:	38 80 00 00 	li      r4,0
    2d84:	39 60 00 66 	li      r11,102
    2d88:	44 00 00 02 	sc      
    2d8c:	2f 83 00 00 	cmpwi   cr7,r3,0
    2d90:	7c 7f 1b 78 	mr      r31,r3
    2d94:	40 9e fa 04 	bne+    cr7,0x2798
    2d98:	93 be 02 64 	stw     r29,612(r30)
    2d9c:	80 7e 01 50 	lwz     r3,336(r30)
    2da0:	39 60 00 68 	li      r11,104
    2da4:	44 00 00 02 	sc      
    2da8:	2f 83 00 00 	cmpwi   cr7,r3,0
    2dac:	7c 7f 1b 78 	mr      r31,r3
    2db0:	40 9e f9 e8 	bne+    cr7,0x2798
    2db4:	80 cf 00 08 	lwz     r6,8(r15)
    2db8:	38 76 00 c0 	addi    r3,r22,192
    2dbc:	7e 05 83 78 	mr      r5,r16
    2dc0:	80 ef 00 10 	lwz     r7,16(r15)
    2dc4:	78 63 00 20 	clrldi  r3,r3,32
    2dc8:	81 22 80 50 	lwz     r9,-32688(r2)
    2dcc:	7c c6 07 b4 	extsw   r6,r6
    2dd0:	80 82 80 4c 	lwz     r4,-32692(r2)
    2dd4:	39 00 00 01 	li      r8,1
    2dd8:	48 00 1f e1 	bl      0x4db8
    2ddc:	e8 41 00 28 	ld      r2,40(r1)
    2de0:	2f 83 00 00 	cmpwi   cr7,r3,0
    2de4:	7c 7f 1b 78 	mr      r31,r3
    2de8:	40 9e f9 b0 	bne+    cr7,0x2798
    2dec:	38 76 01 78 	addi    r3,r22,376
    2df0:	7f 84 e3 78 	mr      r4,r28
    2df4:	78 63 00 20 	clrldi  r3,r3,32
    2df8:	39 60 00 64 	li      r11,100
    2dfc:	44 00 00 02 	sc      
    2e00:	2f 83 00 00 	cmpwi   cr7,r3,0
    2e04:	7c 7f 1b 78 	mr      r31,r3
    2e08:	40 9e f9 90 	bne+    cr7,0x2798
    2e0c:	38 76 01 7c 	addi    r3,r22,380
    2e10:	7f 84 e3 78 	mr      r4,r28
    2e14:	78 63 00 20 	clrldi  r3,r3,32
    2e18:	39 60 00 64 	li      r11,100
    2e1c:	44 00 00 02 	sc      
    2e20:	7c 7f 1b 78 	mr      r31,r3
    2e24:	4b ff f9 74 	b       0x2798
    2e28:	38 01 02 40 	addi    r0,r1,576
    2e2c:	93 fe 01 80 	stw     r31,384(r30)
    2e30:	78 1d 00 20 	clrldi  r29,r0,32
    2e34:	80 ef 00 0c 	lwz     r7,12(r15)
    2e38:	7e a8 07 b4 	extsw   r8,r21
    2e3c:	7c e7 07 b4 	extsw   r7,r7
    2e40:	7f a3 eb 78 	mr      r3,r29
    2e44:	38 80 00 02 	li      r4,2
    2e48:	3c a0 00 33 	lis     r5,51
    2e4c:	38 c0 00 01 	li      r6,1
    2e50:	39 20 00 01 	li      r9,1
    2e54:	48 00 21 05 	bl      0x4f58
    2e58:	e8 41 00 28 	ld      r2,40(r1)
    2e5c:	2f 83 00 00 	cmpwi   cr7,r3,0
    2e60:	7c 7f 1b 78 	mr      r31,r3
    2e64:	40 9e f9 34 	bne+    cr7,0x2798
    2e68:	7e 64 9b 78 	mr      r4,r19
    2e6c:	7f a3 eb 78 	mr      r3,r29
    2e70:	38 a0 00 0d 	li      r5,13
    2e74:	48 00 1f c5 	bl      0x4e38
    2e78:	e8 41 00 28 	ld      r2,40(r1)
    2e7c:	2f 83 00 00 	cmpwi   cr7,r3,0
    2e80:	7c 7f 1b 78 	mr      r31,r3
    2e84:	40 9e f9 14 	bne+    cr7,0x2798
    2e88:	7f a4 eb 78 	mr      r4,r29
    2e8c:	80 7e 01 58 	lwz     r3,344(r30)
    2e90:	48 00 21 29 	bl      0x4fb8
    2e94:	e8 41 00 28 	ld      r2,40(r1)
    2e98:	2f 83 00 00 	cmpwi   cr7,r3,0
    2e9c:	7c 7f 1b 78 	mr      r31,r3
    2ea0:	40 9e f8 f8 	bne+    cr7,0x2798
    2ea4:	80 e2 80 34 	lwz     r7,-32716(r2)
    2ea8:	39 00 00 04 	li      r8,4
    2eac:	4b ff fa 90 	b       0x293c
    2eb0:	f8 21 ff 71 	stdu    r1,-144(r1)
    2eb4:	7c 08 02 a6 	mflr    r0
    2eb8:	81 61 01 0c 	lwz     r11,268(r1)
    2ebc:	f8 01 00 a0 	std     r0,160(r1)
    2ec0:	80 01 01 04 	lwz     r0,260(r1)
    2ec4:	f9 61 00 78 	std     r11,120(r1)
    2ec8:	f8 01 00 70 	std     r0,112(r1)
    2ecc:	38 00 00 00 	li      r0,0
    2ed0:	f8 01 00 80 	std     r0,128(r1)
    2ed4:	4b ff f8 49 	bl      0x271c
    2ed8:	e8 01 00 a0 	ld      r0,160(r1)
    2edc:	7c 63 07 b4 	extsw   r3,r3
    2ee0:	38 21 00 90 	addi    r1,r1,144
    2ee4:	7c 08 03 a6 	mtlr    r0
    2ee8:	4e 80 00 20 	blr
    2eec:	f8 21 fe f1 	stdu    r1,-272(r1)
    2ef0:	7c 08 02 a6 	mflr    r0
    2ef4:	f8 81 01 48 	std     r4,328(r1)
    2ef8:	f8 01 01 20 	std     r0,288(r1)
    2efc:	81 23 01 08 	lwz     r9,264(r3)
    2f00:	39 60 00 00 	li      r11,0
    2f04:	f8 a1 01 50 	std     r5,336(r1)
    2f08:	80 01 01 48 	lwz     r0,328(r1)
    2f0c:	38 80 00 00 	li      r4,0
    2f10:	80 e1 01 54 	lwz     r7,340(r1)
    2f14:	81 01 01 50 	lwz     r8,336(r1)
    2f18:	81 41 01 4c 	lwz     r10,332(r1)
    2f1c:	90 09 00 00 	stw     r0,0(r9)
    2f20:	91 49 00 04 	stw     r10,4(r9)
    2f24:	91 09 00 08 	stw     r8,8(r9)
    2f28:	90 e9 00 0c 	stw     r7,12(r9)
    2f2c:	80 03 01 84 	lwz     r0,388(r3)
    2f30:	91 69 00 20 	stw     r11,32(r9)
    2f34:	90 09 00 10 	stw     r0,16(r9)
    2f38:	91 69 00 14 	stw     r11,20(r9)
    2f3c:	91 69 00 18 	stw     r11,24(r9)
    2f40:	91 69 00 1c 	stw     r11,28(r9)
    2f44:	38 00 00 03 	li      r0,3
    2f48:	39 20 00 20 	li      r9,32
    2f4c:	90 01 00 70 	stw     r0,112(r1)
    2f50:	91 21 00 74 	stw     r9,116(r1)
    2f54:	fb c1 01 00 	std     r30,256(r1)
    2f58:	fb e1 01 08 	std     r31,264(r1)
    2f5c:	7c 7e 1b 78 	mr      r30,r3
    2f60:	80 63 01 7c 	lwz     r3,380(r3)
    2f64:	39 60 00 66 	li      r11,102
    2f68:	44 00 00 02 	sc      
    2f6c:	2f 83 00 00 	cmpwi   cr7,r3,0
    2f70:	38 a0 00 01 	li      r5,1
    2f74:	38 81 00 70 	addi    r4,r1,112
    2f78:	7c 7f 1b 78 	mr      r31,r3
    2f7c:	41 9e 00 20 	beq-    cr7,0x2f9c
    2f80:	e8 01 01 20 	ld      r0,288(r1)
    2f84:	7f e3 07 b4 	extsw   r3,r31
    2f88:	eb c1 01 00 	ld      r30,256(r1)
    2f8c:	eb e1 01 08 	ld      r31,264(r1)
    2f90:	7c 08 03 a6 	mtlr    r0
    2f94:	38 21 01 10 	addi    r1,r1,272
    2f98:	4e 80 00 20 	blr
    2f9c:	80 7e 01 70 	lwz     r3,368(r30)
    2fa0:	48 00 1f 99 	bl      0x4f38
    2fa4:	e8 41 00 28 	ld      r2,40(r1)
    2fa8:	39 60 00 68 	li      r11,104
    2fac:	2f 83 00 00 	cmpwi   cr7,r3,0
    2fb0:	7c 7f 1b 78 	mr      r31,r3
    2fb4:	41 9e 00 28 	beq-    cr7,0x2fdc
    2fb8:	80 7e 01 7c 	lwz     r3,380(r30)
    2fbc:	44 00 00 02 	sc      
    2fc0:	e8 01 01 20 	ld      r0,288(r1)
    2fc4:	7f e3 07 b4 	extsw   r3,r31
    2fc8:	eb c1 01 00 	ld      r30,256(r1)
    2fcc:	eb e1 01 08 	ld      r31,264(r1)
    2fd0:	7c 08 03 a6 	mtlr    r0
    2fd4:	38 21 01 10 	addi    r1,r1,272
    2fd8:	4e 80 00 20 	blr
    2fdc:	80 7e 01 7c 	lwz     r3,380(r30)
    2fe0:	44 00 00 02 	sc      
    2fe4:	2f 83 00 00 	cmpwi   cr7,r3,0
    2fe8:	7c 7f 1b 78 	mr      r31,r3
    2fec:	38 80 00 00 	li      r4,0
    2ff0:	39 60 00 66 	li      r11,102
    2ff4:	40 9e ff 8c 	bne+    cr7,0x2f80
    2ff8:	80 7e 01 78 	lwz     r3,376(r30)
    2ffc:	44 00 00 02 	sc      
    3000:	2f 83 00 00 	cmpwi   cr7,r3,0
    3004:	38 a0 00 00 	li      r5,0
    3008:	38 81 00 80 	addi    r4,r1,128
    300c:	38 c0 00 01 	li      r6,1
    3010:	7c 7f 1b 78 	mr      r31,r3
    3014:	40 9e ff 6c 	bne+    cr7,0x2f80
    3018:	80 7e 01 68 	lwz     r3,360(r30)
    301c:	48 00 1e fd 	bl      0x4f18
    3020:	e8 41 00 28 	ld      r2,40(r1)
    3024:	39 60 00 68 	li      r11,104
    3028:	2f 83 00 00 	cmpwi   cr7,r3,0
    302c:	7c 7f 1b 78 	mr      r31,r3
    3030:	40 9e 00 20 	bne-    cr7,0x3050
    3034:	80 7e 01 78 	lwz     r3,376(r30)
    3038:	44 00 00 02 	sc      
    303c:	2f 83 00 00 	cmpwi   cr7,r3,0
    3040:	7c 7f 1b 78 	mr      r31,r3
    3044:	40 9e ff 3c 	bne+    cr7,0x2f80
    3048:	83 e1 00 80 	lwz     r31,128(r1)
    304c:	4b ff ff 34 	b       0x2f80
    3050:	80 7e 01 78 	lwz     r3,376(r30)
    3054:	44 00 00 02 	sc      
    3058:	4b ff ff 28 	b       0x2f80
    305c:	7d 80 00 26 	mfcr    r12
    3060:	f8 21 fd 41 	stdu    r1,-704(r1)
    3064:	fa 41 02 50 	std     r18,592(r1)
    3068:	3e 40 aa aa 	lis     r18,-21846
    306c:	fa 61 02 58 	std     r19,600(r1)
    3070:	fa 81 02 60 	std     r20,608(r1)
    3074:	fa a1 02 68 	std     r21,616(r1)
    3078:	fb 01 02 80 	std     r24,640(r1)
    307c:	fb 21 02 88 	std     r25,648(r1)
    3080:	fb 41 02 90 	std     r26,656(r1)
    3084:	fb 81 02 a0 	std     r28,672(r1)
    3088:	fb e1 02 b8 	std     r31,696(r1)
    308c:	7c 79 1b 78 	mr      r25,r3
    3090:	7c 7f 1b 78 	mr      r31,r3
    3094:	62 52 aa ab 	ori     r18,r18,43691
    3098:	3a 60 00 00 	li      r19,0
    309c:	78 7c 00 20 	clrldi  r28,r3,32
    30a0:	3a a0 00 01 	li      r21,1
    30a4:	3b 43 02 28 	addi    r26,r3,552
    30a8:	3b 00 00 00 	li      r24,0
    30ac:	3a 83 01 c4 	addi    r20,r3,452
    30b0:	fa c1 02 70 	std     r22,624(r1)
    30b4:	fa e1 02 78 	std     r23,632(r1)
    30b8:	fb 61 02 98 	std     r27,664(r1)
    30bc:	fb a1 02 a8 	std     r29,680(r1)
    30c0:	fb c1 02 b0 	std     r30,688(r1)
    30c4:	91 81 02 c8 	stw     r12,712(r1)
    30c8:	7c 08 02 a6 	mflr    r0
    30cc:	f8 01 02 d0 	std     r0,720(r1)
    30d0:	80 1f 00 d8 	lwz     r0,216(r31)
    30d4:	2f 80 00 00 	cmpwi   cr7,r0,0
    30d8:	41 9e 03 ec 	beq-    cr7,0x34c4
    30dc:	38 79 01 38 	addi    r3,r25,312
    30e0:	78 63 00 20 	clrldi  r3,r3,32
    30e4:	48 00 1b d1 	bl      0x4cb4
    30e8:	60 00 00 00 	nop
    30ec:	2f 83 00 00 	cmpwi   cr7,r3,0
    30f0:	41 9e 00 08 	beq-    cr7,0x30f8
    30f4:	92 bf 01 54 	stw     r21,340(r31)
    30f8:	80 7f 02 54 	lwz     r3,596(r31)
    30fc:	38 80 00 00 	li      r4,0
    3100:	39 60 00 66 	li      r11,102
    3104:	44 00 00 02 	sc      
    3108:	2f 83 00 00 	cmpwi   cr7,r3,0
    310c:	40 9e 05 08 	bne-    cr7,0x3614
    3110:	81 3a 00 04 	lwz     r9,4(r26)
    3114:	55 29 28 34 	rlwinm  r9,r9,5,0,26
    3118:	7d 3a 4a 14 	add     r9,r26,r9
    311c:	39 29 00 0c 	addi    r9,r9,12
    3120:	79 2b 00 20 	clrldi  r11,r9,32
    3124:	83 ab 00 00 	lwz     r29,0(r11)
    3128:	2f 9d 00 00 	cmpwi   cr7,r29,0
    312c:	40 9e 03 f8 	bne-    cr7,0x3524
    3130:	80 7f 02 54 	lwz     r3,596(r31)
    3134:	39 60 00 68 	li      r11,104
    3138:	44 00 00 02 	sc      
    313c:	38 80 00 00 	li      r4,0
    3140:	80 7f 01 50 	lwz     r3,336(r31)
    3144:	39 60 00 66 	li      r11,102
    3148:	44 00 00 02 	sc      
    314c:	81 5f 00 b0 	lwz     r10,176(r31)
    3150:	1d 2a 00 2c 	mulli   r9,r10,44
    3154:	7d 29 07 b4 	extsw   r9,r9
    3158:	7c 1c 48 2e 	lwzx    r0,r28,r9
    315c:	2f 80 00 ff 	cmpwi   cr7,r0,255
    3160:	41 9e 04 bc 	beq-    cr7,0x361c
    3164:	80 7f 01 50 	lwz     r3,336(r31)
    3168:	39 60 00 68 	li      r11,104
    316c:	1d 2a 00 2c 	mulli   r9,r10,44
    3170:	7d 29 07 b4 	extsw   r9,r9
    3174:	7d 5c 4a 14 	add     r10,r28,r9
    3178:	7c 1c 48 2e 	lwzx    r0,r28,r9
    317c:	81 0a 00 04 	lwz     r8,4(r10)
    3180:	81 2a 00 08 	lwz     r9,8(r10)
    3184:	80 ea 00 0c 	lwz     r7,12(r10)
    3188:	90 01 00 b0 	stw     r0,176(r1)
    318c:	91 01 00 b4 	stw     r8,180(r1)
    3190:	91 21 00 b8 	stw     r9,184(r1)
    3194:	90 e1 00 bc 	stw     r7,188(r1)
    3198:	80 0a 00 10 	lwz     r0,16(r10)
    319c:	81 2a 00 14 	lwz     r9,20(r10)
    31a0:	81 0a 00 18 	lwz     r8,24(r10)
    31a4:	80 ea 00 1c 	lwz     r7,28(r10)
    31a8:	90 01 00 c0 	stw     r0,192(r1)
    31ac:	91 21 00 c4 	stw     r9,196(r1)
    31b0:	91 01 00 c8 	stw     r8,200(r1)
    31b4:	90 e1 00 cc 	stw     r7,204(r1)
    31b8:	81 0a 00 28 	lwz     r8,40(r10)
    31bc:	80 0a 00 20 	lwz     r0,32(r10)
    31c0:	81 2a 00 24 	lwz     r9,36(r10)
    31c4:	90 01 00 d0 	stw     r0,208(r1)
    31c8:	91 21 00 d4 	stw     r9,212(r1)
    31cc:	91 01 00 d8 	stw     r8,216(r1)
    31d0:	44 00 00 02 	sc      
    31d4:	83 c1 00 d4 	lwz     r30,212(r1)
    31d8:	80 01 00 bc 	lwz     r0,188(r1)
    31dc:	2f 9e 00 04 	cmpwi   cr7,r30,4
    31e0:	82 e1 00 b0 	lwz     r23,176(r1)
    31e4:	82 c1 00 b4 	lwz     r22,180(r1)
    31e8:	83 a1 00 b8 	lwz     r29,184(r1)
    31ec:	81 61 00 c4 	lwz     r11,196(r1)
    31f0:	80 81 00 c8 	lwz     r4,200(r1)
    31f4:	81 41 00 cc 	lwz     r10,204(r1)
    31f8:	80 a1 00 d0 	lwz     r5,208(r1)
    31fc:	90 01 00 e8 	stw     r0,232(r1)
    3200:	81 21 00 c0 	lwz     r9,192(r1)
    3204:	80 01 00 d8 	lwz     r0,216(r1)
    3208:	91 21 00 ec 	stw     r9,236(r1)
    320c:	90 01 01 04 	stw     r0,260(r1)
    3210:	92 e1 00 dc 	stw     r23,220(r1)
    3214:	92 c1 00 e0 	stw     r22,224(r1)
    3218:	93 a1 00 e4 	stw     r29,228(r1)
    321c:	91 61 00 f0 	stw     r11,240(r1)
    3220:	90 81 00 f4 	stw     r4,244(r1)
    3224:	91 41 00 f8 	stw     r10,248(r1)
    3228:	90 a1 00 fc 	stw     r5,252(r1)
    322c:	93 c1 01 00 	stw     r30,256(r1)
    3230:	41 9e 05 58 	beq-    cr7,0x3788
    3234:	2f 9e 00 01 	cmpwi   cr7,r30,1
    3238:	41 9e 05 70 	beq-    cr7,0x37a8
    323c:	2f 9e 00 02 	cmpwi   cr7,r30,2
    3240:	41 9e 06 04 	beq-    cr7,0x3844
    3244:	38 79 02 10 	addi    r3,r25,528
    3248:	83 7f 01 04 	lwz     r27,260(r31)
    324c:	78 63 00 20 	clrldi  r3,r3,32
    3250:	48 00 1a 65 	bl      0x4cb4
    3254:	60 00 00 00 	nop
    3258:	2f 83 00 00 	cmpwi   cr7,r3,0
    325c:	41 9e 00 08 	beq-    cr7,0x3264
    3260:	92 bf 02 24 	stw     r21,548(r31)
    3264:	80 7f 02 1c 	lwz     r3,540(r31)
    3268:	38 80 00 00 	li      r4,0
    326c:	39 60 00 66 	li      r11,102
    3270:	44 00 00 02 	sc      
    3274:	2e 03 00 00 	cmpwi   cr4,r3,0
    3278:	40 92 00 34 	bne-    cr4,0x32ac
    327c:	39 39 01 c4 	addi    r9,r25,452
    3280:	80 09 00 08 	lwz     r0,8(r9)
    3284:	54 00 20 36 	rlwinm  r0,r0,4,0,27
    3288:	7d 29 02 14 	add     r9,r9,r0
    328c:	39 29 00 0c 	addi    r9,r9,12
    3290:	79 3e 00 20 	clrldi  r30,r9,32
    3294:	80 1e 00 00 	lwz     r0,0(r30)
    3298:	2f 80 00 00 	cmpwi   cr7,r0,0
    329c:	41 9e 04 d0 	beq-    cr7,0x376c
    32a0:	80 7f 02 1c 	lwz     r3,540(r31)
    32a4:	39 60 00 68 	li      r11,104
    32a8:	44 00 00 02 	sc      
    32ac:	92 bf 02 24 	stw     r21,548(r31)
    32b0:	7b 7b 00 20 	clrldi  r27,r27,32
    32b4:	81 5b 00 08 	lwz     r10,8(r27)
    32b8:	2c 8a 00 01 	cmpwi   cr1,r10,1
    32bc:	41 86 04 34 	beq-    cr1,0x36f0
    32c0:	2f 8a 00 02 	cmpwi   cr7,r10,2
    32c4:	41 9e 03 dc 	beq-    cr7,0x36a0
    32c8:	2f 8a 00 03 	cmpwi   cr7,r10,3
    32cc:	7f be eb 78 	mr      r30,r29
    32d0:	41 9e 03 d0 	beq-    cr7,0x36a0
    32d4:	81 7b 00 00 	lwz     r11,0(r27)
    32d8:	2f 0b 00 01 	cmpwi   cr6,r11,1
    32dc:	41 9a 03 dc 	beq-    cr6,0x36b8
    32e0:	2f 8b 00 05 	cmpwi   cr7,r11,5
    32e4:	41 9e 03 4c 	beq-    cr7,0x3630
    32e8:	2f 8b 00 04 	cmpwi   cr7,r11,4
    32ec:	41 9e 03 44 	beq-    cr7,0x3630
    32f0:	2f 8b 00 08 	cmpwi   cr7,r11,8
    32f4:	41 9e 05 7c 	beq-    cr7,0x3870
    32f8:	2f 8b 00 0a 	cmpwi   cr7,r11,10
    32fc:	41 9e 05 a0 	beq-    cr7,0x389c
    3300:	80 1f 01 84 	lwz     r0,388(r31)
    3304:	2f 80 00 01 	cmpwi   cr7,r0,1
    3308:	41 9e 03 40 	beq-    cr7,0x3648
    330c:	81 3f 01 08 	lwz     r9,264(r31)
    3310:	38 80 00 00 	li      r4,0
    3314:	81 1f 01 04 	lwz     r8,260(r31)
    3318:	39 60 00 66 	li      r11,102
    331c:	92 c9 00 04 	stw     r22,4(r9)
    3320:	93 a9 00 08 	stw     r29,8(r9)
    3324:	93 09 00 00 	stw     r24,0(r9)
    3328:	93 09 00 0c 	stw     r24,12(r9)
    332c:	92 69 00 10 	stw     r19,16(r9)
    3330:	93 c9 00 14 	stw     r30,20(r9)
    3334:	81 48 00 00 	lwz     r10,0(r8)
    3338:	91 49 00 18 	stw     r10,24(r9)
    333c:	80 08 00 04 	lwz     r0,4(r8)
    3340:	90 09 00 1c 	stw     r0,28(r9)
    3344:	81 48 00 08 	lwz     r10,8(r8)
    3348:	91 49 00 20 	stw     r10,32(r9)
    334c:	80 08 00 0c 	lwz     r0,12(r8)
    3350:	90 09 00 24 	stw     r0,36(r9)
    3354:	81 5f 01 84 	lwz     r10,388(r31)
    3358:	38 00 00 05 	li      r0,5
    335c:	93 09 00 40 	stw     r24,64(r9)
    3360:	91 49 00 28 	stw     r10,40(r9)
    3364:	93 09 00 2c 	stw     r24,44(r9)
    3368:	93 09 00 30 	stw     r24,48(r9)
    336c:	93 09 00 34 	stw     r24,52(r9)
    3370:	93 09 00 38 	stw     r24,56(r9)
    3374:	93 09 00 3c 	stw     r24,60(r9)
    3378:	39 20 00 40 	li      r9,64
    337c:	90 01 00 80 	stw     r0,128(r1)
    3380:	91 21 00 84 	stw     r9,132(r1)
    3384:	80 7f 01 7c 	lwz     r3,380(r31)
    3388:	44 00 00 02 	sc      
    338c:	2e 03 00 00 	cmpwi   cr4,r3,0
    3390:	41 92 03 30 	beq-    cr4,0x36c0
    3394:	38 61 02 20 	addi    r3,r1,544
    3398:	7f 84 e3 78 	mr      r4,r28
    339c:	78 63 00 20 	clrldi  r3,r3,32
    33a0:	4b ff ec c5 	bl      0x2064
    33a4:	80 1b 00 00 	lwz     r0,0(r27)
    33a8:	38 80 00 00 	li      r4,0
    33ac:	90 01 00 74 	stw     r0,116(r1)
    33b0:	81 3b 00 04 	lwz     r9,4(r27)
    33b4:	38 01 00 74 	addi    r0,r1,116
    33b8:	93 c1 00 7c 	stw     r30,124(r1)
    33bc:	91 21 00 78 	stw     r9,120(r1)
    33c0:	90 01 00 70 	stw     r0,112(r1)
    33c4:	80 7f 02 1c 	lwz     r3,540(r31)
    33c8:	39 60 00 66 	li      r11,102
    33cc:	44 00 00 02 	sc      
    33d0:	2e 03 00 00 	cmpwi   cr4,r3,0
    33d4:	40 92 00 30 	bne-    cr4,0x3404
    33d8:	81 34 00 08 	lwz     r9,8(r20)
    33dc:	55 29 20 36 	rlwinm  r9,r9,4,0,27
    33e0:	7d 34 4a 14 	add     r9,r20,r9
    33e4:	39 29 00 0c 	addi    r9,r9,12
    33e8:	79 29 00 20 	clrldi  r9,r9,32
    33ec:	80 09 00 00 	lwz     r0,0(r9)
    33f0:	2f 80 00 00 	cmpwi   cr7,r0,0
    33f4:	41 9e 03 3c 	beq-    cr7,0x3730
    33f8:	80 7f 02 1c 	lwz     r3,540(r31)
    33fc:	39 60 00 68 	li      r11,104
    3400:	44 00 00 02 	sc      
    3404:	92 bf 02 24 	stw     r21,548(r31)
    3408:	80 1f 01 54 	lwz     r0,340(r31)
    340c:	2f 80 00 01 	cmpwi   cr7,r0,1
    3410:	41 9e 02 e8 	beq-    cr7,0x36f8
    3414:	81 3f 00 dc 	lwz     r9,220(r31)
    3418:	2f 89 00 00 	cmpwi   cr7,r9,0
    341c:	41 9e 00 28 	beq-    cr7,0x3444
    3420:	79 29 00 20 	clrldi  r9,r9,32
    3424:	80 9f 00 e0 	lwz     r4,224(r31)
    3428:	7a e3 00 20 	clrldi  r3,r23,32
    342c:	80 09 00 00 	lwz     r0,0(r9)
    3430:	f8 41 00 28 	std     r2,40(r1)
    3434:	7c 09 03 a6 	mtctr   r0
    3438:	80 49 00 04 	lwz     r2,4(r9)
    343c:	4e 80 04 21 	bctrl
    3440:	e8 41 00 28 	ld      r2,40(r1)
    3444:	80 1f 01 54 	lwz     r0,340(r31)
    3448:	3d 40 7f 9e 	lis     r10,32670
    344c:	68 00 00 01 	xori    r0,r0,1
    3450:	61 4a ff ff 	ori     r10,r10,65535
    3454:	7c 0b fe 70 	srawi   r11,r0,31
    3458:	7d 69 02 78 	xor     r9,r11,r0
    345c:	80 1f 00 e4 	lwz     r0,228(r31)
    3460:	7d 29 58 50 	subf    r9,r9,r11
    3464:	2f 80 00 00 	cmpwi   cr7,r0,0
    3468:	7d 29 fe 70 	srawi   r9,r9,31
    346c:	7d 29 50 38 	and     r9,r9,r10
    3470:	3d 69 80 61 	addis   r11,r9,-32671
    3474:	39 2b 00 01 	addi    r9,r11,1
    3478:	41 9e fc 58 	beq+    cr7,0x30d0
    347c:	78 0b 00 20 	clrldi  r11,r0,32
    3480:	38 e1 00 70 	addi    r7,r1,112
    3484:	7a e3 00 20 	clrldi  r3,r23,32
    3488:	7b c5 00 20 	clrldi  r5,r30,32
    348c:	78 e7 00 20 	clrldi  r7,r7,32
    3490:	80 0b 00 00 	lwz     r0,0(r11)
    3494:	7d 29 07 b4 	extsw   r9,r9
    3498:	f8 41 00 28 	std     r2,40(r1)
    349c:	7c 09 03 a6 	mtctr   r0
    34a0:	7a 64 00 20 	clrldi  r4,r19,32
    34a4:	80 df 00 e8 	lwz     r6,232(r31)
    34a8:	39 00 00 00 	li      r8,0
    34ac:	80 4b 00 04 	lwz     r2,4(r11)
    34b0:	4e 80 04 21 	bctrl
    34b4:	e8 41 00 28 	ld      r2,40(r1)
    34b8:	80 1f 00 d8 	lwz     r0,216(r31)
    34bc:	2f 80 00 00 	cmpwi   cr7,r0,0
    34c0:	40 9e fc 1c 	bne+    cr7,0x30dc
    34c4:	38 60 00 00 	li      r3,0
    34c8:	48 00 19 31 	bl      0x4df8
    34cc:	e8 41 00 28 	ld      r2,40(r1)
    34d0:	81 81 02 c8 	lwz     r12,712(r1)
    34d4:	e8 01 02 d0 	ld      r0,720(r1)
    34d8:	ea 41 02 50 	ld      r18,592(r1)
    34dc:	7d 91 01 20 	mtocrf  16,r12
    34e0:	ea 61 02 58 	ld      r19,600(r1)
    34e4:	7c 08 03 a6 	mtlr    r0
    34e8:	ea 81 02 60 	ld      r20,608(r1)
    34ec:	7d 90 81 20 	mtocrf  8,r12
    34f0:	ea a1 02 68 	ld      r21,616(r1)
    34f4:	ea c1 02 70 	ld      r22,624(r1)
    34f8:	ea e1 02 78 	ld      r23,632(r1)
    34fc:	eb 01 02 80 	ld      r24,640(r1)
    3500:	eb 21 02 88 	ld      r25,648(r1)
    3504:	eb 41 02 90 	ld      r26,656(r1)
    3508:	eb 61 02 98 	ld      r27,664(r1)
    350c:	eb 81 02 a0 	ld      r28,672(r1)
    3510:	eb a1 02 a8 	ld      r29,680(r1)
    3514:	eb c1 02 b0 	ld      r30,688(r1)
    3518:	eb e1 02 b8 	ld      r31,696(r1)
    351c:	38 21 02 c0 	addi    r1,r1,704
    3520:	4e 80 00 20 	blr
    3524:	2d 9d 00 01 	cmpwi   cr3,r29,1
    3528:	41 8e 00 9c 	beq-    cr3,0x35c4
    352c:	38 00 00 ff 	li      r0,255
    3530:	90 6b 00 00 	stw     r3,0(r11)
    3534:	90 0b 00 04 	stw     r0,4(r11)
    3538:	81 3a 00 00 	lwz     r9,0(r26)
    353c:	39 60 00 68 	li      r11,104
    3540:	90 7a 00 04 	stw     r3,4(r26)
    3544:	39 29 ff ff 	addi    r9,r9,-1
    3548:	91 3a 00 00 	stw     r9,0(r26)
    354c:	80 7f 02 54 	lwz     r3,596(r31)
    3550:	44 00 00 02 	sc      
    3554:	2e 03 00 00 	cmpwi   cr4,r3,0
    3558:	40 92 00 bc 	bne-    cr4,0x3614
    355c:	40 8e 00 b8 	bne-    cr3,0x3614
    3560:	7f 83 e3 78 	mr      r3,r28
    3564:	e8 81 00 a0 	ld      r4,160(r1)
    3568:	e8 a1 00 a8 	ld      r5,168(r1)
    356c:	4b ff f9 81 	bl      0x2eec
    3570:	2f 83 00 00 	cmpwi   cr7,r3,0
    3574:	41 9e 00 08 	beq-    cr7,0x357c
    3578:	93 bf 01 54 	stw     r29,340(r31)
    357c:	7f 83 e3 78 	mr      r3,r28
    3580:	4b ff eb ed 	bl      0x216c
    3584:	2f 83 00 00 	cmpwi   cr7,r3,0
    3588:	41 9e 00 08 	beq-    cr7,0x3590
    358c:	92 bf 01 54 	stw     r21,340(r31)
    3590:	7f 83 e3 78 	mr      r3,r28
    3594:	4b ff e9 31 	bl      0x1ec4
    3598:	2f 83 00 00 	cmpwi   cr7,r3,0
    359c:	41 9e 00 08 	beq-    cr7,0x35a4
    35a0:	92 bf 01 54 	stw     r21,340(r31)
    35a4:	38 79 02 58 	addi    r3,r25,600
    35a8:	78 63 00 20 	clrldi  r3,r3,32
    35ac:	48 00 14 f9 	bl      0x4aa4
    35b0:	60 00 00 00 	nop
    35b4:	2f 83 00 00 	cmpwi   cr7,r3,0
    35b8:	41 9e fb 18 	beq+    cr7,0x30d0
    35bc:	92 bf 01 54 	stw     r21,340(r31)
    35c0:	4b ff fb 10 	b       0x30d0
    35c4:	80 0b 00 10 	lwz     r0,16(r11)
    35c8:	90 6b 00 00 	stw     r3,0(r11)
    35cc:	90 01 00 a0 	stw     r0,160(r1)
    35d0:	81 2b 00 14 	lwz     r9,20(r11)
    35d4:	91 21 00 a4 	stw     r9,164(r1)
    35d8:	80 0b 00 18 	lwz     r0,24(r11)
    35dc:	90 01 00 a8 	stw     r0,168(r1)
    35e0:	81 2b 00 1c 	lwz     r9,28(r11)
    35e4:	38 00 00 ff 	li      r0,255
    35e8:	91 21 00 ac 	stw     r9,172(r1)
    35ec:	90 0b 00 04 	stw     r0,4(r11)
    35f0:	81 3a 00 00 	lwz     r9,0(r26)
    35f4:	39 60 00 68 	li      r11,104
    35f8:	90 7a 00 04 	stw     r3,4(r26)
    35fc:	39 29 ff ff 	addi    r9,r9,-1
    3600:	91 3a 00 00 	stw     r9,0(r26)
    3604:	80 7f 02 54 	lwz     r3,596(r31)
    3608:	44 00 00 02 	sc      
    360c:	2e 03 00 00 	cmpwi   cr4,r3,0
    3610:	41 92 ff 4c 	beq+    cr4,0x355c
    3614:	92 bf 01 54 	stw     r21,340(r31)
    3618:	4b ff fe ac 	b       0x34c4
    361c:	80 7f 01 50 	lwz     r3,336(r31)
    3620:	39 60 00 68 	li      r11,104
    3624:	44 00 00 02 	sc      
    3628:	81 5f 00 b0 	lwz     r10,176(r31)
    362c:	4b ff fb 38 	b       0x3164
    3630:	57 c0 08 3c 	rlwinm  r0,r30,1,0,30
    3634:	7c 00 f2 14 	add     r0,r0,r30
    3638:	54 1e f0 be 	rlwinm  r30,r0,30,2,31
    363c:	80 1f 01 84 	lwz     r0,388(r31)
    3640:	2f 80 00 01 	cmpwi   cr7,r0,1
    3644:	40 9e fc c8 	bne+    cr7,0x330c
    3648:	41 86 02 4c 	beq-    cr1,0x3894
    364c:	2f 8a 00 02 	cmpwi   cr7,r10,2
    3650:	41 9e 02 5c 	beq-    cr7,0x38ac
    3654:	2f 8a 00 03 	cmpwi   cr7,r10,3
    3658:	41 9e 02 2c 	beq-    cr7,0x3884
    365c:	41 9a fc b0 	beq+    cr6,0x330c
    3660:	2f 8b 00 03 	cmpwi   cr7,r11,3
    3664:	41 9e fc a8 	beq+    cr7,0x330c
    3668:	2f 8b 00 04 	cmpwi   cr7,r11,4
    366c:	41 9e 02 58 	beq-    cr7,0x38c4
    3670:	2f 8b 00 05 	cmpwi   cr7,r11,5
    3674:	41 9e 02 60 	beq-    cr7,0x38d4
    3678:	2f 8b 00 06 	cmpwi   cr7,r11,6
    367c:	41 9e 02 6c 	beq-    cr7,0x38e8
    3680:	2f 8b 00 07 	cmpwi   cr7,r11,7
    3684:	41 9e 02 58 	beq-    cr7,0x38dc
    3688:	2f 8b 00 08 	cmpwi   cr7,r11,8
    368c:	41 9e 02 74 	beq-    cr7,0x3900
    3690:	2f 8b 00 09 	cmpwi   cr7,r11,9
    3694:	40 9e fc 78 	bne+    cr7,0x330c
    3698:	57 de f0 be 	rlwinm  r30,r30,30,2,31
    369c:	4b ff fc 70 	b       0x330c
    36a0:	57 a0 10 3a 	rlwinm  r0,r29,2,0,29
    36a4:	81 7b 00 00 	lwz     r11,0(r27)
    36a8:	2f 0b 00 01 	cmpwi   cr6,r11,1
    36ac:	7c 00 90 16 	mulhwu  r0,r0,r18
    36b0:	54 1e f8 7e 	rlwinm  r30,r0,31,1,31
    36b4:	40 9a fc 2c 	bne+    cr6,0x32e0
    36b8:	57 de f8 7e 	rlwinm  r30,r30,31,1,31
    36bc:	4b ff fc 44 	b       0x3300
    36c0:	38 81 00 80 	addi    r4,r1,128
    36c4:	80 7f 01 70 	lwz     r3,368(r31)
    36c8:	38 a0 00 01 	li      r5,1
    36cc:	78 84 00 20 	clrldi  r4,r4,32
    36d0:	48 00 18 69 	bl      0x4f38
    36d4:	e8 41 00 28 	ld      r2,40(r1)
    36d8:	2f 83 00 00 	cmpwi   cr7,r3,0
    36dc:	41 9e 01 10 	beq-    cr7,0x37ec
    36e0:	80 7f 01 7c 	lwz     r3,380(r31)
    36e4:	39 60 00 68 	li      r11,104
    36e8:	44 00 00 02 	sc      
    36ec:	4b ff fc a8 	b       0x3394
    36f0:	57 be 08 3c 	rlwinm  r30,r29,1,0,30
    36f4:	4b ff fb e0 	b       0x32d4
    36f8:	81 3f 00 ec 	lwz     r9,236(r31)
    36fc:	2f 89 00 00 	cmpwi   cr7,r9,0
    3700:	41 9e fd 14 	beq+    cr7,0x3414
    3704:	79 29 00 20 	clrldi  r9,r9,32
    3708:	80 9f 00 f0 	lwz     r4,240(r31)
    370c:	3c 60 80 61 	lis     r3,-32671
    3710:	60 63 00 01 	ori     r3,r3,1
    3714:	80 09 00 00 	lwz     r0,0(r9)
    3718:	f8 41 00 28 	std     r2,40(r1)
    371c:	7c 09 03 a6 	mtctr   r0
    3720:	80 49 00 04 	lwz     r2,4(r9)
    3724:	4e 80 04 21 	bctrl
    3728:	e8 41 00 28 	ld      r2,40(r1)
    372c:	4b ff fc e8 	b       0x3414
    3730:	93 c9 00 04 	stw     r30,4(r9)
    3734:	92 a9 00 00 	stw     r21,0(r9)
    3738:	81 34 00 08 	lwz     r9,8(r20)
    373c:	81 74 00 00 	lwz     r11,0(r20)
    3740:	39 29 00 01 	addi    r9,r9,1
    3744:	39 6b 00 01 	addi    r11,r11,1
    3748:	55 29 07 be 	clrlwi  r9,r9,30
    374c:	91 74 00 00 	stw     r11,0(r20)
    3750:	91 34 00 08 	stw     r9,8(r20)
    3754:	80 7f 02 1c 	lwz     r3,540(r31)
    3758:	39 60 00 68 	li      r11,104
    375c:	44 00 00 02 	sc      
    3760:	2e 03 00 00 	cmpwi   cr4,r3,0
    3764:	41 92 fc a4 	beq+    cr4,0x3408
    3768:	4b ff fc 9c 	b       0x3404
    376c:	80 7f 02 1c 	lwz     r3,540(r31)
    3770:	39 60 00 68 	li      r11,104
    3774:	44 00 00 02 	sc      
    3778:	2e 03 00 00 	cmpwi   cr4,r3,0
    377c:	40 92 fb 30 	bne+    cr4,0x32ac
    3780:	82 7e 00 08 	lwz     r19,8(r30)
    3784:	4b ff fb 2c 	b       0x32b0
    3788:	38 61 01 90 	addi    r3,r1,400
    378c:	7f 84 e3 78 	mr      r4,r28
    3790:	78 63 00 20 	clrldi  r3,r3,32
    3794:	4b ff e8 d1 	bl      0x2064
    3798:	38 60 00 00 	li      r3,0
    379c:	48 00 16 5d 	bl      0x4df8
    37a0:	e8 41 00 28 	ld      r2,40(r1)
    37a4:	4b ff fa a0 	b       0x3244
    37a8:	79 69 07 c6 	rldicr  r9,r11,32,31
    37ac:	79 40 07 c6 	rldicr  r0,r10,32,31
    37b0:	78 84 00 20 	clrldi  r4,r4,32
    37b4:	78 a5 00 20 	clrldi  r5,r5,32
    37b8:	7c 84 4b 78 	or      r4,r4,r9
    37bc:	7c a5 03 78 	or      r5,r5,r0
    37c0:	7f 83 e3 78 	mr      r3,r28
    37c4:	4b ff f7 29 	bl      0x2eec
    37c8:	7f 84 e3 78 	mr      r4,r28
    37cc:	7c 7d 1b 78 	mr      r29,r3
    37d0:	38 61 01 c0 	addi    r3,r1,448
    37d4:	78 63 00 20 	clrldi  r3,r3,32
    37d8:	4b ff e8 8d 	bl      0x2064
    37dc:	2f 9d 00 00 	cmpwi   cr7,r29,0
    37e0:	41 9e f8 f0 	beq+    cr7,0x30d0
    37e4:	93 df 01 54 	stw     r30,340(r31)
    37e8:	4b ff f8 e8 	b       0x30d0
    37ec:	80 7f 01 7c 	lwz     r3,380(r31)
    37f0:	39 60 00 68 	li      r11,104
    37f4:	44 00 00 02 	sc      
    37f8:	2e 03 00 00 	cmpwi   cr4,r3,0
    37fc:	40 92 fb 98 	bne+    cr4,0x3394
    3800:	80 7f 01 78 	lwz     r3,376(r31)
    3804:	38 80 00 00 	li      r4,0
    3808:	39 60 00 66 	li      r11,102
    380c:	44 00 00 02 	sc      
    3810:	2e 03 00 00 	cmpwi   cr4,r3,0
    3814:	40 92 fb 80 	bne+    cr4,0x3394
    3818:	38 81 01 10 	addi    r4,r1,272
    381c:	80 7f 01 68 	lwz     r3,360(r31)
    3820:	38 a0 00 00 	li      r5,0
    3824:	78 84 00 20 	clrldi  r4,r4,32
    3828:	38 c0 00 01 	li      r6,1
    382c:	48 00 16 ed 	bl      0x4f18
    3830:	e8 41 00 28 	ld      r2,40(r1)
    3834:	80 7f 01 78 	lwz     r3,376(r31)
    3838:	39 60 00 68 	li      r11,104
    383c:	44 00 00 02 	sc      
    3840:	4b ff fb 54 	b       0x3394
    3844:	7f 83 e3 78 	mr      r3,r28
    3848:	4b ff e9 55 	bl      0x219c
    384c:	7f 84 e3 78 	mr      r4,r28
    3850:	7c 7d 1b 78 	mr      r29,r3
    3854:	38 61 01 f0 	addi    r3,r1,496
    3858:	78 63 00 20 	clrldi  r3,r3,32
    385c:	4b ff e8 09 	bl      0x2064
    3860:	2f 9d 00 00 	cmpwi   cr7,r29,0
    3864:	41 9e f8 6c 	beq+    cr7,0x30d0
    3868:	92 bf 01 54 	stw     r21,340(r31)
    386c:	4b ff f8 64 	b       0x30d0
    3870:	57 c0 10 3a 	rlwinm  r0,r30,2,0,29
    3874:	7c 00 f2 14 	add     r0,r0,r30
    3878:	7c 00 90 16 	mulhwu  r0,r0,r18
    387c:	54 1e f0 be 	rlwinm  r30,r0,30,2,31
    3880:	4b ff fa 80 	b       0x3300
    3884:	57 a0 10 3a 	rlwinm  r0,r29,2,0,29
    3888:	7c 00 90 16 	mulhwu  r0,r0,r18
    388c:	54 1e f8 7e 	rlwinm  r30,r0,31,1,31
    3890:	4b ff fd cc 	b       0x365c
    3894:	57 be 08 3c 	rlwinm  r30,r29,1,0,30
    3898:	4b ff fd c4 	b       0x365c
    389c:	57 c0 18 38 	rlwinm  r0,r30,3,0,28
    38a0:	7c 1e 00 50 	subf    r0,r30,r0
    38a4:	54 1e e8 fe 	rlwinm  r30,r0,29,3,31
    38a8:	4b ff fa 58 	b       0x3300
    38ac:	3c 00 cc cc 	lis     r0,-13108
    38b0:	57 a9 18 38 	rlwinm  r9,r29,3,0,28
    38b4:	60 00 cc cd 	ori     r0,r0,52429
    38b8:	7d 29 00 16 	mulhwu  r9,r9,r0
    38bc:	55 3e f0 be 	rlwinm  r30,r9,30,2,31
    38c0:	4b ff fd 9c 	b       0x365c
    38c4:	57 c0 08 3c 	rlwinm  r0,r30,1,0,30
    38c8:	7c 00 90 16 	mulhwu  r0,r0,r18
    38cc:	54 1e f8 7e 	rlwinm  r30,r0,31,1,31
    38d0:	4b ff fa 3c 	b       0x330c
    38d4:	57 de f8 7e 	rlwinm  r30,r30,31,1,31
    38d8:	4b ff fa 34 	b       0x330c
    38dc:	7c 1e 90 16 	mulhwu  r0,r30,r18
    38e0:	54 1e f8 7e 	rlwinm  r30,r0,31,1,31
    38e4:	4b ff fa 28 	b       0x330c
    38e8:	3c 00 cc cc 	lis     r0,-13108
    38ec:	57 c9 08 3c 	rlwinm  r9,r30,1,0,30
    38f0:	60 00 cc cd 	ori     r0,r0,52429
    38f4:	7d 29 00 16 	mulhwu  r9,r9,r0
    38f8:	55 3e f0 be 	rlwinm  r30,r9,30,2,31
    38fc:	4b ff fa 10 	b       0x330c
    3900:	3c 00 24 92 	lis     r0,9362
    3904:	57 c9 08 3c 	rlwinm  r9,r30,1,0,30
    3908:	60 00 49 25 	ori     r0,r0,18725
    390c:	7c 09 00 16 	mulhwu  r0,r9,r0
    3910:	7d 20 48 50 	subf    r9,r0,r9
    3914:	55 29 f8 7e 	rlwinm  r9,r9,31,1,31
    3918:	7c 00 4a 14 	add     r0,r0,r9
    391c:	54 1e f0 be 	rlwinm  r30,r0,30,2,31
    3920:	4b ff f9 ec 	b       0x330c
    3924:	f8 21 fe c1 	stdu    r1,-320(r1)
    3928:	7c 08 02 a6 	mflr    r0
    392c:	fb 81 01 20 	std     r28,288(r1)
    3930:	f8 01 01 50 	std     r0,336(r1)
    3934:	3b 80 00 01 	li      r28,1
    3938:	38 00 00 00 	li      r0,0
    393c:	93 81 00 70 	stw     r28,112(r1)
    3940:	90 01 00 74 	stw     r0,116(r1)
    3944:	fb 61 01 18 	std     r27,280(r1)
    3948:	fb a1 01 28 	std     r29,296(r1)
    394c:	fb c1 01 30 	std     r30,304(r1)
    3950:	7c 9d 23 78 	mr      r29,r4
    3954:	7c 7e 1b 78 	mr      r30,r3
    3958:	7c 7b 1b 78 	mr      r27,r3
    395c:	80 63 01 7c 	lwz     r3,380(r3)
    3960:	fb 21 01 08 	std     r25,264(r1)
    3964:	fb 41 01 10 	std     r26,272(r1)
    3968:	fb e1 01 38 	std     r31,312(r1)
    396c:	38 80 00 00 	li      r4,0
    3970:	39 60 00 66 	li      r11,102
    3974:	44 00 00 02 	sc      
    3978:	2f 83 00 00 	cmpwi   cr7,r3,0
    397c:	7c 7f 1b 78 	mr      r31,r3
    3980:	41 9e 00 34 	beq-    cr7,0x39b4
    3984:	e8 01 01 50 	ld      r0,336(r1)
    3988:	7f e3 07 b4 	extsw   r3,r31
    398c:	eb 21 01 08 	ld      r25,264(r1)
    3990:	eb 41 01 10 	ld      r26,272(r1)
    3994:	7c 08 03 a6 	mtlr    r0
    3998:	eb 61 01 18 	ld      r27,280(r1)
    399c:	eb 81 01 20 	ld      r28,288(r1)
    39a0:	eb a1 01 28 	ld      r29,296(r1)
    39a4:	eb c1 01 30 	ld      r30,304(r1)
    39a8:	eb e1 01 38 	ld      r31,312(r1)
    39ac:	38 21 01 40 	addi    r1,r1,320
    39b0:	4e 80 00 20 	blr
    39b4:	80 7e 01 70 	lwz     r3,368(r30)
    39b8:	38 81 00 70 	addi    r4,r1,112
    39bc:	38 a0 00 01 	li      r5,1
    39c0:	48 00 15 79 	bl      0x4f38
    39c4:	e8 41 00 28 	ld      r2,40(r1)
    39c8:	2f 83 00 00 	cmpwi   cr7,r3,0
    39cc:	7c 7f 1b 78 	mr      r31,r3
    39d0:	40 9e 00 6c 	bne-    cr7,0x3a3c
    39d4:	80 7e 01 7c 	lwz     r3,380(r30)
    39d8:	39 60 00 68 	li      r11,104
    39dc:	44 00 00 02 	sc      
    39e0:	2f 83 00 00 	cmpwi   cr7,r3,0
    39e4:	7c 7f 1b 78 	mr      r31,r3
    39e8:	40 9e ff 9c 	bne+    cr7,0x3984
    39ec:	80 7e 01 78 	lwz     r3,376(r30)
    39f0:	38 80 00 00 	li      r4,0
    39f4:	39 60 00 66 	li      r11,102
    39f8:	44 00 00 02 	sc      
    39fc:	2f 83 00 00 	cmpwi   cr7,r3,0
    3a00:	7c 7f 1b 78 	mr      r31,r3
    3a04:	40 9e ff 80 	bne+    cr7,0x3984
    3a08:	80 7e 01 68 	lwz     r3,360(r30)
    3a0c:	38 81 00 80 	addi    r4,r1,128
    3a10:	38 a0 00 00 	li      r5,0
    3a14:	38 c0 00 01 	li      r6,1
    3a18:	48 00 15 01 	bl      0x4f18
    3a1c:	e8 41 00 28 	ld      r2,40(r1)
    3a20:	2f 83 00 00 	cmpwi   cr7,r3,0
    3a24:	7c 7f 1b 78 	mr      r31,r3
    3a28:	41 9e 00 50 	beq-    cr7,0x3a78
    3a2c:	80 7e 01 78 	lwz     r3,376(r30)
    3a30:	39 60 00 68 	li      r11,104
    3a34:	44 00 00 02 	sc      
    3a38:	4b ff ff 4c 	b       0x3984
    3a3c:	80 7e 01 7c 	lwz     r3,380(r30)
    3a40:	39 60 00 68 	li      r11,104
    3a44:	44 00 00 02 	sc      
    3a48:	e8 01 01 50 	ld      r0,336(r1)
    3a4c:	7f e3 07 b4 	extsw   r3,r31
    3a50:	eb 21 01 08 	ld      r25,264(r1)
    3a54:	eb 41 01 10 	ld      r26,272(r1)
    3a58:	7c 08 03 a6 	mtlr    r0
    3a5c:	eb 61 01 18 	ld      r27,280(r1)
    3a60:	eb 81 01 20 	ld      r28,288(r1)
    3a64:	eb a1 01 28 	ld      r29,296(r1)
    3a68:	eb c1 01 30 	ld      r30,304(r1)
    3a6c:	eb e1 01 38 	ld      r31,312(r1)
    3a70:	38 21 01 40 	addi    r1,r1,320
    3a74:	4e 80 00 20 	blr
    3a78:	80 7e 01 78 	lwz     r3,376(r30)
    3a7c:	39 60 00 68 	li      r11,104
    3a80:	44 00 00 02 	sc      
    3a84:	2f 83 00 00 	cmpwi   cr7,r3,0
    3a88:	7c 7f 1b 78 	mr      r31,r3
    3a8c:	40 9e fe f8 	bne+    cr7,0x3984
    3a90:	83 e1 00 80 	lwz     r31,128(r1)
    3a94:	2f 9f 00 00 	cmpwi   cr7,r31,0
    3a98:	40 9e fe ec 	bne+    cr7,0x3984
    3a9c:	80 1d 00 00 	lwz     r0,0(r29)
    3aa0:	2b 80 00 1f 	cmplwi  cr7,r0,31
    3aa4:	40 9d 00 10 	ble-    cr7,0x3ab4
    3aa8:	3f e0 80 61 	lis     r31,-32671
    3aac:	63 ff 20 03 	ori     r31,r31,8195
    3ab0:	4b ff fe d4 	b       0x3984
    3ab4:	80 1d 00 04 	lwz     r0,4(r29)
    3ab8:	2b 80 00 1f 	cmplwi  cr7,r0,31
    3abc:	41 9d ff ec 	bgt+    cr7,0x3aa8
    3ac0:	80 1d 00 08 	lwz     r0,8(r29)
    3ac4:	2b 80 00 1f 	cmplwi  cr7,r0,31
    3ac8:	41 9d ff e0 	bgt+    cr7,0x3aa8
    3acc:	80 1d 00 0c 	lwz     r0,12(r29)
    3ad0:	2f 80 00 00 	cmpwi   cr7,r0,0
    3ad4:	41 9e ff d4 	beq+    cr7,0x3aa8
    3ad8:	80 7e 00 c8 	lwz     r3,200(r30)
    3adc:	38 80 00 00 	li      r4,0
    3ae0:	39 60 00 66 	li      r11,102
    3ae4:	44 00 00 02 	sc      
    3ae8:	2f 83 00 00 	cmpwi   cr7,r3,0
    3aec:	7c 7f 1b 78 	mr      r31,r3
    3af0:	40 9e fe 94 	bne+    cr7,0x3984
    3af4:	80 1e 00 b8 	lwz     r0,184(r30)
    3af8:	2f 80 00 03 	cmpwi   cr7,r0,3
    3afc:	41 9d 00 bc 	bgt-    cr7,0x3bb8
    3b00:	83 3e 01 04 	lwz     r25,260(r30)
    3b04:	38 80 00 00 	li      r4,0
    3b08:	81 7d 00 08 	lwz     r11,8(r29)
    3b0c:	7b 3a 00 20 	clrldi  r26,r25,32
    3b10:	81 5d 00 0c 	lwz     r10,12(r29)
    3b14:	80 1d 00 00 	lwz     r0,0(r29)
    3b18:	81 3d 00 04 	lwz     r9,4(r29)
    3b1c:	91 7a 00 08 	stw     r11,8(r26)
    3b20:	90 1a 00 00 	stw     r0,0(r26)
    3b24:	91 3a 00 04 	stw     r9,4(r26)
    3b28:	91 5a 00 0c 	stw     r10,12(r26)
    3b2c:	80 7e 02 54 	lwz     r3,596(r30)
    3b30:	39 60 00 66 	li      r11,102
    3b34:	44 00 00 02 	sc      
    3b38:	2f 83 00 00 	cmpwi   cr7,r3,0
    3b3c:	7c 7f 1b 78 	mr      r31,r3
    3b40:	40 9e fe 44 	bne+    cr7,0x3984
    3b44:	80 7e 01 50 	lwz     r3,336(r30)
    3b48:	38 80 00 00 	li      r4,0
    3b4c:	39 60 00 66 	li      r11,102
    3b50:	44 00 00 02 	sc      
    3b54:	2f 83 00 00 	cmpwi   cr7,r3,0
    3b58:	7c 7f 1b 78 	mr      r31,r3
    3b5c:	40 9e fe 28 	bne+    cr7,0x3984
    3b60:	93 9e 02 64 	stw     r28,612(r30)
    3b64:	80 7e 01 50 	lwz     r3,336(r30)
    3b68:	39 60 00 68 	li      r11,104
    3b6c:	44 00 00 02 	sc      
    3b70:	2f 83 00 00 	cmpwi   cr7,r3,0
    3b74:	7c 7f 1b 78 	mr      r31,r3
    3b78:	40 9e fe 0c 	bne+    cr7,0x3984
    3b7c:	39 5e 02 28 	addi    r10,r30,552
    3b80:	81 2a 00 08 	lwz     r9,8(r10)
    3b84:	55 29 28 34 	rlwinm  r9,r9,5,0,26
    3b88:	7d 2a 4a 14 	add     r9,r10,r9
    3b8c:	39 29 00 0c 	addi    r9,r9,12
    3b90:	79 2b 00 20 	clrldi  r11,r9,32
    3b94:	80 0b 00 00 	lwz     r0,0(r11)
    3b98:	2f 80 00 00 	cmpwi   cr7,r0,0
    3b9c:	41 9e 00 34 	beq-    cr7,0x3bd0
    3ba0:	80 7e 02 54 	lwz     r3,596(r30)
    3ba4:	39 60 00 68 	li      r11,104
    3ba8:	44 00 00 02 	sc      
    3bac:	3f e0 80 61 	lis     r31,-32671
    3bb0:	63 ff 20 04 	ori     r31,r31,8196
    3bb4:	4b ff fd d0 	b       0x3984
    3bb8:	80 7e 00 c8 	lwz     r3,200(r30)
    3bbc:	39 60 00 68 	li      r11,104
    3bc0:	44 00 00 02 	sc      
    3bc4:	3f e0 80 61 	lis     r31,-32671
    3bc8:	63 ff 00 04 	ori     r31,r31,4
    3bcc:	4b ff fd b8 	b       0x3984
    3bd0:	2f 99 00 00 	cmpwi   cr7,r25,0
    3bd4:	93 8b 00 00 	stw     r28,0(r11)
    3bd8:	90 6b 00 04 	stw     r3,4(r11)
    3bdc:	90 6b 00 08 	stw     r3,8(r11)
    3be0:	93 2b 00 0c 	stw     r25,12(r11)
    3be4:	41 9e 00 24 	beq-    cr7,0x3c08
    3be8:	80 1a 00 00 	lwz     r0,0(r26)
    3bec:	90 0b 00 10 	stw     r0,16(r11)
    3bf0:	81 3a 00 04 	lwz     r9,4(r26)
    3bf4:	91 2b 00 14 	stw     r9,20(r11)
    3bf8:	80 1a 00 08 	lwz     r0,8(r26)
    3bfc:	90 0b 00 18 	stw     r0,24(r11)
    3c00:	81 3a 00 0c 	lwz     r9,12(r26)
    3c04:	91 2b 00 1c 	stw     r9,28(r11)
    3c08:	81 2a 00 00 	lwz     r9,0(r10)
    3c0c:	39 60 00 68 	li      r11,104
    3c10:	93 ea 00 08 	stw     r31,8(r10)
    3c14:	39 29 00 01 	addi    r9,r9,1
    3c18:	91 2a 00 00 	stw     r9,0(r10)
    3c1c:	80 7e 02 54 	lwz     r3,596(r30)
    3c20:	44 00 00 02 	sc      
    3c24:	2f 83 00 00 	cmpwi   cr7,r3,0
    3c28:	7c 7f 1b 78 	mr      r31,r3
    3c2c:	40 9e fd 58 	bne+    cr7,0x3984
    3c30:	38 7b 01 38 	addi    r3,r27,312
    3c34:	78 63 00 20 	clrldi  r3,r3,32
    3c38:	48 00 10 f9 	bl      0x4d30
    3c3c:	60 00 00 00 	nop
    3c40:	2f 83 00 00 	cmpwi   cr7,r3,0
    3c44:	7c 7f 1b 78 	mr      r31,r3
    3c48:	41 9e 00 14 	beq-    cr7,0x3c5c
    3c4c:	80 7e 00 c8 	lwz     r3,200(r30)
    3c50:	39 60 00 68 	li      r11,104
    3c54:	44 00 00 02 	sc      
    3c58:	4b ff fd 2c 	b       0x3984
    3c5c:	38 7b 02 58 	addi    r3,r27,600
    3c60:	78 63 00 20 	clrldi  r3,r3,32
    3c64:	48 00 0e a9 	bl      0x4b0c
    3c68:	60 00 00 00 	nop
    3c6c:	2f 83 00 00 	cmpwi   cr7,r3,0
    3c70:	7c 7d 1b 78 	mr      r29,r3
    3c74:	7c 7f 1b 78 	mr      r31,r3
    3c78:	40 9e ff d4 	bne+    cr7,0x3c4c
    3c7c:	80 7e 01 50 	lwz     r3,336(r30)
    3c80:	38 80 00 00 	li      r4,0
    3c84:	39 60 00 66 	li      r11,102
    3c88:	44 00 00 02 	sc      
    3c8c:	2f 83 00 00 	cmpwi   cr7,r3,0
    3c90:	7c 7f 1b 78 	mr      r31,r3
    3c94:	40 9e fc f0 	bne+    cr7,0x3984
    3c98:	93 be 02 64 	stw     r29,612(r30)
    3c9c:	80 7e 01 50 	lwz     r3,336(r30)
    3ca0:	39 60 00 68 	li      r11,104
    3ca4:	44 00 00 02 	sc      
    3ca8:	2f 83 00 00 	cmpwi   cr7,r3,0
    3cac:	7c 7f 1b 78 	mr      r31,r3
    3cb0:	40 9e fc d4 	bne+    cr7,0x3984
    3cb4:	80 7e 00 c8 	lwz     r3,200(r30)
    3cb8:	39 60 00 68 	li      r11,104
    3cbc:	44 00 00 02 	sc      
    3cc0:	7c 7f 1b 78 	mr      r31,r3
    3cc4:	4b ff fc c0 	b       0x3984
    3cc8:	f8 21 ff 41 	stdu    r1,-192(r1)
    3ccc:	7c 08 02 a6 	mflr    r0
    3cd0:	fb a1 00 a8 	std     r29,168(r1)
    3cd4:	78 7d 00 20 	clrldi  r29,r3,32
    3cd8:	fb c1 00 b0 	std     r30,176(r1)
    3cdc:	7c 7e 1b 78 	mr      r30,r3
    3ce0:	7f a3 eb 78 	mr      r3,r29
    3ce4:	fb e1 00 b8 	std     r31,184(r1)
    3ce8:	fb 81 00 a0 	std     r28,160(r1)
    3cec:	f8 01 00 d0 	std     r0,208(r1)
    3cf0:	4b ff e1 69 	bl      0x1e58
    3cf4:	2f 83 00 00 	cmpwi   cr7,r3,0
    3cf8:	7c 7f 1b 78 	mr      r31,r3
    3cfc:	38 80 00 00 	li      r4,0
    3d00:	39 60 00 66 	li      r11,102
    3d04:	40 9e 00 50 	bne-    cr7,0x3d54
    3d08:	80 7e 00 c8 	lwz     r3,200(r30)
    3d0c:	44 00 00 02 	sc      
    3d10:	2f 83 00 00 	cmpwi   cr7,r3,0
    3d14:	7c 7f 1b 78 	mr      r31,r3
    3d18:	40 9e 00 3c 	bne-    cr7,0x3d54
    3d1c:	80 1e 00 b8 	lwz     r0,184(r30)
    3d20:	7f a3 eb 78 	mr      r3,r29
    3d24:	38 81 00 70 	addi    r4,r1,112
    3d28:	2f 80 00 03 	cmpwi   cr7,r0,3
    3d2c:	39 60 00 68 	li      r11,104
    3d30:	41 9d 00 80 	bgt-    cr7,0x3db0
    3d34:	38 00 00 02 	li      r0,2
    3d38:	90 01 00 94 	stw     r0,148(r1)
    3d3c:	4b ff e1 e9 	bl      0x1f24
    3d40:	7c 7f 1b 78 	mr      r31,r3
    3d44:	38 7e 01 38 	addi    r3,r30,312
    3d48:	2f 9f 00 00 	cmpwi   cr7,r31,0
    3d4c:	78 63 00 20 	clrldi  r3,r3,32
    3d50:	41 9e 00 28 	beq-    cr7,0x3d78
    3d54:	e8 01 00 d0 	ld      r0,208(r1)
    3d58:	7f e3 07 b4 	extsw   r3,r31
    3d5c:	eb 81 00 a0 	ld      r28,160(r1)
    3d60:	eb a1 00 a8 	ld      r29,168(r1)
    3d64:	7c 08 03 a6 	mtlr    r0
    3d68:	eb c1 00 b0 	ld      r30,176(r1)
    3d6c:	eb e1 00 b8 	ld      r31,184(r1)
    3d70:	38 21 00 c0 	addi    r1,r1,192
    3d74:	4e 80 00 20 	blr
    3d78:	48 00 0f b9 	bl      0x4d30
    3d7c:	60 00 00 00 	nop
    3d80:	39 60 00 68 	li      r11,104
    3d84:	2f 83 00 00 	cmpwi   cr7,r3,0
    3d88:	7c 7f 1b 78 	mr      r31,r3
    3d8c:	41 9e 00 10 	beq-    cr7,0x3d9c
    3d90:	80 7e 00 c8 	lwz     r3,200(r30)
    3d94:	44 00 00 02 	sc      
    3d98:	4b ff ff bc 	b       0x3d54
    3d9c:	80 7e 00 c8 	lwz     r3,200(r30)
    3da0:	39 60 00 68 	li      r11,104
    3da4:	44 00 00 02 	sc      
    3da8:	7c 7f 1b 78 	mr      r31,r3
    3dac:	4b ff ff a8 	b       0x3d54
    3db0:	80 7e 00 c8 	lwz     r3,200(r30)
    3db4:	44 00 00 02 	sc      
    3db8:	3f e0 80 61 	lis     r31,-32671
    3dbc:	63 ff 00 04 	ori     r31,r31,4
    3dc0:	4b ff ff 94 	b       0x3d54
    3dc4:	f8 21 ff 31 	stdu    r1,-208(r1)
    3dc8:	7c 08 02 a6 	mflr    r0
    3dcc:	fb c1 00 c0 	std     r30,192(r1)
    3dd0:	78 7e 00 20 	clrldi  r30,r3,32
    3dd4:	fb a1 00 b8 	std     r29,184(r1)
    3dd8:	7c 7d 1b 78 	mr      r29,r3
    3ddc:	7f c3 f3 78 	mr      r3,r30
    3de0:	fb 41 00 a0 	std     r26,160(r1)
    3de4:	fb 81 00 b0 	std     r28,176(r1)
    3de8:	fb e1 00 c8 	std     r31,200(r1)
    3dec:	7c 9a 23 78 	mr      r26,r4
    3df0:	fb 61 00 a8 	std     r27,168(r1)
    3df4:	f8 01 00 e0 	std     r0,224(r1)
    3df8:	7c bc 2b 78 	mr      r28,r5
    3dfc:	4b ff e0 5d 	bl      0x1e58
    3e00:	2f 83 00 00 	cmpwi   cr7,r3,0
    3e04:	7c 7f 1b 78 	mr      r31,r3
    3e08:	38 80 00 00 	li      r4,0
    3e0c:	39 60 00 66 	li      r11,102
    3e10:	40 9e 00 64 	bne-    cr7,0x3e74
    3e14:	80 7d 00 c8 	lwz     r3,200(r29)
    3e18:	44 00 00 02 	sc      
    3e1c:	2f 83 00 00 	cmpwi   cr7,r3,0
    3e20:	7c 7f 1b 78 	mr      r31,r3
    3e24:	40 9e 00 50 	bne-    cr7,0x3e74
    3e28:	80 1d 00 b8 	lwz     r0,184(r29)
    3e2c:	7f c3 f3 78 	mr      r3,r30
    3e30:	38 81 00 70 	addi    r4,r1,112
    3e34:	2f 80 00 03 	cmpwi   cr7,r0,3
    3e38:	39 60 00 68 	li      r11,104
    3e3c:	41 9d 00 9c 	bgt-    cr7,0x3ed8
    3e40:	81 7c 00 04 	lwz     r11,4(r28)
    3e44:	38 00 00 03 	li      r0,3
    3e48:	81 3c 00 00 	lwz     r9,0(r28)
    3e4c:	93 41 00 70 	stw     r26,112(r1)
    3e50:	90 01 00 94 	stw     r0,148(r1)
    3e54:	91 21 00 74 	stw     r9,116(r1)
    3e58:	91 61 00 78 	stw     r11,120(r1)
    3e5c:	4b ff e0 c9 	bl      0x1f24
    3e60:	7c 7f 1b 78 	mr      r31,r3
    3e64:	38 7d 01 38 	addi    r3,r29,312
    3e68:	2f 9f 00 00 	cmpwi   cr7,r31,0
    3e6c:	78 63 00 20 	clrldi  r3,r3,32
    3e70:	41 9e 00 30 	beq-    cr7,0x3ea0
    3e74:	e8 01 00 e0 	ld      r0,224(r1)
    3e78:	7f e3 07 b4 	extsw   r3,r31
    3e7c:	eb 41 00 a0 	ld      r26,160(r1)
    3e80:	eb 61 00 a8 	ld      r27,168(r1)
    3e84:	7c 08 03 a6 	mtlr    r0
    3e88:	eb 81 00 b0 	ld      r28,176(r1)
    3e8c:	eb a1 00 b8 	ld      r29,184(r1)
    3e90:	eb c1 00 c0 	ld      r30,192(r1)
    3e94:	eb e1 00 c8 	ld      r31,200(r1)
    3e98:	38 21 00 d0 	addi    r1,r1,208
    3e9c:	4e 80 00 20 	blr
    3ea0:	48 00 0e 91 	bl      0x4d30
    3ea4:	60 00 00 00 	nop
    3ea8:	39 60 00 68 	li      r11,104
    3eac:	2f 83 00 00 	cmpwi   cr7,r3,0
    3eb0:	7c 7f 1b 78 	mr      r31,r3
    3eb4:	41 9e 00 10 	beq-    cr7,0x3ec4
    3eb8:	80 7d 00 c8 	lwz     r3,200(r29)
    3ebc:	44 00 00 02 	sc      
    3ec0:	4b ff ff b4 	b       0x3e74
    3ec4:	80 7d 00 c8 	lwz     r3,200(r29)
    3ec8:	39 60 00 68 	li      r11,104
    3ecc:	44 00 00 02 	sc      
    3ed0:	7c 7f 1b 78 	mr      r31,r3
    3ed4:	4b ff ff a0 	b       0x3e74
    3ed8:	80 7d 00 c8 	lwz     r3,200(r29)
    3edc:	44 00 00 02 	sc      
    3ee0:	3f e0 80 61 	lis     r31,-32671
    3ee4:	63 ff 00 04 	ori     r31,r31,4
    3ee8:	4b ff ff 8c 	b       0x3e74
    3eec:	f8 21 ff 51 	stdu    r1,-176(r1)
    3ef0:	7c 08 02 a6 	mflr    r0
    3ef4:	2f 85 00 00 	cmpwi   cr7,r5,0
    3ef8:	fb e1 00 a8 	std     r31,168(r1)
    3efc:	3f e0 80 61 	lis     r31,-32671
    3f00:	fb 21 00 78 	std     r25,120(r1)
    3f04:	fb 81 00 90 	std     r28,144(r1)
    3f08:	fb c1 00 a0 	std     r30,160(r1)
    3f0c:	f8 01 00 c0 	std     r0,192(r1)
    3f10:	fb 41 00 80 	std     r26,128(r1)
    3f14:	fb 61 00 88 	std     r27,136(r1)
    3f18:	fb a1 00 98 	std     r29,152(r1)
    3f1c:	7c 7e 1b 78 	mr      r30,r3
    3f20:	7c bc 2b 78 	mr      r28,r5
    3f24:	7c 80 23 78 	mr      r0,r4
    3f28:	63 ff 20 03 	ori     r31,r31,8195
    3f2c:	7c 99 23 78 	mr      r25,r4
    3f30:	41 9e 00 94 	beq-    cr7,0x3fc4
    3f34:	81 43 01 08 	lwz     r10,264(r3)
    3f38:	39 20 00 00 	li      r9,0
    3f3c:	81 03 01 04 	lwz     r8,260(r3)
    3f40:	38 80 00 00 	li      r4,0
    3f44:	39 60 00 66 	li      r11,102
    3f48:	90 aa 00 04 	stw     r5,4(r10)
    3f4c:	91 2a 00 08 	stw     r9,8(r10)
    3f50:	90 0a 00 0c 	stw     r0,12(r10)
    3f54:	91 2a 00 00 	stw     r9,0(r10)
    3f58:	80 08 00 0c 	lwz     r0,12(r8)
    3f5c:	90 0a 00 10 	stw     r0,16(r10)
    3f60:	81 28 00 00 	lwz     r9,0(r8)
    3f64:	91 2a 00 14 	stw     r9,20(r10)
    3f68:	80 08 00 04 	lwz     r0,4(r8)
    3f6c:	90 0a 00 18 	stw     r0,24(r10)
    3f70:	81 28 00 08 	lwz     r9,8(r8)
    3f74:	91 2a 00 1c 	stw     r9,28(r10)
    3f78:	80 08 00 0c 	lwz     r0,12(r8)
    3f7c:	90 0a 00 20 	stw     r0,32(r10)
    3f80:	83 43 01 88 	lwz     r26,392(r3)
    3f84:	80 63 02 20 	lwz     r3,544(r3)
    3f88:	44 00 00 02 	sc      
    3f8c:	2f 83 00 00 	cmpwi   cr7,r3,0
    3f90:	7c 7d 1b 78 	mr      r29,r3
    3f94:	7c 7f 1b 78 	mr      r31,r3
    3f98:	40 9e 00 2c 	bne-    cr7,0x3fc4
    3f9c:	80 7e 02 1c 	lwz     r3,540(r30)
    3fa0:	38 80 00 00 	li      r4,0
    3fa4:	39 60 00 66 	li      r11,102
    3fa8:	44 00 00 02 	sc      
    3fac:	2f 83 00 00 	cmpwi   cr7,r3,0
    3fb0:	7c 7f 1b 78 	mr      r31,r3
    3fb4:	41 9e 00 40 	beq-    cr7,0x3ff4
    3fb8:	80 7e 02 20 	lwz     r3,544(r30)
    3fbc:	39 60 00 68 	li      r11,104
    3fc0:	44 00 00 02 	sc      
    3fc4:	e8 01 00 c0 	ld      r0,192(r1)
    3fc8:	7f e3 07 b4 	extsw   r3,r31
    3fcc:	eb 21 00 78 	ld      r25,120(r1)
    3fd0:	eb 41 00 80 	ld      r26,128(r1)
    3fd4:	7c 08 03 a6 	mtlr    r0
    3fd8:	eb 61 00 88 	ld      r27,136(r1)
    3fdc:	eb 81 00 90 	ld      r28,144(r1)
    3fe0:	eb a1 00 98 	ld      r29,152(r1)
    3fe4:	eb c1 00 a0 	ld      r30,160(r1)
    3fe8:	eb e1 00 a8 	ld      r31,168(r1)
    3fec:	38 21 00 b0 	addi    r1,r1,176
    3ff0:	4e 80 00 20 	blr
    3ff4:	39 5e 01 c4 	addi    r10,r30,452
    3ff8:	79 4b 00 20 	clrldi  r11,r10,32
    3ffc:	80 0a 00 04 	lwz     r0,4(r10)
    4000:	54 00 20 36 	rlwinm  r0,r0,4,0,27
    4004:	7c 00 07 b4 	extsw   r0,r0
    4008:	7d 6b 02 14 	add     r11,r11,r0
    400c:	81 2b 00 0c 	lwz     r9,12(r11)
    4010:	2f 89 00 00 	cmpwi   cr7,r9,0
    4014:	41 9e 00 90 	beq-    cr7,0x40a4
    4018:	93 ab 00 0c 	stw     r29,12(r11)
    401c:	81 2a 00 04 	lwz     r9,4(r10)
    4020:	81 6a 00 00 	lwz     r11,0(r10)
    4024:	39 29 00 01 	addi    r9,r9,1
    4028:	39 6b ff ff 	addi    r11,r11,-1
    402c:	55 29 07 be 	clrlwi  r9,r9,30
    4030:	91 6a 00 00 	stw     r11,0(r10)
    4034:	91 2a 00 04 	stw     r9,4(r10)
    4038:	80 7e 02 1c 	lwz     r3,540(r30)
    403c:	39 60 00 68 	li      r11,104
    4040:	44 00 00 02 	sc      
    4044:	2f 83 00 00 	cmpwi   cr7,r3,0
    4048:	7c 7f 1b 78 	mr      r31,r3
    404c:	40 9e ff 6c 	bne+    cr7,0x3fb8
    4050:	38 7e 02 10 	addi    r3,r30,528
    4054:	78 63 00 20 	clrldi  r3,r3,32
    4058:	48 00 0c d9 	bl      0x4d30
    405c:	60 00 00 00 	nop
    4060:	2f 83 00 00 	cmpwi   cr7,r3,0
    4064:	7c 7f 1b 78 	mr      r31,r3
    4068:	40 9e ff 50 	bne+    cr7,0x3fb8
    406c:	80 7e 02 20 	lwz     r3,544(r30)
    4070:	39 60 00 68 	li      r11,104
    4074:	44 00 00 02 	sc      
    4078:	2f 83 00 00 	cmpwi   cr7,r3,0
    407c:	7c 7f 1b 78 	mr      r31,r3
    4080:	40 9e ff 44 	bne+    cr7,0x3fc4
    4084:	2f 99 00 00 	cmpwi   cr7,r25,0
    4088:	41 9e ff 3c 	beq+    cr7,0x3fc4
    408c:	7b 23 00 20 	clrldi  r3,r25,32
    4090:	7b 84 00 20 	clrldi  r4,r28,32
    4094:	7b 45 00 20 	clrldi  r5,r26,32
    4098:	48 00 0d 41 	bl      0x4dd8
    409c:	e8 41 00 28 	ld      r2,40(r1)
    40a0:	4b ff ff 24 	b       0x3fc4
    40a4:	80 7e 02 1c 	lwz     r3,540(r30)
    40a8:	39 60 00 68 	li      r11,104
    40ac:	44 00 00 02 	sc      
    40b0:	3f e0 80 61 	lis     r31,-32671
    40b4:	63 ff 20 05 	ori     r31,r31,8197
    40b8:	4b ff ff 00 	b       0x3fb8
    40bc:	f8 21 ff 51 	stdu    r1,-176(r1)
    40c0:	7c 08 02 a6 	mflr    r0
    40c4:	fb a1 00 98 	std     r29,152(r1)
    40c8:	78 7d 00 20 	clrldi  r29,r3,32
    40cc:	fb 81 00 90 	std     r28,144(r1)
    40d0:	fb c1 00 a0 	std     r30,160(r1)
    40d4:	7c 7c 1b 78 	mr      r28,r3
    40d8:	7c 7e 1b 78 	mr      r30,r3
    40dc:	7f a3 eb 78 	mr      r3,r29
    40e0:	fb e1 00 a8 	std     r31,168(r1)
    40e4:	fb 61 00 88 	std     r27,136(r1)
    40e8:	f8 01 00 c0 	std     r0,192(r1)
    40ec:	4b ff dd 6d 	bl      0x1e58
    40f0:	2f 83 00 00 	cmpwi   cr7,r3,0
    40f4:	7c 7f 1b 78 	mr      r31,r3
    40f8:	40 9e 01 10 	bne-    cr7,0x4208
    40fc:	90 7e 00 d8 	stw     r3,216(r30)
    4100:	38 80 00 00 	li      r4,0
    4104:	80 7e 00 c8 	lwz     r3,200(r30)
    4108:	39 60 00 66 	li      r11,102
    410c:	44 00 00 02 	sc      
    4110:	2f 83 00 00 	cmpwi   cr7,r3,0
    4114:	7c 7f 1b 78 	mr      r31,r3
    4118:	40 9e 00 f0 	bne-    cr7,0x4208
    411c:	80 7e 01 50 	lwz     r3,336(r30)
    4120:	38 80 00 00 	li      r4,0
    4124:	39 60 00 66 	li      r11,102
    4128:	44 00 00 02 	sc      
    412c:	2f 83 00 00 	cmpwi   cr7,r3,0
    4130:	7c 7f 1b 78 	mr      r31,r3
    4134:	40 9e 00 d4 	bne-    cr7,0x4208
    4138:	80 1e 00 b8 	lwz     r0,184(r30)
    413c:	2f 80 00 00 	cmpwi   cr7,r0,0
    4140:	40 9d 00 f0 	ble-    cr7,0x4230
    4144:	81 3e 00 b0 	lwz     r9,176(r30)
    4148:	38 00 00 04 	li      r0,4
    414c:	39 60 00 68 	li      r11,104
    4150:	1d 29 00 2c 	mulli   r9,r9,44
    4154:	39 29 00 20 	addi    r9,r9,32
    4158:	7d 29 07 b4 	extsw   r9,r9
    415c:	7d 3d 4a 14 	add     r9,r29,r9
    4160:	90 09 00 04 	stw     r0,4(r9)
    4164:	80 7e 01 50 	lwz     r3,336(r30)
    4168:	90 1e 00 a8 	stw     r0,168(r30)
    416c:	90 1e 00 24 	stw     r0,36(r30)
    4170:	90 1e 00 50 	stw     r0,80(r30)
    4174:	90 1e 00 7c 	stw     r0,124(r30)
    4178:	44 00 00 02 	sc      
    417c:	2f 83 00 00 	cmpwi   cr7,r3,0
    4180:	7c 7f 1b 78 	mr      r31,r3
    4184:	3b be 01 38 	addi    r29,r30,312
    4188:	40 9e 00 80 	bne-    cr7,0x4208
    418c:	7b bd 00 20 	clrldi  r29,r29,32
    4190:	7f a3 eb 78 	mr      r3,r29
    4194:	48 00 0b 9d 	bl      0x4d30
    4198:	60 00 00 00 	nop
    419c:	2f 83 00 00 	cmpwi   cr7,r3,0
    41a0:	7c 7f 1b 78 	mr      r31,r3
    41a4:	40 9e 00 f8 	bne-    cr7,0x429c
    41a8:	80 7e 00 c8 	lwz     r3,200(r30)
    41ac:	39 60 00 68 	li      r11,104
    41b0:	44 00 00 02 	sc      
    41b4:	2f 83 00 00 	cmpwi   cr7,r3,0
    41b8:	7c 7f 1b 78 	mr      r31,r3
    41bc:	40 9e 00 4c 	bne-    cr7,0x4208
    41c0:	80 7e 02 20 	lwz     r3,544(r30)
    41c4:	38 80 00 00 	li      r4,0
    41c8:	39 60 00 66 	li      r11,102
    41cc:	44 00 00 02 	sc      
    41d0:	2f 83 00 00 	cmpwi   cr7,r3,0
    41d4:	7c 7f 1b 78 	mr      r31,r3
    41d8:	40 9e 00 30 	bne-    cr7,0x4208
    41dc:	38 1c 02 10 	addi    r0,r28,528
    41e0:	78 1b 00 20 	clrldi  r27,r0,32
    41e4:	7f 63 db 78 	mr      r3,r27
    41e8:	48 00 0b 49 	bl      0x4d30
    41ec:	60 00 00 00 	nop
    41f0:	2f 83 00 00 	cmpwi   cr7,r3,0
    41f4:	7c 7f 1b 78 	mr      r31,r3
    41f8:	41 9e 00 b4 	beq-    cr7,0x42ac
    41fc:	80 7e 02 20 	lwz     r3,544(r30)
    4200:	39 60 00 68 	li      r11,104
    4204:	44 00 00 02 	sc      
    4208:	e8 01 00 c0 	ld      r0,192(r1)
    420c:	7f e3 07 b4 	extsw   r3,r31
    4210:	eb 61 00 88 	ld      r27,136(r1)
    4214:	eb 81 00 90 	ld      r28,144(r1)
    4218:	7c 08 03 a6 	mtlr    r0
    421c:	eb a1 00 98 	ld      r29,152(r1)
    4220:	eb c1 00 a0 	ld      r30,160(r1)
    4224:	eb e1 00 a8 	ld      r31,168(r1)
    4228:	38 21 00 b0 	addi    r1,r1,176
    422c:	4e 80 00 20 	blr
    4230:	81 3e 00 b4 	lwz     r9,180(r30)
    4234:	38 00 00 04 	li      r0,4
    4238:	39 60 00 68 	li      r11,104
    423c:	1d 29 00 2c 	mulli   r9,r9,44
    4240:	39 29 00 20 	addi    r9,r9,32
    4244:	7d 29 07 b4 	extsw   r9,r9
    4248:	7d 3d 4a 14 	add     r9,r29,r9
    424c:	90 09 00 04 	stw     r0,4(r9)
    4250:	81 5e 00 b4 	lwz     r10,180(r30)
    4254:	81 3e 00 b8 	lwz     r9,184(r30)
    4258:	39 4a 00 01 	addi    r10,r10,1
    425c:	80 7e 01 50 	lwz     r3,336(r30)
    4260:	39 29 00 01 	addi    r9,r9,1
    4264:	55 4a 07 be 	clrlwi  r10,r10,30
    4268:	91 3e 00 b8 	stw     r9,184(r30)
    426c:	91 5e 00 b4 	stw     r10,180(r30)
    4270:	44 00 00 02 	sc      
    4274:	2f 83 00 00 	cmpwi   cr7,r3,0
    4278:	7c 7f 1b 78 	mr      r31,r3
    427c:	40 9e ff 8c 	bne+    cr7,0x4208
    4280:	3b be 01 38 	addi    r29,r30,312
    4284:	7b a3 00 20 	clrldi  r3,r29,32
    4288:	48 00 0a a9 	bl      0x4d30
    428c:	60 00 00 00 	nop
    4290:	2f 83 00 00 	cmpwi   cr7,r3,0
    4294:	7c 7f 1b 78 	mr      r31,r3
    4298:	41 9e fe f4 	beq+    cr7,0x418c
    429c:	80 7e 00 c8 	lwz     r3,200(r30)
    42a0:	39 60 00 68 	li      r11,104
    42a4:	44 00 00 02 	sc      
    42a8:	4b ff ff 60 	b       0x4208
    42ac:	80 7e 02 20 	lwz     r3,544(r30)
    42b0:	39 60 00 68 	li      r11,104
    42b4:	44 00 00 02 	sc      
    42b8:	2f 83 00 00 	cmpwi   cr7,r3,0
    42bc:	7c 7f 1b 78 	mr      r31,r3
    42c0:	40 9e ff 48 	bne+    cr7,0x4208
    42c4:	e8 7e 00 c0 	ld      r3,192(r30)
    42c8:	38 81 00 70 	addi    r4,r1,112
    42cc:	39 60 00 2c 	li      r11,44
    42d0:	44 00 00 02 	sc      
    42d4:	2f 83 00 00 	cmpwi   cr7,r3,0
    42d8:	7c 7f 1b 78 	mr      r31,r3
    42dc:	40 9e ff 2c 	bne+    cr7,0x4208
    42e0:	80 7e 00 cc 	lwz     r3,204(r30)
    42e4:	39 60 00 6a 	li      r11,106
    42e8:	44 00 00 02 	sc      
    42ec:	2f 83 00 00 	cmpwi   cr7,r3,0
    42f0:	7c 7f 1b 78 	mr      r31,r3
    42f4:	40 9e ff 14 	bne+    cr7,0x4208
    42f8:	80 7e 00 d4 	lwz     r3,212(r30)
    42fc:	39 60 00 6a 	li      r11,106
    4300:	44 00 00 02 	sc      
    4304:	2f 83 00 00 	cmpwi   cr7,r3,0
    4308:	7c 7f 1b 78 	mr      r31,r3
    430c:	40 9e fe fc 	bne+    cr7,0x4208
    4310:	80 7e 01 50 	lwz     r3,336(r30)
    4314:	39 60 00 65 	li      r11,101
    4318:	44 00 00 02 	sc      
    431c:	2f 83 00 00 	cmpwi   cr7,r3,0
    4320:	7c 7f 1b 78 	mr      r31,r3
    4324:	40 9e fe e4 	bne+    cr7,0x4208
    4328:	80 7e 00 c8 	lwz     r3,200(r30)
    432c:	39 60 00 65 	li      r11,101
    4330:	44 00 00 02 	sc      
    4334:	2f 83 00 00 	cmpwi   cr7,r3,0
    4338:	7c 7f 1b 78 	mr      r31,r3
    433c:	40 9e fe cc 	bne+    cr7,0x4208
    4340:	80 7e 00 d0 	lwz     r3,208(r30)
    4344:	39 60 00 65 	li      r11,101
    4348:	44 00 00 02 	sc      
    434c:	2f 83 00 00 	cmpwi   cr7,r3,0
    4350:	7c 7f 1b 78 	mr      r31,r3
    4354:	40 9e fe b4 	bne+    cr7,0x4208
    4358:	7f a3 eb 78 	mr      r3,r29
    435c:	48 00 09 15 	bl      0x4c70
    4360:	60 00 00 00 	nop
    4364:	2f 83 00 00 	cmpwi   cr7,r3,0
    4368:	7c 7f 1b 78 	mr      r31,r3
    436c:	40 9e fe 9c 	bne+    cr7,0x4208
    4370:	38 7c 01 44 	addi    r3,r28,324
    4374:	78 63 00 20 	clrldi  r3,r3,32
    4378:	48 00 08 f9 	bl      0x4c70
    437c:	60 00 00 00 	nop
    4380:	2f 83 00 00 	cmpwi   cr7,r3,0
    4384:	7c 7f 1b 78 	mr      r31,r3
    4388:	40 9e fe 80 	bne+    cr7,0x4208
    438c:	80 7e 02 1c 	lwz     r3,540(r30)
    4390:	39 60 00 65 	li      r11,101
    4394:	44 00 00 02 	sc      
    4398:	2f 83 00 00 	cmpwi   cr7,r3,0
    439c:	7c 7f 1b 78 	mr      r31,r3
    43a0:	40 9e fe 68 	bne+    cr7,0x4208
    43a4:	80 7e 02 20 	lwz     r3,544(r30)
    43a8:	39 60 00 65 	li      r11,101
    43ac:	44 00 00 02 	sc      
    43b0:	2f 83 00 00 	cmpwi   cr7,r3,0
    43b4:	7c 7f 1b 78 	mr      r31,r3
    43b8:	40 9e fe 50 	bne+    cr7,0x4208
    43bc:	80 7e 02 54 	lwz     r3,596(r30)
    43c0:	39 60 00 65 	li      r11,101
    43c4:	44 00 00 02 	sc      
    43c8:	2f 83 00 00 	cmpwi   cr7,r3,0
    43cc:	7c 7f 1b 78 	mr      r31,r3
    43d0:	40 9e fe 38 	bne+    cr7,0x4208
    43d4:	7f 63 db 78 	mr      r3,r27
    43d8:	48 00 08 99 	bl      0x4c70
    43dc:	60 00 00 00 	nop
    43e0:	2f 83 00 00 	cmpwi   cr7,r3,0
    43e4:	7c 7f 1b 78 	mr      r31,r3
    43e8:	40 9e fe 20 	bne+    cr7,0x4208
    43ec:	38 7c 02 58 	addi    r3,r28,600
    43f0:	78 63 00 20 	clrldi  r3,r3,32
    43f4:	48 00 06 6d 	bl      0x4a60
    43f8:	60 00 00 00 	nop
    43fc:	2f 83 00 00 	cmpwi   cr7,r3,0
    4400:	7c 7f 1b 78 	mr      r31,r3
    4404:	40 9e fe 04 	bne+    cr7,0x4208
    4408:	80 7e 01 68 	lwz     r3,360(r30)
    440c:	48 00 0a 0d 	bl      0x4e18
    4410:	e8 41 00 28 	ld      r2,40(r1)
    4414:	2f 83 00 00 	cmpwi   cr7,r3,0
    4418:	7c 7f 1b 78 	mr      r31,r3
    441c:	40 9e fd ec 	bne+    cr7,0x4208
    4420:	80 7e 01 70 	lwz     r3,368(r30)
    4424:	48 00 09 f5 	bl      0x4e18
    4428:	e8 41 00 28 	ld      r2,40(r1)
    442c:	2f 83 00 00 	cmpwi   cr7,r3,0
    4430:	7c 7f 1b 78 	mr      r31,r3
    4434:	40 9e fd d4 	bne+    cr7,0x4208
    4438:	80 7e 01 78 	lwz     r3,376(r30)
    443c:	39 60 00 65 	li      r11,101
    4440:	44 00 00 02 	sc      
    4444:	2f 83 00 00 	cmpwi   cr7,r3,0
    4448:	7c 7f 1b 78 	mr      r31,r3
    444c:	40 9e fd bc 	bne+    cr7,0x4208
    4450:	80 7e 01 7c 	lwz     r3,380(r30)
    4454:	39 60 00 65 	li      r11,101
    4458:	44 00 00 02 	sc      
    445c:	2f 83 00 00 	cmpwi   cr7,r3,0
    4460:	7c 7f 1b 78 	mr      r31,r3
    4464:	40 9e fd a4 	bne+    cr7,0x4208
    4468:	80 7e 01 5c 	lwz     r3,348(r30)
    446c:	48 00 0b 2d 	bl      0x4f98
    4470:	e8 41 00 28 	ld      r2,40(r1)
    4474:	2f 83 00 00 	cmpwi   cr7,r3,0
    4478:	7c 7f 1b 78 	mr      r31,r3
    447c:	40 9e fd 8c 	bne+    cr7,0x4208
    4480:	80 7e 01 5c 	lwz     r3,348(r30)
    4484:	48 00 0a f5 	bl      0x4f78
    4488:	e8 41 00 28 	ld      r2,40(r1)
    448c:	2f 83 00 00 	cmpwi   cr7,r3,0
    4490:	7c 7f 1b 78 	mr      r31,r3
    4494:	40 9e fd 74 	bne+    cr7,0x4208
    4498:	80 1e 01 80 	lwz     r0,384(r30)
    449c:	2f 80 00 00 	cmpwi   cr7,r0,0
    44a0:	40 9e fd 68 	bne+    cr7,0x4208
    44a4:	80 7e 01 58 	lwz     r3,344(r30)
    44a8:	48 00 0b 71 	bl      0x5018
    44ac:	e8 41 00 28 	ld      r2,40(r1)
    44b0:	7c 7f 1b 78 	mr      r31,r3
    44b4:	4b ff fd 54 	b       0x4208
    44b8:	4e 80 00 20 	blr
    44bc:	39 40 00 00 	li      r10,0
    44c0:	7c 08 02 a6 	mflr    r0
    44c4:	39 00 00 00 	li      r8,0
    44c8:	81 62 80 54 	lwz     r11,-32684(r2)
    44cc:	f8 01 00 10 	std     r0,16(r1)
    44d0:	38 00 00 02 	li      r0,2
    44d4:	38 e0 02 00 	li      r7,512
    44d8:	90 01 ff b8 	stw     r0,-72(r1)
    44dc:	39 20 00 20 	li      r9,32
    44e0:	38 00 20 00 	li      r0,8192
    44e4:	91 21 ff bc 	stw     r9,-68(r1)
    44e8:	90 01 ff c4 	stw     r0,-60(r1)
    44ec:	fb a1 ff e8 	std     r29,-24(r1)
    44f0:	91 43 00 40 	stw     r10,64(r3)
    44f4:	91 43 00 44 	stw     r10,68(r3)
    44f8:	91 43 00 48 	stw     r10,72(r3)
    44fc:	fb e1 ff f8 	std     r31,-8(r1)
    4500:	7c 7d 1b 78 	mr      r29,r3
    4504:	90 e1 ff c0 	stw     r7,-64(r1)
    4508:	f9 01 ff c8 	std     r8,-56(r1)
    450c:	91 01 ff d0 	stw     r8,-48(r1)
    4510:	99 41 ff d8 	stb     r10,-40(r1)
    4514:	7c 7f 1b 78 	mr      r31,r3
    4518:	39 21 ff d8 	addi    r9,r1,-40
    451c:	e8 0b 00 00 	ld      r0,0(r11)
    4520:	f8 09 00 00 	std     r0,0(r9)
    4524:	38 00 00 00 	li      r0,0
    4528:	38 c9 00 07 	addi    r6,r9,7
    452c:	98 06 00 00 	stb     r0,0(r6)
    4530:	90 e1 ff a0 	stw     r7,-96(r1)
    4534:	91 01 ff a4 	stw     r8,-92(r1)
    4538:	99 41 ff b0 	stb     r10,-80(r1)
    453c:	f9 01 ff a8 	std     r8,-88(r1)
    4540:	81 62 80 58 	lwz     r11,-32680(r2)
    4544:	39 21 ff b0 	addi    r9,r1,-80
    4548:	e8 0b 00 00 	ld      r0,0(r11)
    454c:	f8 09 00 00 	std     r0,0(r9)
    4550:	38 00 00 00 	li      r0,0
    4554:	39 49 00 07 	addi    r10,r9,7
    4558:	98 0a 00 00 	stb     r0,0(r10)
    455c:	38 63 00 4c 	addi    r3,r3,76
    4560:	38 81 ff b8 	addi    r4,r1,-72
    4564:	78 63 00 20 	clrldi  r3,r3,32
    4568:	39 60 00 64 	li      r11,100
    456c:	44 00 00 02 	sc      
    4570:	38 7d 00 50 	addi    r3,r29,80
    4574:	80 9d 00 4c 	lwz     r4,76(r29)
    4578:	38 a1 ff a0 	addi    r5,r1,-96
    457c:	78 63 00 20 	clrldi  r3,r3,32
    4580:	39 60 00 69 	li      r11,105
    4584:	44 00 00 02 	sc      
    4588:	39 20 00 04 	li      r9,4
    458c:	39 40 00 00 	li      r10,0
    4590:	39 60 00 00 	li      r11,0
    4594:	7d 29 03 a6 	mtctr   r9
    4598:	38 e0 00 ff 	li      r7,255
    459c:	39 00 00 00 	li      r8,0
    45a0:	38 00 ff ff 	li      r0,-1
    45a4:	7d 2b fa 14 	add     r9,r11,r31
    45a8:	39 6b 00 10 	addi    r11,r11,16
    45ac:	79 29 00 20 	clrldi  r9,r9,32
    45b0:	91 49 00 00 	stw     r10,0(r9)
    45b4:	90 09 00 0c 	stw     r0,12(r9)
    45b8:	90 e9 00 04 	stw     r7,4(r9)
    45bc:	91 09 00 08 	stw     r8,8(r9)
    45c0:	39 4a 00 01 	addi    r10,r10,1
    45c4:	42 00 ff e0 	bdnz+   0x45a4
    45c8:	e8 01 00 10 	ld      r0,16(r1)
    45cc:	eb a1 ff e8 	ld      r29,-24(r1)
    45d0:	7c 08 03 a6 	mtlr    r0
    45d4:	eb e1 ff f8 	ld      r31,-8(r1)
    45d8:	4e 80 00 20 	blr
    45dc:	fb e1 ff f8 	std     r31,-8(r1)
    45e0:	7c 08 02 a6 	mflr    r0
    45e4:	7c 7f 1b 78 	mr      r31,r3
    45e8:	f8 01 00 10 	std     r0,16(r1)
    45ec:	39 60 00 6a 	li      r11,106
    45f0:	80 63 00 50 	lwz     r3,80(r3)
    45f4:	44 00 00 02 	sc      
    45f8:	2f 83 00 00 	cmpwi   cr7,r3,0
    45fc:	39 60 00 65 	li      r11,101
    4600:	40 9e 00 0c 	bne-    cr7,0x460c
    4604:	80 7f 00 4c 	lwz     r3,76(r31)
    4608:	44 00 00 02 	sc      
    460c:	e8 01 00 10 	ld      r0,16(r1)
    4610:	7c 63 07 b4 	extsw   r3,r3
    4614:	eb e1 ff f8 	ld      r31,-8(r1)
    4618:	7c 08 03 a6 	mtlr    r0
    461c:	4e 80 00 20 	blr
    4620:	4e 80 00 20 	blr
    4624:	fb c1 ff f0 	std     r30,-16(r1)
    4628:	7c 08 02 a6 	mflr    r0
    462c:	fb e1 ff f8 	std     r31,-8(r1)
    4630:	f8 01 00 10 	std     r0,16(r1)
    4634:	7c 7f 1b 78 	mr      r31,r3
    4638:	80 63 00 4c 	lwz     r3,76(r3)
    463c:	7c 9e 23 78 	mr      r30,r4
    4640:	fb 61 ff d8 	std     r27,-40(r1)
    4644:	fb 81 ff e0 	std     r28,-32(r1)
    4648:	fb a1 ff e8 	std     r29,-24(r1)
    464c:	38 80 00 00 	li      r4,0
    4650:	39 60 00 66 	li      r11,102
    4654:	44 00 00 02 	sc      
    4658:	83 bf 00 44 	lwz     r29,68(r31)
    465c:	3b 60 00 01 	li      r27,1
    4660:	39 60 00 68 	li      r11,104
    4664:	57 bd 20 36 	rlwinm  r29,r29,4,0,27
    4668:	7f bd 07 b4 	extsw   r29,r29
    466c:	7d 3f ea 14 	add     r9,r31,r29
    4670:	80 09 00 04 	lwz     r0,4(r9)
    4674:	2f 80 00 ff 	cmpwi   cr7,r0,255
    4678:	40 9e 00 4c 	bne-    cr7,0x46c4
    467c:	80 1e 00 04 	lwz     r0,4(r30)
    4680:	3b 60 00 00 	li      r27,0
    4684:	81 1e 00 0c 	lwz     r8,12(r30)
    4688:	90 09 00 04 	stw     r0,4(r9)
    468c:	81 3f 00 44 	lwz     r9,68(r31)
    4690:	80 1e 00 08 	lwz     r0,8(r30)
    4694:	55 29 20 36 	rlwinm  r9,r9,4,0,27
    4698:	7d 29 07 b4 	extsw   r9,r9
    469c:	7d 3f 4a 14 	add     r9,r31,r9
    46a0:	91 09 00 0c 	stw     r8,12(r9)
    46a4:	81 5f 00 44 	lwz     r10,68(r31)
    46a8:	81 1f 00 48 	lwz     r8,72(r31)
    46ac:	39 4a 00 01 	addi    r10,r10,1
    46b0:	39 08 00 01 	addi    r8,r8,1
    46b4:	55 4a 07 be 	clrlwi  r10,r10,30
    46b8:	90 09 00 08 	stw     r0,8(r9)
    46bc:	91 5f 00 44 	stw     r10,68(r31)
    46c0:	91 1f 00 48 	stw     r8,72(r31)
    46c4:	80 7f 00 4c 	lwz     r3,76(r31)
    46c8:	44 00 00 02 	sc      
    46cc:	e8 01 00 10 	ld      r0,16(r1)
    46d0:	7f 63 07 b4 	extsw   r3,r27
    46d4:	eb 81 ff e0 	ld      r28,-32(r1)
    46d8:	7c 08 03 a6 	mtlr    r0
    46dc:	eb 61 ff d8 	ld      r27,-40(r1)
    46e0:	eb a1 ff e8 	ld      r29,-24(r1)
    46e4:	eb c1 ff f0 	ld      r30,-16(r1)
    46e8:	eb e1 ff f8 	ld      r31,-8(r1)
    46ec:	4e 80 00 20 	blr
    46f0:	fb 41 ff d0 	std     r26,-48(r1)
    46f4:	7c 08 02 a6 	mflr    r0
    46f8:	fb 81 ff e0 	std     r28,-32(r1)
    46fc:	f8 01 00 10 	std     r0,16(r1)
    4700:	fb e1 ff f8 	std     r31,-8(r1)
    4704:	7c 9a 23 78 	mr      r26,r4
    4708:	7c 7f 1b 78 	mr      r31,r3
    470c:	78 7c 00 20 	clrldi  r28,r3,32
    4710:	80 63 00 4c 	lwz     r3,76(r3)
    4714:	fb 61 ff d8 	std     r27,-40(r1)
    4718:	fb a1 ff e8 	std     r29,-24(r1)
    471c:	fb c1 ff f0 	std     r30,-16(r1)
    4720:	38 80 00 00 	li      r4,0
    4724:	39 60 00 66 	li      r11,102
    4728:	44 00 00 02 	sc      
    472c:	83 bf 00 40 	lwz     r29,64(r31)
    4730:	3b c0 00 01 	li      r30,1
    4734:	39 60 00 68 	li      r11,104
    4738:	57 bd 20 36 	rlwinm  r29,r29,4,0,27
    473c:	7f a9 07 b4 	extsw   r9,r29
    4740:	7f 7f ea 14 	add     r27,r31,r29
    4744:	7f 9c 4a 14 	add     r28,r28,r9
    4748:	80 1c 00 04 	lwz     r0,4(r28)
    474c:	2f 80 00 ff 	cmpwi   cr7,r0,255
    4750:	41 9e 00 0c 	beq-    cr7,0x475c
    4754:	3b c0 00 00 	li      r30,0
    4758:	93 7a 00 00 	stw     r27,0(r26)
    475c:	80 7f 00 4c 	lwz     r3,76(r31)
    4760:	44 00 00 02 	sc      
    4764:	e8 01 00 10 	ld      r0,16(r1)
    4768:	7b c3 07 e0 	clrldi  r3,r30,63
    476c:	eb 41 ff d0 	ld      r26,-48(r1)
    4770:	7c 08 03 a6 	mtlr    r0
    4774:	eb 61 ff d8 	ld      r27,-40(r1)
    4778:	eb 81 ff e0 	ld      r28,-32(r1)
    477c:	eb a1 ff e8 	ld      r29,-24(r1)
    4780:	eb c1 ff f0 	ld      r30,-16(r1)
    4784:	eb e1 ff f8 	ld      r31,-8(r1)
    4788:	4e 80 00 20 	blr
    478c:	fb 41 ff d0 	std     r26,-48(r1)
    4790:	7c 08 02 a6 	mflr    r0
    4794:	fb 81 ff e0 	std     r28,-32(r1)
    4798:	f8 01 00 10 	std     r0,16(r1)
    479c:	7c 7c 1b 78 	mr      r28,r3
    47a0:	80 63 00 4c 	lwz     r3,76(r3)
    47a4:	7c 9a 23 78 	mr      r26,r4
    47a8:	fb 61 ff d8 	std     r27,-40(r1)
    47ac:	fb a1 ff e8 	std     r29,-24(r1)
    47b0:	38 80 00 00 	li      r4,0
    47b4:	39 60 00 66 	li      r11,102
    47b8:	44 00 00 02 	sc      
    47bc:	83 bc 00 40 	lwz     r29,64(r28)
    47c0:	39 60 00 68 	li      r11,104
    47c4:	80 7c 00 4c 	lwz     r3,76(r28)
    47c8:	57 bd 20 36 	rlwinm  r29,r29,4,0,27
    47cc:	7f 7c ea 14 	add     r27,r28,r29
    47d0:	93 7a 00 00 	stw     r27,0(r26)
    47d4:	44 00 00 02 	sc      
    47d8:	e8 01 00 10 	ld      r0,16(r1)
    47dc:	38 60 00 00 	li      r3,0
    47e0:	eb 41 ff d0 	ld      r26,-48(r1)
    47e4:	7c 08 03 a6 	mtlr    r0
    47e8:	eb 61 ff d8 	ld      r27,-40(r1)
    47ec:	eb 81 ff e0 	ld      r28,-32(r1)
    47f0:	eb a1 ff e8 	ld      r29,-24(r1)
    47f4:	4e 80 00 20 	blr
    47f8:	fb 81 ff e0 	std     r28,-32(r1)
    47fc:	7c 08 02 a6 	mflr    r0
    4800:	fb e1 ff f8 	std     r31,-8(r1)
    4804:	f8 01 00 10 	std     r0,16(r1)
    4808:	7c 7f 1b 78 	mr      r31,r3
    480c:	78 7c 00 20 	clrldi  r28,r3,32
    4810:	80 63 00 4c 	lwz     r3,76(r3)
    4814:	fb 61 ff d8 	std     r27,-40(r1)
    4818:	fb a1 ff e8 	std     r29,-24(r1)
    481c:	fb c1 ff f0 	std     r30,-16(r1)
    4820:	38 80 00 00 	li      r4,0
    4824:	39 60 00 66 	li      r11,102
    4828:	44 00 00 02 	sc      
    482c:	83 bf 00 40 	lwz     r29,64(r31)
    4830:	3b 60 00 00 	li      r27,0
    4834:	39 60 00 68 	li      r11,104
    4838:	57 bd 20 36 	rlwinm  r29,r29,4,0,27
    483c:	7f a9 07 b4 	extsw   r9,r29
    4840:	7d 3c 4a 14 	add     r9,r28,r9
    4844:	80 09 00 04 	lwz     r0,4(r9)
    4848:	2f 80 00 ff 	cmpwi   cr7,r0,255
    484c:	41 9e 00 44 	beq-    cr7,0x4890
    4850:	38 00 00 ff 	li      r0,255
    4854:	7f 7f ea 14 	add     r27,r31,r29
    4858:	90 09 00 04 	stw     r0,4(r9)
    485c:	81 3f 00 40 	lwz     r9,64(r31)
    4860:	38 00 ff ff 	li      r0,-1
    4864:	55 29 20 36 	rlwinm  r9,r9,4,0,27
    4868:	7d 29 07 b4 	extsw   r9,r9
    486c:	7d 3c 4a 14 	add     r9,r28,r9
    4870:	90 09 00 0c 	stw     r0,12(r9)
    4874:	81 5f 00 40 	lwz     r10,64(r31)
    4878:	81 3f 00 48 	lwz     r9,72(r31)
    487c:	39 4a 00 01 	addi    r10,r10,1
    4880:	39 29 ff ff 	addi    r9,r9,-1
    4884:	55 4a 07 be 	clrlwi  r10,r10,30
    4888:	91 3f 00 48 	stw     r9,72(r31)
    488c:	91 5f 00 40 	stw     r10,64(r31)
    4890:	80 7f 00 4c 	lwz     r3,76(r31)
    4894:	44 00 00 02 	sc      
    4898:	e8 01 00 10 	ld      r0,16(r1)
    489c:	7b 63 00 20 	clrldi  r3,r27,32
    48a0:	eb 81 ff e0 	ld      r28,-32(r1)
    48a4:	7c 08 03 a6 	mtlr    r0
    48a8:	eb 61 ff d8 	ld      r27,-40(r1)
    48ac:	eb a1 ff e8 	ld      r29,-24(r1)
    48b0:	eb c1 ff f0 	ld      r30,-16(r1)
    48b4:	eb e1 ff f8 	ld      r31,-8(r1)
    48b8:	4e 80 00 20 	blr
    48bc:	fb e1 ff f8 	std     r31,-8(r1)
    48c0:	7c 08 02 a6 	mflr    r0
    48c4:	7c 7f 1b 78 	mr      r31,r3
    48c8:	f8 01 00 10 	std     r0,16(r1)
    48cc:	fb 81 ff e0 	std     r28,-32(r1)
    48d0:	fb a1 ff e8 	std     r29,-24(r1)
    48d4:	38 80 00 00 	li      r4,0
    48d8:	80 63 00 4c 	lwz     r3,76(r3)
    48dc:	39 60 00 66 	li      r11,102
    48e0:	44 00 00 02 	sc      
    48e4:	83 bf 00 40 	lwz     r29,64(r31)
    48e8:	39 60 00 68 	li      r11,104
    48ec:	57 bd 20 36 	rlwinm  r29,r29,4,0,27
    48f0:	7f bd 07 b4 	extsw   r29,r29
    48f4:	7f 9f ea 14 	add     r28,r31,r29
    48f8:	80 1c 00 04 	lwz     r0,4(r28)
    48fc:	2f 80 00 ff 	cmpwi   cr7,r0,255
    4900:	41 9e 00 30 	beq-    cr7,0x4930
    4904:	80 7f 00 4c 	lwz     r3,76(r31)
    4908:	39 60 00 68 	li      r11,104
    490c:	44 00 00 02 	sc      
    4910:	38 60 00 00 	li      r3,0
    4914:	e8 01 00 10 	ld      r0,16(r1)
    4918:	eb 81 ff e0 	ld      r28,-32(r1)
    491c:	7c 63 07 b4 	extsw   r3,r3
    4920:	7c 08 03 a6 	mtlr    r0
    4924:	eb a1 ff e8 	ld      r29,-24(r1)
    4928:	eb e1 ff f8 	ld      r31,-8(r1)
    492c:	4e 80 00 20 	blr
    4930:	80 7f 00 4c 	lwz     r3,76(r31)
    4934:	44 00 00 02 	sc      
    4938:	38 60 00 01 	li      r3,1
    493c:	e8 01 00 10 	ld      r0,16(r1)
    4940:	eb 81 ff e0 	ld      r28,-32(r1)
    4944:	7c 63 07 b4 	extsw   r3,r3
    4948:	7c 08 03 a6 	mtlr    r0
    494c:	eb a1 ff e8 	ld      r29,-24(r1)
    4950:	eb e1 ff f8 	ld      r31,-8(r1)
    4954:	4e 80 00 20 	blr
    4958:	54 87 00 3c 	rlwinm  r7,r4,0,0,30
    495c:	7c 08 02 a6 	mflr    r0
    4960:	fb e1 ff f8 	std     r31,-8(r1)
    4964:	2f 87 00 00 	cmpwi   cr7,r7,0
    4968:	f8 01 00 10 	std     r0,16(r1)
    496c:	3c 00 80 01 	lis     r0,-32767
    4970:	fb c1 ff f0 	std     r30,-16(r1)
    4974:	39 00 00 00 	li      r8,0
    4978:	38 c0 02 00 	li      r6,512
    497c:	39 61 ff e8 	addi    r11,r1,-24
    4980:	7c 7f 1b 78 	mr      r31,r3
    4984:	54 8a f8 00 	rlwinm  r10,r4,31,0,0
    4988:	60 00 00 02 	ori     r0,r0,2
    498c:	40 9e 00 bc 	bne-    cr7,0x4a48
    4990:	81 23 00 00 	lwz     r9,0(r3)
    4994:	38 00 00 02 	li      r0,2
    4998:	55 29 00 7e 	clrlwi  r9,r9,1
    499c:	90 01 ff c8 	stw     r0,-56(r1)
    49a0:	38 00 00 20 	li      r0,32
    49a4:	7d 29 53 78 	or      r9,r9,r10
    49a8:	90 01 ff cc 	stw     r0,-52(r1)
    49ac:	38 00 20 00 	li      r0,8192
    49b0:	90 01 ff d4 	stw     r0,-44(r1)
    49b4:	91 23 00 00 	stw     r9,0(r3)
    49b8:	90 c1 ff d0 	stw     r6,-48(r1)
    49bc:	f9 01 ff d8 	std     r8,-40(r1)
    49c0:	91 01 ff e0 	stw     r8,-32(r1)
    49c4:	98 e1 ff e8 	stb     r7,-24(r1)
    49c8:	81 22 80 5c 	lwz     r9,-32676(r2)
    49cc:	e8 09 00 00 	ld      r0,0(r9)
    49d0:	f8 0b 00 00 	std     r0,0(r11)
    49d4:	38 00 00 00 	li      r0,0
    49d8:	39 4b 00 07 	addi    r10,r11,7
    49dc:	98 0a 00 00 	stb     r0,0(r10)
    49e0:	90 c1 ff b0 	stw     r6,-80(r1)
    49e4:	91 01 ff b4 	stw     r8,-76(r1)
    49e8:	98 e1 ff c0 	stb     r7,-64(r1)
    49ec:	f9 01 ff b8 	std     r8,-72(r1)
    49f0:	81 62 80 60 	lwz     r11,-32672(r2)
    49f4:	39 21 ff c0 	addi    r9,r1,-64
    49f8:	e8 0b 00 00 	ld      r0,0(r11)
    49fc:	f8 09 00 00 	std     r0,0(r9)
    4a00:	38 00 00 00 	li      r0,0
    4a04:	39 49 00 07 	addi    r10,r9,7
    4a08:	98 0a 00 00 	stb     r0,0(r10)
    4a0c:	38 63 00 04 	addi    r3,r3,4
    4a10:	38 81 ff c8 	addi    r4,r1,-56
    4a14:	78 63 00 20 	clrldi  r3,r3,32
    4a18:	39 60 00 64 	li      r11,100
    4a1c:	44 00 00 02 	sc      
    4a20:	7c 60 1b 78 	mr      r0,r3
    4a24:	38 7f 00 08 	addi    r3,r31,8
    4a28:	2f 80 00 00 	cmpwi   cr7,r0,0
    4a2c:	78 63 00 20 	clrldi  r3,r3,32
    4a30:	38 a1 ff b0 	addi    r5,r1,-80
    4a34:	40 9e 00 14 	bne-    cr7,0x4a48
    4a38:	80 9f 00 04 	lwz     r4,4(r31)
    4a3c:	39 60 00 69 	li      r11,105
    4a40:	44 00 00 02 	sc      
    4a44:	7c 60 1b 78 	mr      r0,r3
    4a48:	7c 03 07 b4 	extsw   r3,r0
    4a4c:	e8 01 00 10 	ld      r0,16(r1)
    4a50:	eb c1 ff f0 	ld      r30,-16(r1)
    4a54:	7c 08 03 a6 	mtlr    r0
    4a58:	eb e1 ff f8 	ld      r31,-8(r1)
    4a5c:	4e 80 00 20 	blr
    4a60:	fb e1 ff f8 	std     r31,-8(r1)
    4a64:	7c 08 02 a6 	mflr    r0
    4a68:	7c 7f 1b 78 	mr      r31,r3
    4a6c:	f8 01 00 10 	std     r0,16(r1)
    4a70:	39 60 00 6a 	li      r11,106
    4a74:	80 63 00 08 	lwz     r3,8(r3)
    4a78:	44 00 00 02 	sc      
    4a7c:	2f 83 00 00 	cmpwi   cr7,r3,0
    4a80:	39 60 00 65 	li      r11,101
    4a84:	40 9e 00 0c 	bne-    cr7,0x4a90
    4a88:	80 7f 00 04 	lwz     r3,4(r31)
    4a8c:	44 00 00 02 	sc      
    4a90:	e8 01 00 10 	ld      r0,16(r1)
    4a94:	7c 63 07 b4 	extsw   r3,r3
    4a98:	eb e1 ff f8 	ld      r31,-8(r1)
    4a9c:	7c 08 03 a6 	mtlr    r0
    4aa0:	4e 80 00 20 	blr
    4aa4:	fb e1 ff f8 	std     r31,-8(r1)
    4aa8:	7c 08 02 a6 	mflr    r0
    4aac:	7c 7f 1b 78 	mr      r31,r3
    4ab0:	f8 01 00 10 	std     r0,16(r1)
    4ab4:	38 80 00 00 	li      r4,0
    4ab8:	80 63 00 04 	lwz     r3,4(r3)
    4abc:	39 60 00 66 	li      r11,102
    4ac0:	44 00 00 02 	sc      
    4ac4:	2f 83 00 00 	cmpwi   cr7,r3,0
    4ac8:	39 60 00 68 	li      r11,104
    4acc:	40 9e 00 2c 	bne-    cr7,0x4af8
    4ad0:	81 3f 00 00 	lwz     r9,0(r31)
    4ad4:	80 7f 00 04 	lwz     r3,4(r31)
    4ad8:	65 29 80 00 	oris    r9,r9,32768
    4adc:	91 3f 00 00 	stw     r9,0(r31)
    4ae0:	44 00 00 02 	sc      
    4ae4:	2f 83 00 00 	cmpwi   cr7,r3,0
    4ae8:	39 60 00 6c 	li      r11,108
    4aec:	40 9e 00 0c 	bne-    cr7,0x4af8
    4af0:	80 7f 00 08 	lwz     r3,8(r31)
    4af4:	44 00 00 02 	sc      
    4af8:	e8 01 00 10 	ld      r0,16(r1)
    4afc:	7c 63 07 b4 	extsw   r3,r3
    4b00:	eb e1 ff f8 	ld      r31,-8(r1)
    4b04:	7c 08 03 a6 	mtlr    r0
    4b08:	4e 80 00 20 	blr
    4b0c:	fb e1 ff f8 	std     r31,-8(r1)
    4b10:	7c 08 02 a6 	mflr    r0
    4b14:	7c 7f 1b 78 	mr      r31,r3
    4b18:	f8 01 00 10 	std     r0,16(r1)
    4b1c:	38 80 00 00 	li      r4,0
    4b20:	80 63 00 04 	lwz     r3,4(r3)
    4b24:	39 60 00 66 	li      r11,102
    4b28:	44 00 00 02 	sc      
    4b2c:	2f 83 00 00 	cmpwi   cr7,r3,0
    4b30:	40 9e 00 2c 	bne-    cr7,0x4b5c
    4b34:	81 3f 00 00 	lwz     r9,0(r31)
    4b38:	38 80 00 00 	li      r4,0
    4b3c:	39 60 00 6b 	li      r11,107
    4b40:	2f 89 00 00 	cmpwi   cr7,r9,0
    4b44:	40 9c 00 2c 	bge-    cr7,0x4b70
    4b48:	55 29 00 7e 	clrlwi  r9,r9,1
    4b4c:	80 7f 00 04 	lwz     r3,4(r31)
    4b50:	39 60 00 68 	li      r11,104
    4b54:	91 3f 00 00 	stw     r9,0(r31)
    4b58:	44 00 00 02 	sc      
    4b5c:	e8 01 00 10 	ld      r0,16(r1)
    4b60:	7c 63 07 b4 	extsw   r3,r3
    4b64:	eb e1 ff f8 	ld      r31,-8(r1)
    4b68:	7c 08 03 a6 	mtlr    r0
    4b6c:	4e 80 00 20 	blr
    4b70:	80 7f 00 08 	lwz     r3,8(r31)
    4b74:	44 00 00 02 	sc      
    4b78:	2f 83 00 00 	cmpwi   cr7,r3,0
    4b7c:	40 9e ff e0 	bne+    cr7,0x4b5c
    4b80:	81 3f 00 00 	lwz     r9,0(r31)
    4b84:	4b ff ff c4 	b       0x4b48
    4b88:	39 40 00 00 	li      r10,0
    4b8c:	7c 08 02 a6 	mflr    r0
    4b90:	39 00 02 00 	li      r8,512
    4b94:	81 62 80 64 	lwz     r11,-32668(r2)
    4b98:	f8 01 00 10 	std     r0,16(r1)
    4b9c:	38 00 00 02 	li      r0,2
    4ba0:	90 83 00 00 	stw     r4,0(r3)
    4ba4:	38 e0 00 00 	li      r7,0
    4ba8:	90 01 ff b8 	stw     r0,-72(r1)
    4bac:	39 20 00 20 	li      r9,32
    4bb0:	38 00 20 00 	li      r0,8192
    4bb4:	fb e1 ff f8 	std     r31,-8(r1)
    4bb8:	91 21 ff bc 	stw     r9,-68(r1)
    4bbc:	fb a1 ff e8 	std     r29,-24(r1)
    4bc0:	7c 7f 1b 78 	mr      r31,r3
    4bc4:	90 01 ff c4 	stw     r0,-60(r1)
    4bc8:	91 01 ff c0 	stw     r8,-64(r1)
    4bcc:	f9 41 ff c8 	std     r10,-56(r1)
    4bd0:	91 41 ff d0 	stw     r10,-48(r1)
    4bd4:	98 e1 ff d8 	stb     r7,-40(r1)
    4bd8:	39 21 ff d8 	addi    r9,r1,-40
    4bdc:	e8 0b 00 00 	ld      r0,0(r11)
    4be0:	f8 09 00 00 	std     r0,0(r9)
    4be4:	38 00 00 00 	li      r0,0
    4be8:	38 c9 00 07 	addi    r6,r9,7
    4bec:	98 06 00 00 	stb     r0,0(r6)
    4bf0:	91 01 ff a0 	stw     r8,-96(r1)
    4bf4:	91 41 ff a4 	stw     r10,-92(r1)
    4bf8:	98 e1 ff b0 	stb     r7,-80(r1)
    4bfc:	f9 41 ff a8 	std     r10,-88(r1)
    4c00:	81 62 80 68 	lwz     r11,-32664(r2)
    4c04:	39 21 ff b0 	addi    r9,r1,-80
    4c08:	e8 0b 00 00 	ld      r0,0(r11)
    4c0c:	f8 09 00 00 	std     r0,0(r9)
    4c10:	38 00 00 00 	li      r0,0
    4c14:	39 49 00 07 	addi    r10,r9,7
    4c18:	98 0a 00 00 	stb     r0,0(r10)
    4c1c:	38 63 00 04 	addi    r3,r3,4
    4c20:	38 81 ff b8 	addi    r4,r1,-72
    4c24:	78 63 00 20 	clrldi  r3,r3,32
    4c28:	39 60 00 64 	li      r11,100
    4c2c:	44 00 00 02 	sc      
    4c30:	7c 60 1b 78 	mr      r0,r3
    4c34:	38 7f 00 08 	addi    r3,r31,8
    4c38:	2f 80 00 00 	cmpwi   cr7,r0,0
    4c3c:	78 63 00 20 	clrldi  r3,r3,32
    4c40:	38 a1 ff a0 	addi    r5,r1,-96
    4c44:	40 9e 00 14 	bne-    cr7,0x4c58
    4c48:	80 9f 00 04 	lwz     r4,4(r31)
    4c4c:	39 60 00 69 	li      r11,105
    4c50:	44 00 00 02 	sc      
    4c54:	7c 60 1b 78 	mr      r0,r3
    4c58:	7c 03 07 b4 	extsw   r3,r0
    4c5c:	e8 01 00 10 	ld      r0,16(r1)
    4c60:	eb a1 ff e8 	ld      r29,-24(r1)
    4c64:	7c 08 03 a6 	mtlr    r0
    4c68:	eb e1 ff f8 	ld      r31,-8(r1)
    4c6c:	4e 80 00 20 	blr
    4c70:	fb e1 ff f8 	std     r31,-8(r1)
    4c74:	7c 08 02 a6 	mflr    r0
    4c78:	7c 7f 1b 78 	mr      r31,r3
    4c7c:	f8 01 00 10 	std     r0,16(r1)
    4c80:	39 60 00 6a 	li      r11,106
    4c84:	80 63 00 08 	lwz     r3,8(r3)
    4c88:	44 00 00 02 	sc      
    4c8c:	2f 83 00 00 	cmpwi   cr7,r3,0
    4c90:	39 60 00 65 	li      r11,101
    4c94:	40 9e 00 0c 	bne-    cr7,0x4ca0
    4c98:	80 7f 00 04 	lwz     r3,4(r31)
    4c9c:	44 00 00 02 	sc      
    4ca0:	e8 01 00 10 	ld      r0,16(r1)
    4ca4:	7c 63 07 b4 	extsw   r3,r3
    4ca8:	eb e1 ff f8 	ld      r31,-8(r1)
    4cac:	7c 08 03 a6 	mtlr    r0
    4cb0:	4e 80 00 20 	blr
    4cb4:	fb e1 ff f8 	std     r31,-8(r1)
    4cb8:	7c 08 02 a6 	mflr    r0
    4cbc:	7c 7f 1b 78 	mr      r31,r3
    4cc0:	f8 01 00 10 	std     r0,16(r1)
    4cc4:	38 80 00 00 	li      r4,0
    4cc8:	80 63 00 04 	lwz     r3,4(r3)
    4ccc:	39 60 00 66 	li      r11,102
    4cd0:	44 00 00 02 	sc      
    4cd4:	2f 83 00 00 	cmpwi   cr7,r3,0
    4cd8:	40 9e 00 2c 	bne-    cr7,0x4d04
    4cdc:	81 3f 00 00 	lwz     r9,0(r31)
    4ce0:	38 80 00 00 	li      r4,0
    4ce4:	39 60 00 6b 	li      r11,107
    4ce8:	2f 89 00 00 	cmpwi   cr7,r9,0
    4cec:	41 9e 00 2c 	beq-    cr7,0x4d18
    4cf0:	39 29 ff ff 	addi    r9,r9,-1
    4cf4:	80 7f 00 04 	lwz     r3,4(r31)
    4cf8:	39 60 00 68 	li      r11,104
    4cfc:	91 3f 00 00 	stw     r9,0(r31)
    4d00:	44 00 00 02 	sc      
    4d04:	e8 01 00 10 	ld      r0,16(r1)
    4d08:	7c 63 07 b4 	extsw   r3,r3
    4d0c:	eb e1 ff f8 	ld      r31,-8(r1)
    4d10:	7c 08 03 a6 	mtlr    r0
    4d14:	4e 80 00 20 	blr
    4d18:	80 7f 00 08 	lwz     r3,8(r31)
    4d1c:	44 00 00 02 	sc      
    4d20:	2f 83 00 00 	cmpwi   cr7,r3,0
    4d24:	40 9e ff e0 	bne+    cr7,0x4d04
    4d28:	81 3f 00 00 	lwz     r9,0(r31)
    4d2c:	4b ff ff c4 	b       0x4cf0
    4d30:	fb e1 ff f8 	std     r31,-8(r1)
    4d34:	7c 08 02 a6 	mflr    r0
    4d38:	7c 7f 1b 78 	mr      r31,r3
    4d3c:	f8 01 00 10 	std     r0,16(r1)
    4d40:	38 80 00 00 	li      r4,0
    4d44:	80 63 00 04 	lwz     r3,4(r3)
    4d48:	39 60 00 66 	li      r11,102
    4d4c:	44 00 00 02 	sc      
    4d50:	2f 83 00 00 	cmpwi   cr7,r3,0
    4d54:	39 60 00 6c 	li      r11,108
    4d58:	40 9e 00 2c 	bne-    cr7,0x4d84
    4d5c:	81 3f 00 00 	lwz     r9,0(r31)
    4d60:	80 7f 00 08 	lwz     r3,8(r31)
    4d64:	39 29 00 01 	addi    r9,r9,1
    4d68:	91 3f 00 00 	stw     r9,0(r31)
    4d6c:	44 00 00 02 	sc      
    4d70:	2f 83 00 00 	cmpwi   cr7,r3,0
    4d74:	39 60 00 68 	li      r11,104
    4d78:	40 9e 00 0c 	bne-    cr7,0x4d84
    4d7c:	80 7f 00 04 	lwz     r3,4(r31)
    4d80:	44 00 00 02 	sc      
    4d84:	e8 01 00 10 	ld      r0,16(r1)
    4d88:	7c 63 07 b4 	extsw   r3,r3
    4d8c:	eb e1 ff f8 	ld      r31,-8(r1)
    4d90:	7c 08 03 a6 	mtlr    r0
    4d94:	4e 80 00 20 	blr

Disassembly of section :

0000000000004d98 <>:
    4d98:	39 80 00 00 	li      r12,0
    4d9c:	65 8c 00 01 	oris    r12,r12,1
    4da0:	81 8c be 48 	lwz     r12,-16824(r12)
    4da4:	f8 41 00 28 	std     r2,40(r1)
    4da8:	80 0c 00 00 	lwz     r0,0(r12)
    4dac:	80 4c 00 04 	lwz     r2,4(r12)
    4db0:	7c 09 03 a6 	mtctr   r0
    4db4:	4e 80 04 20 	bctr
    4db8:	39 80 00 00 	li      r12,0
    4dbc:	65 8c 00 01 	oris    r12,r12,1
    4dc0:	81 8c be 4c 	lwz     r12,-16820(r12)
    4dc4:	f8 41 00 28 	std     r2,40(r1)
    4dc8:	80 0c 00 00 	lwz     r0,0(r12)
    4dcc:	80 4c 00 04 	lwz     r2,4(r12)
    4dd0:	7c 09 03 a6 	mtctr   r0
    4dd4:	4e 80 04 20 	bctr
    4dd8:	39 80 00 00 	li      r12,0
    4ddc:	65 8c 00 01 	oris    r12,r12,1
    4de0:	81 8c be 50 	lwz     r12,-16816(r12)
    4de4:	f8 41 00 28 	std     r2,40(r1)
    4de8:	80 0c 00 00 	lwz     r0,0(r12)
    4dec:	80 4c 00 04 	lwz     r2,4(r12)
    4df0:	7c 09 03 a6 	mtctr   r0
    4df4:	4e 80 04 20 	bctr
    4df8:	39 80 00 00 	li      r12,0
    4dfc:	65 8c 00 01 	oris    r12,r12,1
    4e00:	81 8c be 54 	lwz     r12,-16812(r12)
    4e04:	f8 41 00 28 	std     r2,40(r1)
    4e08:	80 0c 00 00 	lwz     r0,0(r12)
    4e0c:	80 4c 00 04 	lwz     r2,4(r12)
    4e10:	7c 09 03 a6 	mtctr   r0
    4e14:	4e 80 04 20 	bctr
    4e18:	39 80 00 00 	li      r12,0
    4e1c:	65 8c 00 01 	oris    r12,r12,1
    4e20:	81 8c be 00 	lwz     r12,-16896(r12)
    4e24:	f8 41 00 28 	std     r2,40(r1)
    4e28:	80 0c 00 00 	lwz     r0,0(r12)
    4e2c:	80 4c 00 04 	lwz     r2,4(r12)
    4e30:	7c 09 03 a6 	mtctr   r0
    4e34:	4e 80 04 20 	bctr
    4e38:	39 80 00 00 	li      r12,0
    4e3c:	65 8c 00 01 	oris    r12,r12,1
    4e40:	81 8c be 04 	lwz     r12,-16892(r12)
    4e44:	f8 41 00 28 	std     r2,40(r1)
    4e48:	80 0c 00 00 	lwz     r0,0(r12)
    4e4c:	80 4c 00 04 	lwz     r2,4(r12)
    4e50:	7c 09 03 a6 	mtctr   r0
    4e54:	4e 80 04 20 	bctr
    4e58:	39 80 00 00 	li      r12,0
    4e5c:	65 8c 00 01 	oris    r12,r12,1
    4e60:	81 8c be 08 	lwz     r12,-16888(r12)
    4e64:	f8 41 00 28 	std     r2,40(r1)
    4e68:	80 0c 00 00 	lwz     r0,0(r12)
    4e6c:	80 4c 00 04 	lwz     r2,4(r12)
    4e70:	7c 09 03 a6 	mtctr   r0
    4e74:	4e 80 04 20 	bctr
    4e78:	39 80 00 00 	li      r12,0
    4e7c:	65 8c 00 01 	oris    r12,r12,1
    4e80:	81 8c be 0c 	lwz     r12,-16884(r12)
    4e84:	f8 41 00 28 	std     r2,40(r1)
    4e88:	80 0c 00 00 	lwz     r0,0(r12)
    4e8c:	80 4c 00 04 	lwz     r2,4(r12)
    4e90:	7c 09 03 a6 	mtctr   r0
    4e94:	4e 80 04 20 	bctr
    4e98:	39 80 00 00 	li      r12,0
    4e9c:	65 8c 00 01 	oris    r12,r12,1
    4ea0:	81 8c be 10 	lwz     r12,-16880(r12)
    4ea4:	f8 41 00 28 	std     r2,40(r1)
    4ea8:	80 0c 00 00 	lwz     r0,0(r12)
    4eac:	80 4c 00 04 	lwz     r2,4(r12)
    4eb0:	7c 09 03 a6 	mtctr   r0
    4eb4:	4e 80 04 20 	bctr
    4eb8:	39 80 00 00 	li      r12,0
    4ebc:	65 8c 00 01 	oris    r12,r12,1
    4ec0:	81 8c be 14 	lwz     r12,-16876(r12)
    4ec4:	f8 41 00 28 	std     r2,40(r1)
    4ec8:	80 0c 00 00 	lwz     r0,0(r12)
    4ecc:	80 4c 00 04 	lwz     r2,4(r12)
    4ed0:	7c 09 03 a6 	mtctr   r0
    4ed4:	4e 80 04 20 	bctr
    4ed8:	39 80 00 00 	li      r12,0
    4edc:	65 8c 00 01 	oris    r12,r12,1
    4ee0:	81 8c be 18 	lwz     r12,-16872(r12)
    4ee4:	f8 41 00 28 	std     r2,40(r1)
    4ee8:	80 0c 00 00 	lwz     r0,0(r12)
    4eec:	80 4c 00 04 	lwz     r2,4(r12)
    4ef0:	7c 09 03 a6 	mtctr   r0
    4ef4:	4e 80 04 20 	bctr
    4ef8:	39 80 00 00 	li      r12,0
    4efc:	65 8c 00 01 	oris    r12,r12,1
    4f00:	81 8c be 1c 	lwz     r12,-16868(r12)
    4f04:	f8 41 00 28 	std     r2,40(r1)
    4f08:	80 0c 00 00 	lwz     r0,0(r12)
    4f0c:	80 4c 00 04 	lwz     r2,4(r12)
    4f10:	7c 09 03 a6 	mtctr   r0
    4f14:	4e 80 04 20 	bctr
    4f18:	39 80 00 00 	li      r12,0
    4f1c:	65 8c 00 01 	oris    r12,r12,1
    4f20:	81 8c be 20 	lwz     r12,-16864(r12)
    4f24:	f8 41 00 28 	std     r2,40(r1)
    4f28:	80 0c 00 00 	lwz     r0,0(r12)
    4f2c:	80 4c 00 04 	lwz     r2,4(r12)
    4f30:	7c 09 03 a6 	mtctr   r0
    4f34:	4e 80 04 20 	bctr
    4f38:	39 80 00 00 	li      r12,0
    4f3c:	65 8c 00 01 	oris    r12,r12,1
    4f40:	81 8c be 24 	lwz     r12,-16860(r12)
    4f44:	f8 41 00 28 	std     r2,40(r1)
    4f48:	80 0c 00 00 	lwz     r0,0(r12)
    4f4c:	80 4c 00 04 	lwz     r2,4(r12)
    4f50:	7c 09 03 a6 	mtctr   r0
    4f54:	4e 80 04 20 	bctr
    4f58:	39 80 00 00 	li      r12,0
    4f5c:	65 8c 00 01 	oris    r12,r12,1
    4f60:	81 8c be 28 	lwz     r12,-16856(r12)
    4f64:	f8 41 00 28 	std     r2,40(r1)
    4f68:	80 0c 00 00 	lwz     r0,0(r12)
    4f6c:	80 4c 00 04 	lwz     r2,4(r12)
    4f70:	7c 09 03 a6 	mtctr   r0
    4f74:	4e 80 04 20 	bctr
    4f78:	39 80 00 00 	li      r12,0
    4f7c:	65 8c 00 01 	oris    r12,r12,1
    4f80:	81 8c be 2c 	lwz     r12,-16852(r12)
    4f84:	f8 41 00 28 	std     r2,40(r1)
    4f88:	80 0c 00 00 	lwz     r0,0(r12)
    4f8c:	80 4c 00 04 	lwz     r2,4(r12)
    4f90:	7c 09 03 a6 	mtctr   r0
    4f94:	4e 80 04 20 	bctr
    4f98:	39 80 00 00 	li      r12,0
    4f9c:	65 8c 00 01 	oris    r12,r12,1
    4fa0:	81 8c be 30 	lwz     r12,-16848(r12)
    4fa4:	f8 41 00 28 	std     r2,40(r1)
    4fa8:	80 0c 00 00 	lwz     r0,0(r12)
    4fac:	80 4c 00 04 	lwz     r2,4(r12)
    4fb0:	7c 09 03 a6 	mtctr   r0
    4fb4:	4e 80 04 20 	bctr
    4fb8:	39 80 00 00 	li      r12,0
    4fbc:	65 8c 00 01 	oris    r12,r12,1
    4fc0:	81 8c be 34 	lwz     r12,-16844(r12)
    4fc4:	f8 41 00 28 	std     r2,40(r1)
    4fc8:	80 0c 00 00 	lwz     r0,0(r12)
    4fcc:	80 4c 00 04 	lwz     r2,4(r12)
    4fd0:	7c 09 03 a6 	mtctr   r0
    4fd4:	4e 80 04 20 	bctr
    4fd8:	39 80 00 00 	li      r12,0
    4fdc:	65 8c 00 01 	oris    r12,r12,1
    4fe0:	81 8c be 38 	lwz     r12,-16840(r12)
    4fe4:	f8 41 00 28 	std     r2,40(r1)
    4fe8:	80 0c 00 00 	lwz     r0,0(r12)
    4fec:	80 4c 00 04 	lwz     r2,4(r12)
    4ff0:	7c 09 03 a6 	mtctr   r0
    4ff4:	4e 80 04 20 	bctr
    4ff8:	39 80 00 00 	li      r12,0
    4ffc:	65 8c 00 01 	oris    r12,r12,1
    5000:	81 8c be 3c 	lwz     r12,-16836(r12)
    5004:	f8 41 00 28 	std     r2,40(r1)
    5008:	80 0c 00 00 	lwz     r0,0(r12)
    500c:	80 4c 00 04 	lwz     r2,4(r12)
    5010:	7c 09 03 a6 	mtctr   r0
    5014:	4e 80 04 20 	bctr
    5018:	39 80 00 00 	li      r12,0
    501c:	65 8c 00 01 	oris    r12,r12,1
    5020:	81 8c be 40 	lwz     r12,-16832(r12)
    5024:	f8 41 00 28 	std     r2,40(r1)
    5028:	80 0c 00 00 	lwz     r0,0(r12)
    502c:	80 4c 00 04 	lwz     r2,4(r12)
    5030:	7c 09 03 a6 	mtctr   r0
    5034:	4e 80 04 20 	bctr
    5038:	39 80 00 00 	li      r12,0
    503c:	65 8c 00 01 	oris    r12,r12,1
    5040:	81 8c be 44 	lwz     r12,-16828(r12)
    5044:	f8 41 00 28 	std     r2,40(r1)
    5048:	80 0c 00 00 	lwz     r0,0(r12)
    504c:	80 4c 00 04 	lwz     r2,4(r12)
    5050:	7c 09 03 a6 	mtctr   r0
    5054:	4e 80 04 20 	bctr
