
./update_files/dev_flash/sys/external/libadec_internal.sprx.elf:     file format elf64-powerpc


Disassembly of section :

0000000000000000 <>:
       0:	f8 21 ff c1 	stdu    r1,-64(r1)
       4:	fb e1 00 38 	std     r31,56(r1)
       8:	7c 3f 0b 78 	mr      r31,r1
       c:	38 00 00 00 	li      r0,0
      10:	7c 00 07 b4 	extsw   r0,r0
      14:	7c 03 03 78 	mr      r3,r0
      18:	e9 61 00 00 	ld      r11,0(r1)
      1c:	eb eb ff f8 	ld      r31,-8(r11)
      20:	7d 61 5b 78 	mr      r1,r11
      24:	4e 80 00 20 	blr
      28:	f8 21 ff c1 	stdu    r1,-64(r1)
      2c:	fb e1 00 38 	std     r31,56(r1)
      30:	7c 3f 0b 78 	mr      r31,r1
      34:	38 00 00 00 	li      r0,0
      38:	7c 00 07 b4 	extsw   r0,r0
      3c:	7c 03 03 78 	mr      r3,r0
      40:	e9 61 00 00 	ld      r11,0(r1)
      44:	eb eb ff f8 	ld      r31,-8(r11)
      48:	7d 61 5b 78 	mr      r1,r11
      4c:	4e 80 00 20 	blr
      50:	7c 69 1b 78 	mr      r9,r3
      54:	7c 08 02 a6 	mflr    r0
      58:	f8 21 ff 91 	stdu    r1,-112(r1)
      5c:	f8 01 00 80 	std     r0,128(r1)
      60:	3d 60 80 61 	lis     r11,-32671
      64:	38 80 00 03 	li      r4,3
      68:	80 09 00 28 	lwz     r0,40(r9)
      6c:	38 a0 00 00 	li      r5,0
      70:	78 63 00 20 	clrldi  r3,r3,32
      74:	80 c9 00 2c 	lwz     r6,44(r9)
      78:	2f 80 00 00 	cmpwi   cr7,r0,0
      7c:	78 0a 00 20 	clrldi  r10,r0,32
      80:	61 6b 00 01 	ori     r11,r11,1
      84:	41 9e 00 24 	beq-    cr7,0xa8
      88:	80 0a 00 00 	lwz     r0,0(r10)
      8c:	78 c6 00 20 	clrldi  r6,r6,32
      90:	f8 41 00 28 	std     r2,40(r1)
      94:	7c 09 03 a6 	mtctr   r0
      98:	80 4a 00 04 	lwz     r2,4(r10)
      9c:	4e 80 04 21 	bctrl
      a0:	e8 41 00 28 	ld      r2,40(r1)
      a4:	39 60 00 00 	li      r11,0
      a8:	e8 01 00 80 	ld      r0,128(r1)
      ac:	7d 63 07 b4 	extsw   r3,r11
      b0:	38 21 00 70 	addi    r1,r1,112
      b4:	7c 08 03 a6 	mtlr    r0
      b8:	4e 80 00 20 	blr
      bc:	7c 89 23 78 	mr      r9,r4
      c0:	7c 08 02 a6 	mflr    r0
      c4:	f8 21 ff 91 	stdu    r1,-112(r1)
      c8:	f8 01 00 80 	std     r0,128(r1)
      cc:	7c 65 1b 78 	mr      r5,r3
      d0:	38 80 00 02 	li      r4,2
      d4:	80 09 00 28 	lwz     r0,40(r9)
      d8:	79 23 00 20 	clrldi  r3,r9,32
      dc:	80 c9 00 2c 	lwz     r6,44(r9)
      e0:	7c a5 07 b4 	extsw   r5,r5
      e4:	2f 80 00 00 	cmpwi   cr7,r0,0
      e8:	78 0b 00 20 	clrldi  r11,r0,32
      ec:	78 c6 00 20 	clrldi  r6,r6,32
      f0:	41 9e 00 1c 	beq-    cr7,0x10c
      f4:	80 0b 00 00 	lwz     r0,0(r11)
      f8:	f8 41 00 28 	std     r2,40(r1)
      fc:	7c 09 03 a6 	mtctr   r0
     100:	80 4b 00 04 	lwz     r2,4(r11)
     104:	4e 80 04 21 	bctrl
     108:	e8 41 00 28 	ld      r2,40(r1)
     10c:	e8 01 00 80 	ld      r0,128(r1)
     110:	38 60 00 00 	li      r3,0
     114:	38 21 00 70 	addi    r1,r1,112
     118:	7c 08 03 a6 	mtlr    r0
     11c:	4e 80 00 20 	blr
     120:	2c 23 00 00 	cmpdi   r3,0
     124:	7c 08 02 a6 	mflr    r0
     128:	f8 21 ff 61 	stdu    r1,-160(r1)
     12c:	fb c1 00 90 	std     r30,144(r1)
     130:	fb e1 00 98 	std     r31,152(r1)
     134:	fb 81 00 80 	std     r28,128(r1)
     138:	fb a1 00 88 	std     r29,136(r1)
     13c:	f8 01 00 b0 	std     r0,176(r1)
     140:	7c 7e 1b 78 	mr      r30,r3
     144:	7c 9f 23 78 	mr      r31,r4
     148:	3d 40 80 61 	lis     r10,-32671
     14c:	40 82 00 2c 	bne-    0x178
     150:	61 4a 00 03 	ori     r10,r10,3
     154:	e8 01 00 b0 	ld      r0,176(r1)
     158:	7d 43 07 b4 	extsw   r3,r10
     15c:	eb 81 00 80 	ld      r28,128(r1)
     160:	eb a1 00 88 	ld      r29,136(r1)
     164:	7c 08 03 a6 	mtlr    r0
     168:	eb c1 00 90 	ld      r30,144(r1)
     16c:	eb e1 00 98 	ld      r31,152(r1)
     170:	38 21 00 a0 	addi    r1,r1,160
     174:	4e 80 00 20 	blr
     178:	2f 84 00 00 	cmpwi   cr7,r4,0
     17c:	41 9e ff d4 	beq+    cr7,0x150
     180:	81 7e 00 00 	lwz     r11,0(r30)
     184:	3c 00 73 ff 	lis     r0,29695
     188:	39 20 00 01 	li      r9,1
     18c:	60 00 ff fe 	ori     r0,r0,65534
     190:	7d 29 58 36 	sld     r9,r9,r11
     194:	2b 8b 00 1e 	cmplwi  cr7,r11,30
     198:	7d 29 00 38 	and     r9,r9,r0
     19c:	2f 29 00 00 	cmpdi   cr6,r9,0
     1a0:	41 9d ff b0 	bgt+    cr7,0x150
     1a4:	55 60 10 3a 	rlwinm  r0,r11,2,0,29
     1a8:	78 83 00 20 	clrldi  r3,r4,32
     1ac:	7c 00 07 b4 	extsw   r0,r0
     1b0:	41 9a ff a0 	beq+    cr6,0x150
     1b4:	83 a2 80 00 	lwz     r29,-32768(r2)
     1b8:	7d 3d 00 2e 	lwzx    r9,r29,r0
     1bc:	81 69 00 00 	lwz     r11,0(r9)
     1c0:	80 0b 00 00 	lwz     r0,0(r11)
     1c4:	f8 41 00 28 	std     r2,40(r1)
     1c8:	7c 09 03 a6 	mtctr   r0
     1cc:	80 4b 00 04 	lwz     r2,4(r11)
     1d0:	4e 80 04 21 	bctrl
     1d4:	e8 41 00 28 	ld      r2,40(r1)
     1d8:	80 1e 00 00 	lwz     r0,0(r30)
     1dc:	54 00 10 3a 	rlwinm  r0,r0,2,0,29
     1e0:	7c 00 07 b4 	extsw   r0,r0
     1e4:	7d 3d 00 2e 	lwzx    r9,r29,r0
     1e8:	81 69 00 24 	lwz     r11,36(r9)
     1ec:	80 0b 00 00 	lwz     r0,0(r11)
     1f0:	f8 41 00 28 	std     r2,40(r1)
     1f4:	7c 09 03 a6 	mtctr   r0
     1f8:	80 4b 00 04 	lwz     r2,4(r11)
     1fc:	4e 80 04 21 	bctrl
     200:	e8 41 00 28 	ld      r2,40(r1)
     204:	80 1e 00 00 	lwz     r0,0(r30)
     208:	7c 7c 1b 78 	mr      r28,r3
     20c:	54 00 10 3a 	rlwinm  r0,r0,2,0,29
     210:	7c 00 07 b4 	extsw   r0,r0
     214:	7d 3d 00 2e 	lwzx    r9,r29,r0
     218:	81 49 00 28 	lwz     r10,40(r9)
     21c:	80 0a 00 00 	lwz     r0,0(r10)
     220:	f8 41 00 28 	std     r2,40(r1)
     224:	7c 09 03 a6 	mtctr   r0
     228:	80 4a 00 04 	lwz     r2,4(r10)
     22c:	4e 80 04 21 	bctrl
     230:	e8 41 00 28 	ld      r2,40(r1)
     234:	81 3f 00 00 	lwz     r9,0(r31)
     238:	39 63 00 68 	addi    r11,r3,104
     23c:	3c 00 00 35 	lis     r0,53
     240:	38 61 00 70 	addi    r3,r1,112
     244:	60 00 50 00 	ori     r0,r0,20480
     248:	7d 6b e1 d6 	mullw   r11,r11,r28
     24c:	7d 29 5a 14 	add     r9,r9,r11
     250:	90 1f 00 04 	stw     r0,4(r31)
     254:	39 29 05 af 	addi    r9,r9,1455
     258:	91 3f 00 00 	stw     r9,0(r31)
     25c:	80 1e 00 00 	lwz     r0,0(r30)
     260:	54 00 10 3a 	rlwinm  r0,r0,2,0,29
     264:	7c 00 07 b4 	extsw   r0,r0
     268:	7d 3d 00 2e 	lwzx    r9,r29,r0
     26c:	81 69 00 18 	lwz     r11,24(r9)
     270:	80 0b 00 00 	lwz     r0,0(r11)
     274:	f8 41 00 28 	std     r2,40(r1)
     278:	7c 09 03 a6 	mtctr   r0
     27c:	80 4b 00 04 	lwz     r2,4(r11)
     280:	4e 80 04 21 	bctrl
     284:	e8 41 00 28 	ld      r2,40(r1)
     288:	88 01 00 70 	lbz     r0,112(r1)
     28c:	89 21 00 71 	lbz     r9,113(r1)
     290:	54 00 c0 0e 	rlwinm  r0,r0,24,0,7
     294:	89 41 00 73 	lbz     r10,115(r1)
     298:	55 29 80 1e 	rlwinm  r9,r9,16,0,15
     29c:	89 61 00 72 	lbz     r11,114(r1)
     2a0:	7c 00 4b 78 	or      r0,r0,r9
     2a4:	55 6b 40 2e 	rlwinm  r11,r11,8,0,23
     2a8:	7c 00 53 78 	or      r0,r0,r10
     2ac:	39 40 00 00 	li      r10,0
     2b0:	7d 6b 03 78 	or      r11,r11,r0
     2b4:	91 7f 00 08 	stw     r11,8(r31)
     2b8:	4b ff fe 9c 	b       0x154
     2bc:	f8 21 ff 81 	stdu    r1,-128(r1)
     2c0:	7c 08 02 a6 	mflr    r0
     2c4:	2c 23 00 00 	cmpdi   r3,0
     2c8:	f8 01 00 90 	std     r0,144(r1)
     2cc:	7c 60 1b 78 	mr      r0,r3
     2d0:	3c 60 80 61 	lis     r3,-32671
     2d4:	fb e1 00 78 	std     r31,120(r1)
     2d8:	60 63 00 03 	ori     r3,r3,3
     2dc:	2f 84 00 00 	cmpwi   cr7,r4,0
     2e0:	40 82 00 1c 	bne-    0x2fc
     2e4:	e8 01 00 90 	ld      r0,144(r1)
     2e8:	7c 63 07 b4 	extsw   r3,r3
     2ec:	eb e1 00 78 	ld      r31,120(r1)
     2f0:	38 21 00 80 	addi    r1,r1,128
     2f4:	7c 08 03 a6 	mtlr    r0
     2f8:	4e 80 00 20 	blr
     2fc:	7c 1f 03 78 	mr      r31,r0
     300:	41 9e ff e4 	beq+    cr7,0x2e4
     304:	80 1f 00 0c 	lwz     r0,12(r31)
     308:	3c 60 80 61 	lis     r3,-32671
     30c:	78 84 00 20 	clrldi  r4,r4,32
     310:	2f 80 01 00 	cmpwi   cr7,r0,256
     314:	60 63 00 02 	ori     r3,r3,2
     318:	2f 00 02 00 	cmpwi   cr6,r0,512
     31c:	40 9e 00 3c 	bne-    cr7,0x358
     320:	81 3f 00 34 	lwz     r9,52(r31)
     324:	80 7f 00 30 	lwz     r3,48(r31)
     328:	81 69 00 0c 	lwz     r11,12(r9)
     32c:	80 0b 00 00 	lwz     r0,0(r11)
     330:	f8 41 00 28 	std     r2,40(r1)
     334:	7c 09 03 a6 	mtctr   r0
     338:	80 4b 00 04 	lwz     r2,4(r11)
     33c:	4e 80 04 21 	bctrl
     340:	e8 41 00 28 	ld      r2,40(r1)
     344:	2f 83 00 00 	cmpwi   cr7,r3,0
     348:	40 9e ff 9c 	bne+    cr7,0x2e4
     34c:	38 00 02 00 	li      r0,512
     350:	90 1f 00 0c 	stw     r0,12(r31)
     354:	4b ff ff 90 	b       0x2e4
     358:	40 9a ff 8c 	bne+    cr6,0x2e4
     35c:	4b ff ff c4 	b       0x320
     360:	2f 83 00 00 	cmpwi   cr7,r3,0
     364:	7c 08 02 a6 	mflr    r0
     368:	3d 20 80 61 	lis     r9,-32671
     36c:	f8 21 ff 91 	stdu    r1,-112(r1)
     370:	f8 01 00 80 	std     r0,128(r1)
     374:	61 29 00 03 	ori     r9,r9,3
     378:	40 9e 00 18 	bne-    cr7,0x390
     37c:	e8 01 00 80 	ld      r0,128(r1)
     380:	7d 23 07 b4 	extsw   r3,r9
     384:	38 21 00 70 	addi    r1,r1,112
     388:	7c 08 03 a6 	mtlr    r0
     38c:	4e 80 00 20 	blr
     390:	81 63 00 00 	lwz     r11,0(r3)
     394:	7f 8b 18 00 	cmpw    cr7,r11,r3
     398:	40 fe ff e4 	bne-    cr7,0x37c
     39c:	80 0b 00 0c 	lwz     r0,12(r11)
     3a0:	3d 20 80 61 	lis     r9,-32671
     3a4:	2f 80 02 00 	cmpwi   cr7,r0,512
     3a8:	61 29 00 02 	ori     r9,r9,2
     3ac:	40 9e ff d0 	bne+    cr7,0x37c
     3b0:	81 2b 00 34 	lwz     r9,52(r11)
     3b4:	80 6b 00 30 	lwz     r3,48(r11)
     3b8:	81 69 00 10 	lwz     r11,16(r9)
     3bc:	80 0b 00 00 	lwz     r0,0(r11)
     3c0:	f8 41 00 28 	std     r2,40(r1)
     3c4:	7c 09 03 a6 	mtctr   r0
     3c8:	80 4b 00 04 	lwz     r2,4(r11)
     3cc:	4e 80 04 21 	bctrl
     3d0:	e8 41 00 28 	ld      r2,40(r1)
     3d4:	7c 69 1b 78 	mr      r9,r3
     3d8:	4b ff ff a4 	b       0x37c
     3dc:	2f 83 00 00 	cmpwi   cr7,r3,0
     3e0:	7c 08 02 a6 	mflr    r0
     3e4:	3d 20 80 61 	lis     r9,-32671
     3e8:	f8 21 ff 81 	stdu    r1,-128(r1)
     3ec:	fb e1 00 78 	std     r31,120(r1)
     3f0:	f8 01 00 90 	std     r0,144(r1)
     3f4:	7c 9f 23 78 	mr      r31,r4
     3f8:	61 29 00 03 	ori     r9,r9,3
     3fc:	2f 04 00 00 	cmpwi   cr6,r4,0
     400:	40 9e 00 1c 	bne-    cr7,0x41c
     404:	e8 01 00 90 	ld      r0,144(r1)
     408:	7d 23 07 b4 	extsw   r3,r9
     40c:	eb e1 00 78 	ld      r31,120(r1)
     410:	38 21 00 80 	addi    r1,r1,128
     414:	7c 08 03 a6 	mtlr    r0
     418:	4e 80 00 20 	blr
     41c:	38 63 00 d8 	addi    r3,r3,216
     420:	3d 20 80 61 	lis     r9,-32671
     424:	78 63 00 20 	clrldi  r3,r3,32
     428:	61 29 00 01 	ori     r9,r9,1
     42c:	41 9a ff d8 	beq+    cr6,0x404
     430:	48 00 3d 89 	bl      0x41b8
     434:	60 00 00 00 	nop
     438:	3d 20 80 61 	lis     r9,-32671
     43c:	2f 83 00 00 	cmpwi   cr7,r3,0
     440:	61 29 00 05 	ori     r9,r9,5
     444:	41 9e ff c0 	beq+    cr7,0x404
     448:	80 03 00 08 	lwz     r0,8(r3)
     44c:	39 20 00 00 	li      r9,0
     450:	90 1f 00 00 	stw     r0,0(r31)
     454:	4b ff ff b0 	b       0x404
     458:	f8 21 ff 51 	stdu    r1,-176(r1)
     45c:	7c 08 02 a6 	mflr    r0
     460:	2c 23 00 00 	cmpdi   r3,0
     464:	f8 01 00 c0 	std     r0,192(r1)
     468:	7c 60 1b 78 	mr      r0,r3
     46c:	3c 60 80 61 	lis     r3,-32671
     470:	fb 61 00 88 	std     r27,136(r1)
     474:	fb 81 00 90 	std     r28,144(r1)
     478:	fb a1 00 98 	std     r29,152(r1)
     47c:	fb c1 00 a0 	std     r30,160(r1)
     480:	fb e1 00 a8 	std     r31,168(r1)
     484:	7c 9b 23 78 	mr      r27,r4
     488:	60 63 00 03 	ori     r3,r3,3
     48c:	41 82 00 f0 	beq-    0x57c
     490:	7c 1f 03 78 	mr      r31,r0
     494:	38 81 00 74 	addi    r4,r1,116
     498:	38 1f 00 84 	addi    r0,r31,132
     49c:	78 1d 00 20 	clrldi  r29,r0,32
     4a0:	7f a3 eb 78 	mr      r3,r29
     4a4:	48 00 3c a9 	bl      0x414c
     4a8:	60 00 00 00 	nop
     4ac:	38 1f 00 d8 	addi    r0,r31,216
     4b0:	78 1e 00 20 	clrldi  r30,r0,32
     4b4:	38 81 00 78 	addi    r4,r1,120
     4b8:	7f c3 f3 78 	mr      r3,r30
     4bc:	48 00 3c 91 	bl      0x414c
     4c0:	60 00 00 00 	nop
     4c4:	81 21 00 74 	lwz     r9,116(r1)
     4c8:	81 61 00 78 	lwz     r11,120(r1)
     4cc:	81 49 00 0c 	lwz     r10,12(r9)
     4d0:	80 0b 00 0c 	lwz     r0,12(r11)
     4d4:	7f 8a 00 00 	cmpw    cr7,r10,r0
     4d8:	41 9e 01 84 	beq-    cr7,0x65c
     4dc:	7f a3 eb 78 	mr      r3,r29
     4e0:	48 00 3c d9 	bl      0x41b8
     4e4:	60 00 00 00 	nop
     4e8:	2f 83 00 00 	cmpwi   cr7,r3,0
     4ec:	7c 69 1b 78 	mr      r9,r3
     4f0:	41 9e 01 9c 	beq-    cr7,0x68c
     4f4:	83 a3 00 08 	lwz     r29,8(r3)
     4f8:	7b fc 00 20 	clrldi  r28,r31,32
     4fc:	38 a1 00 70 	addi    r5,r1,112
     500:	7f 83 e3 78 	mr      r3,r28
     504:	91 21 00 74 	stw     r9,116(r1)
     508:	80 9d 00 00 	lwz     r4,0(r29)
     50c:	48 00 0e d9 	bl      0x13e4
     510:	60 00 00 00 	nop
     514:	2f 83 00 00 	cmpwi   cr7,r3,0
     518:	40 9e 00 64 	bne-    cr7,0x57c
     51c:	80 1f 00 10 	lwz     r0,16(r31)
     520:	2f 80 00 11 	cmpwi   cr7,r0,17
     524:	41 9e 00 80 	beq-    cr7,0x5a4
     528:	2f 80 00 0c 	cmpwi   cr7,r0,12
     52c:	41 9e 00 78 	beq-    cr7,0x5a4
     530:	2f 80 00 01 	cmpwi   cr7,r0,1
     534:	41 9e 00 70 	beq-    cr7,0x5a4
     538:	81 5f 00 34 	lwz     r10,52(r31)
     53c:	7b 7e 00 20 	clrldi  r30,r27,32
     540:	81 01 00 74 	lwz     r8,116(r1)
     544:	80 7f 00 30 	lwz     r3,48(r31)
     548:	7f c4 f3 78 	mr      r4,r30
     54c:	78 63 00 20 	clrldi  r3,r3,32
     550:	81 6a 00 1c 	lwz     r11,28(r10)
     554:	81 28 00 08 	lwz     r9,8(r8)
     558:	80 0b 00 00 	lwz     r0,0(r11)
     55c:	80 a9 00 08 	lwz     r5,8(r9)
     560:	f8 41 00 28 	std     r2,40(r1)
     564:	7c 09 03 a6 	mtctr   r0
     568:	80 4b 00 04 	lwz     r2,4(r11)
     56c:	4e 80 04 21 	bctrl
     570:	e8 41 00 28 	ld      r2,40(r1)
     574:	2f 83 00 00 	cmpwi   cr7,r3,0
     578:	41 9e 00 7c 	beq-    cr7,0x5f4
     57c:	e8 01 00 c0 	ld      r0,192(r1)
     580:	7c 63 07 b4 	extsw   r3,r3
     584:	eb 61 00 88 	ld      r27,136(r1)
     588:	eb 81 00 90 	ld      r28,144(r1)
     58c:	7c 08 03 a6 	mtlr    r0
     590:	eb a1 00 98 	ld      r29,152(r1)
     594:	eb c1 00 a0 	ld      r30,160(r1)
     598:	eb e1 00 a8 	ld      r31,168(r1)
     59c:	38 21 00 b0 	addi    r1,r1,176
     5a0:	4e 80 00 20 	blr
     5a4:	80 7f 00 30 	lwz     r3,48(r31)
     5a8:	7b 7e 00 20 	clrldi  r30,r27,32
     5ac:	81 5f 00 34 	lwz     r10,52(r31)
     5b0:	78 69 00 20 	clrldi  r9,r3,32
     5b4:	81 01 00 74 	lwz     r8,116(r1)
     5b8:	80 1d 00 0c 	lwz     r0,12(r29)
     5bc:	78 63 00 20 	clrldi  r3,r3,32
     5c0:	7f c4 f3 78 	mr      r4,r30
     5c4:	81 6a 00 1c 	lwz     r11,28(r10)
     5c8:	90 09 01 88 	stw     r0,392(r9)
     5cc:	81 28 00 08 	lwz     r9,8(r8)
     5d0:	80 0b 00 00 	lwz     r0,0(r11)
     5d4:	80 a9 00 08 	lwz     r5,8(r9)
     5d8:	7c 09 03 a6 	mtctr   r0
     5dc:	f8 41 00 28 	std     r2,40(r1)
     5e0:	80 4b 00 04 	lwz     r2,4(r11)
     5e4:	4e 80 04 21 	bctrl
     5e8:	e8 41 00 28 	ld      r2,40(r1)
     5ec:	2f 83 00 00 	cmpwi   cr7,r3,0
     5f0:	40 9e ff 8c 	bne+    cr7,0x57c
     5f4:	81 7f 00 34 	lwz     r11,52(r31)
     5f8:	7f c5 f3 78 	mr      r5,r30
     5fc:	80 7f 00 30 	lwz     r3,48(r31)
     600:	80 9d 00 00 	lwz     r4,0(r29)
     604:	81 2b 00 20 	lwz     r9,32(r11)
     608:	80 09 00 00 	lwz     r0,0(r9)
     60c:	f8 41 00 28 	std     r2,40(r1)
     610:	7c 09 03 a6 	mtctr   r0
     614:	80 49 00 04 	lwz     r2,4(r9)
     618:	4e 80 04 21 	bctrl
     61c:	e8 41 00 28 	ld      r2,40(r1)
     620:	2f 83 00 00 	cmpwi   cr7,r3,0
     624:	40 9e ff 58 	bne+    cr7,0x57c
     628:	80 9d 00 00 	lwz     r4,0(r29)
     62c:	7f 83 e3 78 	mr      r3,r28
     630:	7c 84 07 b4 	extsw   r4,r4
     634:	48 00 16 f1 	bl      0x1d24
     638:	60 00 00 00 	nop
     63c:	6c 60 80 61 	xoris   r0,r3,32865
     640:	2f 80 00 01 	cmpwi   cr7,r0,1
     644:	41 9e ff 38 	beq+    cr7,0x57c
     648:	7f 83 e3 78 	mr      r3,r28
     64c:	80 9d 00 00 	lwz     r4,0(r29)
     650:	48 00 0b 25 	bl      0x1174
     654:	60 00 00 00 	nop
     658:	4b ff ff 24 	b       0x57c
     65c:	7f c3 f3 78 	mr      r3,r30
     660:	48 00 3b 59 	bl      0x41b8
     664:	60 00 00 00 	nop
     668:	2f 83 00 00 	cmpwi   cr7,r3,0
     66c:	41 9e 00 20 	beq-    cr7,0x68c
     670:	90 61 00 78 	stw     r3,120(r1)
     674:	7f a3 eb 78 	mr      r3,r29
     678:	48 00 3b 41 	bl      0x41b8
     67c:	60 00 00 00 	nop
     680:	2f 83 00 00 	cmpwi   cr7,r3,0
     684:	7c 69 1b 78 	mr      r9,r3
     688:	40 9e fe 6c 	bne+    cr7,0x4f4
     68c:	3c 60 80 61 	lis     r3,-32671
     690:	e8 01 00 c0 	ld      r0,192(r1)
     694:	eb 61 00 88 	ld      r27,136(r1)
     698:	60 63 00 05 	ori     r3,r3,5
     69c:	eb 81 00 90 	ld      r28,144(r1)
     6a0:	eb a1 00 98 	ld      r29,152(r1)
     6a4:	7c 08 03 a6 	mtlr    r0
     6a8:	7c 63 07 b4 	extsw   r3,r3
     6ac:	eb c1 00 a0 	ld      r30,160(r1)
     6b0:	eb e1 00 a8 	ld      r31,168(r1)
     6b4:	38 21 00 b0 	addi    r1,r1,176
     6b8:	4e 80 00 20 	blr
     6bc:	2f 83 00 00 	cmpwi   cr7,r3,0
     6c0:	7c 08 02 a6 	mflr    r0
     6c4:	f8 21 ff 71 	stdu    r1,-144(r1)
     6c8:	fb e1 00 88 	std     r31,136(r1)
     6cc:	fb a1 00 78 	std     r29,120(r1)
     6d0:	fb c1 00 80 	std     r30,128(r1)
     6d4:	f8 01 00 a0 	std     r0,160(r1)
     6d8:	7c 7f 1b 78 	mr      r31,r3
     6dc:	40 9e 00 2c 	bne-    cr7,0x708
     6e0:	3c 60 80 61 	lis     r3,-32671
     6e4:	60 63 00 03 	ori     r3,r3,3
     6e8:	e8 01 00 a0 	ld      r0,160(r1)
     6ec:	7c 63 07 b4 	extsw   r3,r3
     6f0:	eb a1 00 78 	ld      r29,120(r1)
     6f4:	eb c1 00 80 	ld      r30,128(r1)
     6f8:	7c 08 03 a6 	mtlr    r0
     6fc:	eb e1 00 88 	ld      r31,136(r1)
     700:	38 21 00 90 	addi    r1,r1,144
     704:	4e 80 00 20 	blr
     708:	2f 84 00 00 	cmpwi   cr7,r4,0
     70c:	41 9e ff d4 	beq+    cr7,0x6e0
     710:	80 04 00 04 	lwz     r0,4(r4)
     714:	78 9e 00 20 	clrldi  r30,r4,32
     718:	2f 80 00 00 	cmpwi   cr7,r0,0
     71c:	41 9e ff c4 	beq+    cr7,0x6e0
     720:	80 03 00 0c 	lwz     r0,12(r3)
     724:	3c 60 80 61 	lis     r3,-32671
     728:	7b e9 00 20 	clrldi  r9,r31,32
     72c:	2f 80 02 00 	cmpwi   cr7,r0,512
     730:	60 63 00 02 	ori     r3,r3,2
     734:	40 fe ff b4 	bne-    cr7,0x6e8
     738:	80 04 00 00 	lwz     r0,0(r4)
     73c:	2f 80 00 00 	cmpwi   cr7,r0,0
     740:	41 9e ff a0 	beq+    cr7,0x6e0
     744:	7d 23 4b 78 	mr      r3,r9
     748:	7f c4 f3 78 	mr      r4,r30
     74c:	48 00 0a 71 	bl      0x11bc
     750:	60 00 00 00 	nop
     754:	3c 00 80 61 	lis     r0,-32671
     758:	60 00 00 04 	ori     r0,r0,4
     75c:	7c 7d 1b 78 	mr      r29,r3
     760:	7f 83 00 00 	cmpw    cr7,r3,r0
     764:	41 9e ff 84 	beq+    cr7,0x6e8
     768:	80 1f 00 10 	lwz     r0,16(r31)
     76c:	2f 80 00 0c 	cmpwi   cr7,r0,12
     770:	41 de 00 3c 	beq-    cr7,0x7ac
     774:	2f 80 00 11 	cmpwi   cr7,r0,17
     778:	41 de 00 54 	beq-    cr7,0x7cc
     77c:	81 3f 00 34 	lwz     r9,52(r31)
     780:	7b a4 00 20 	clrldi  r4,r29,32
     784:	80 7f 00 30 	lwz     r3,48(r31)
     788:	7f c5 f3 78 	mr      r5,r30
     78c:	81 69 00 14 	lwz     r11,20(r9)
     790:	80 0b 00 00 	lwz     r0,0(r11)
     794:	f8 41 00 28 	std     r2,40(r1)
     798:	7c 09 03 a6 	mtctr   r0
     79c:	80 4b 00 04 	lwz     r2,4(r11)
     7a0:	4e 80 04 21 	bctrl
     7a4:	e8 41 00 28 	ld      r2,40(r1)
     7a8:	4b ff ff 40 	b       0x6e8
     7ac:	80 7f 00 30 	lwz     r3,48(r31)
     7b0:	7f c4 f3 78 	mr      r4,r30
     7b4:	48 00 19 59 	bl      0x210c
     7b8:	60 00 00 00 	nop
     7bc:	2f 83 00 00 	cmpwi   cr7,r3,0
     7c0:	40 9e 00 24 	bne-    cr7,0x7e4
     7c4:	80 1f 00 10 	lwz     r0,16(r31)
     7c8:	4b ff ff ac 	b       0x774
     7cc:	80 7f 00 30 	lwz     r3,48(r31)
     7d0:	7f c4 f3 78 	mr      r4,r30
     7d4:	48 00 1a 69 	bl      0x223c
     7d8:	60 00 00 00 	nop
     7dc:	2f 83 00 00 	cmpwi   cr7,r3,0
     7e0:	41 9e ff 9c 	beq+    cr7,0x77c
     7e4:	3c 60 80 61 	lis     r3,-32671
     7e8:	60 63 00 01 	ori     r3,r3,1
     7ec:	4b ff fe fc 	b       0x6e8
     7f0:	2f 83 00 00 	cmpwi   cr7,r3,0
     7f4:	7c 08 02 a6 	mflr    r0
     7f8:	3d 20 80 61 	lis     r9,-32671
     7fc:	f8 21 ff 81 	stdu    r1,-128(r1)
     800:	fb e1 00 78 	std     r31,120(r1)
     804:	fb c1 00 70 	std     r30,112(r1)
     808:	f8 01 00 90 	std     r0,144(r1)
     80c:	61 29 00 03 	ori     r9,r9,3
     810:	78 7f 00 20 	clrldi  r31,r3,32
     814:	40 9e 00 20 	bne-    cr7,0x834
     818:	e8 01 00 90 	ld      r0,144(r1)
     81c:	7d 23 07 b4 	extsw   r3,r9
     820:	eb c1 00 70 	ld      r30,112(r1)
     824:	eb e1 00 78 	ld      r31,120(r1)
     828:	7c 08 03 a6 	mtlr    r0
     82c:	38 21 00 80 	addi    r1,r1,128
     830:	4e 80 00 20 	blr
     834:	83 c3 00 00 	lwz     r30,0(r3)
     838:	7f 9e 18 00 	cmpw    cr7,r30,r3
     83c:	40 9e ff dc 	bne+    cr7,0x818
     840:	81 3e 00 34 	lwz     r9,52(r30)
     844:	80 7e 00 30 	lwz     r3,48(r30)
     848:	81 69 00 08 	lwz     r11,8(r9)
     84c:	80 0b 00 00 	lwz     r0,0(r11)
     850:	f8 41 00 28 	std     r2,40(r1)
     854:	7c 09 03 a6 	mtctr   r0
     858:	80 4b 00 04 	lwz     r2,4(r11)
     85c:	4e 80 04 21 	bctrl
     860:	e8 41 00 28 	ld      r2,40(r1)
     864:	7c 69 1b 78 	mr      r9,r3
     868:	7f e3 fb 78 	mr      r3,r31
     86c:	2f 89 00 00 	cmpwi   cr7,r9,0
     870:	40 9e ff a8 	bne+    cr7,0x818
     874:	48 00 0d 55 	bl      0x15c8
     878:	60 00 00 00 	nop
     87c:	7c 69 1b 78 	mr      r9,r3
     880:	38 7e 00 84 	addi    r3,r30,132
     884:	2f 89 00 00 	cmpwi   cr7,r9,0
     888:	78 63 00 20 	clrldi  r3,r3,32
     88c:	40 9e ff 8c 	bne+    cr7,0x818
     890:	48 00 37 0d 	bl      0x3f9c
     894:	60 00 00 00 	nop
     898:	7c 7f 1b 78 	mr      r31,r3
     89c:	38 7e 00 d8 	addi    r3,r30,216
     8a0:	2f 9f 00 00 	cmpwi   cr7,r31,0
     8a4:	7f e9 fb 78 	mr      r9,r31
     8a8:	78 63 00 20 	clrldi  r3,r3,32
     8ac:	40 9e ff 6c 	bne+    cr7,0x818
     8b0:	48 00 36 ed 	bl      0x3f9c
     8b4:	60 00 00 00 	nop
     8b8:	2f 83 00 00 	cmpwi   cr7,r3,0
     8bc:	7c 69 1b 78 	mr      r9,r3
     8c0:	40 9e ff 58 	bne+    cr7,0x818
     8c4:	38 00 0a 00 	li      r0,2560
     8c8:	93 fe 00 00 	stw     r31,0(r30)
     8cc:	90 1e 00 0c 	stw     r0,12(r30)
     8d0:	4b ff ff 48 	b       0x818
     8d4:	2f 83 00 00 	cmpwi   cr7,r3,0
     8d8:	7c 08 02 a6 	mflr    r0
     8dc:	f8 21 fe f1 	stdu    r1,-272(r1)
     8e0:	fb 41 00 e0 	std     r26,224(r1)
     8e4:	fb 61 00 e8 	std     r27,232(r1)
     8e8:	fb 81 00 f0 	std     r28,240(r1)
     8ec:	fb a1 00 f8 	std     r29,248(r1)
     8f0:	fb c1 01 00 	std     r30,256(r1)
     8f4:	fb e1 01 08 	std     r31,264(r1)
     8f8:	fa a1 00 b8 	std     r21,184(r1)
     8fc:	fa c1 00 c0 	std     r22,192(r1)
     900:	fa e1 00 c8 	std     r23,200(r1)
     904:	fb 01 00 d0 	std     r24,208(r1)
     908:	fb 21 00 d8 	std     r25,216(r1)
     90c:	f8 01 01 20 	std     r0,288(r1)
     910:	7c 7e 1b 78 	mr      r30,r3
     914:	7c 9f 23 78 	mr      r31,r4
     918:	7c bd 2b 78 	mr      r29,r5
     91c:	7c dc 33 78 	mr      r28,r6
     920:	7c fa 3b 78 	mr      r26,r7
     924:	7c 9b 23 78 	mr      r27,r4
     928:	40 9e 00 4c 	bne-    cr7,0x974
     92c:	3c 60 80 61 	lis     r3,-32671
     930:	60 63 00 03 	ori     r3,r3,3
     934:	e8 01 01 20 	ld      r0,288(r1)
     938:	7c 63 07 b4 	extsw   r3,r3
     93c:	ea a1 00 b8 	ld      r21,184(r1)
     940:	ea c1 00 c0 	ld      r22,192(r1)
     944:	7c 08 03 a6 	mtlr    r0
     948:	ea e1 00 c8 	ld      r23,200(r1)
     94c:	eb 01 00 d0 	ld      r24,208(r1)
     950:	eb 21 00 d8 	ld      r25,216(r1)
     954:	eb 41 00 e0 	ld      r26,224(r1)
     958:	eb 61 00 e8 	ld      r27,232(r1)
     95c:	eb 81 00 f0 	ld      r28,240(r1)
     960:	eb a1 00 f8 	ld      r29,248(r1)
     964:	eb c1 01 00 	ld      r30,256(r1)
     968:	eb e1 01 08 	ld      r31,264(r1)
     96c:	38 21 01 10 	addi    r1,r1,272
     970:	4e 80 00 20 	blr
     974:	2f 84 00 00 	cmpwi   cr7,r4,0
     978:	41 9e ff b4 	beq+    cr7,0x92c
     97c:	2f 85 00 00 	cmpwi   cr7,r5,0
     980:	41 9e ff ac 	beq+    cr7,0x92c
     984:	80 04 00 04 	lwz     r0,4(r4)
     988:	2f 80 00 00 	cmpwi   cr7,r0,0
     98c:	41 9e ff a0 	beq+    cr7,0x92c
     990:	80 1e 00 00 	lwz     r0,0(r30)
     994:	78 63 00 20 	clrldi  r3,r3,32
     998:	2b 80 00 1f 	cmplwi  cr7,r0,31
     99c:	41 9d ff 90 	bgt+    cr7,0x92c
     9a0:	80 04 00 08 	lwz     r0,8(r4)
     9a4:	2b 80 0b ff 	cmplwi  cr7,r0,3071
     9a8:	41 9d ff 84 	bgt+    cr7,0x92c
     9ac:	80 04 00 0c 	lwz     r0,12(r4)
     9b0:	2b 80 00 ff 	cmplwi  cr7,r0,255
     9b4:	41 9d ff 78 	bgt+    cr7,0x92c
     9b8:	80 05 00 00 	lwz     r0,0(r5)
     9bc:	2f 80 00 00 	cmpwi   cr7,r0,0
     9c0:	41 9e ff 6c 	beq+    cr7,0x92c
     9c4:	80 04 00 10 	lwz     r0,16(r4)
     9c8:	2b 80 0f ff 	cmplwi  cr7,r0,4095
     9cc:	40 9d ff 60 	ble+    cr7,0x92c
     9d0:	2f 86 00 00 	cmpwi   cr7,r6,0
     9d4:	41 9e ff 58 	beq+    cr7,0x92c
     9d8:	38 81 00 90 	addi    r4,r1,144
     9dc:	4b ff f7 45 	bl      0x120
     9e0:	80 1f 00 00 	lwz     r0,0(r31)
     9e4:	81 21 00 90 	lwz     r9,144(r1)
     9e8:	3c 60 80 61 	lis     r3,-32671
     9ec:	7f 89 00 40 	cmplw   cr7,r9,r0
     9f0:	60 63 00 01 	ori     r3,r3,1
     9f4:	41 9d ff 40 	bgt+    cr7,0x934
     9f8:	80 1e 00 00 	lwz     r0,0(r30)
     9fc:	82 a2 80 00 	lwz     r21,-32768(r2)
     a00:	54 00 10 3a 	rlwinm  r0,r0,2,0,29
     a04:	81 3f 00 04 	lwz     r9,4(r31)
     a08:	7c 00 07 b4 	extsw   r0,r0
     a0c:	39 29 00 7f 	addi    r9,r9,127
     a10:	55 37 00 30 	rlwinm  r23,r9,0,0,24
     a14:	7d 75 00 2e 	lwzx    r11,r21,r0
     a18:	7a f9 00 20 	clrldi  r25,r23,32
     a1c:	38 17 05 30 	addi    r0,r23,1328
     a20:	81 2b 00 24 	lwz     r9,36(r11)
     a24:	90 19 00 50 	stw     r0,80(r25)
     a28:	80 09 00 00 	lwz     r0,0(r9)
     a2c:	f8 41 00 28 	std     r2,40(r1)
     a30:	7c 09 03 a6 	mtctr   r0
     a34:	80 49 00 04 	lwz     r2,4(r9)
     a38:	4e 80 04 21 	bctrl
     a3c:	e8 41 00 28 	ld      r2,40(r1)
     a40:	80 1e 00 00 	lwz     r0,0(r30)
     a44:	7c 78 1b 78 	mr      r24,r3
     a48:	54 00 10 3a 	rlwinm  r0,r0,2,0,29
     a4c:	7c 76 1b 78 	mr      r22,r3
     a50:	7c 00 07 b4 	extsw   r0,r0
     a54:	7d 35 00 2e 	lwzx    r9,r21,r0
     a58:	81 69 00 28 	lwz     r11,40(r9)
     a5c:	80 0b 00 00 	lwz     r0,0(r11)
     a60:	f8 41 00 28 	std     r2,40(r1)
     a64:	7c 09 03 a6 	mtctr   r0
     a68:	80 4b 00 04 	lwz     r2,4(r11)
     a6c:	4e 80 04 21 	bctrl
     a70:	e8 41 00 28 	ld      r2,40(r1)
     a74:	2f 98 00 00 	cmpwi   cr7,r24,0
     a78:	7c 67 1b 78 	mr      r7,r3
     a7c:	7f 0a c3 78 	mr      r10,r24
     a80:	40 9d 00 38 	ble-    cr7,0xab8
     a84:	7b 00 00 20 	clrldi  r0,r24,32
     a88:	39 60 00 00 	li      r11,0
     a8c:	7c 09 03 a6 	mtctr   r0
     a90:	1d 38 00 68 	mulli   r9,r24,104
     a94:	7d 37 4a 14 	add     r9,r23,r9
     a98:	38 09 05 30 	addi    r0,r9,1328
     a9c:	81 39 00 50 	lwz     r9,80(r25)
     aa0:	7d 2b 4a 14 	add     r9,r11,r9
     aa4:	39 6b 00 68 	addi    r11,r11,104
     aa8:	79 29 00 20 	clrldi  r9,r9,32
     aac:	90 09 00 38 	stw     r0,56(r9)
     ab0:	7c 00 1a 14 	add     r0,r0,r3
     ab4:	42 00 ff e8 	bdnz+   0xa9c
     ab8:	38 07 00 68 	addi    r0,r7,104
     abc:	81 39 00 50 	lwz     r9,80(r25)
     ac0:	81 7e 00 00 	lwz     r11,0(r30)
     ac4:	7d 40 51 d6 	mullw   r10,r0,r10
     ac8:	7d 2a 4a 14 	add     r9,r10,r9
     acc:	2f 8b 00 11 	cmpwi   cr7,r11,17
     ad0:	39 29 00 7f 	addi    r9,r9,127
     ad4:	55 29 00 30 	rlwinm  r9,r9,0,0,24
     ad8:	91 39 00 30 	stw     r9,48(r25)
     adc:	41 9e 01 68 	beq-    cr7,0xc44
     ae0:	2f 8b 00 01 	cmpwi   cr7,r11,1
     ae4:	41 9e 01 bc 	beq-    cr7,0xca0
     ae8:	2f 8b 00 0c 	cmpwi   cr7,r11,12
     aec:	41 9e 01 b4 	beq-    cr7,0xca0
     af0:	39 00 00 00 	li      r8,0
     af4:	39 2a 05 30 	addi    r9,r10,1328
     af8:	38 00 01 00 	li      r0,256
     afc:	91 19 00 08 	stw     r8,8(r25)
     b00:	91 39 00 04 	stw     r9,4(r25)
     b04:	90 19 00 0c 	stw     r0,12(r25)
     b08:	80 1e 00 00 	lwz     r0,0(r30)
     b0c:	38 77 00 84 	addi    r3,r23,132
     b10:	92 f9 00 00 	stw     r23,0(r25)
     b14:	90 19 00 10 	stw     r0,16(r25)
     b18:	81 5f 00 0c 	lwz     r10,12(r31)
     b1c:	54 63 00 3a 	rlwinm  r3,r3,0,0,29
     b20:	81 3f 00 00 	lwz     r9,0(r31)
     b24:	80 1f 00 04 	lwz     r0,4(r31)
     b28:	81 7f 00 08 	lwz     r11,8(r31)
     b2c:	91 59 00 20 	stw     r10,32(r25)
     b30:	91 79 00 1c 	stw     r11,28(r25)
     b34:	91 39 00 14 	stw     r9,20(r25)
     b38:	90 19 00 18 	stw     r0,24(r25)
     b3c:	81 3f 00 10 	lwz     r9,16(r31)
     b40:	39 60 ff ff 	li      r11,-1
     b44:	7b 7f 00 20 	clrldi  r31,r27,32
     b48:	91 39 00 24 	stw     r9,36(r25)
     b4c:	80 1e 00 00 	lwz     r0,0(r30)
     b50:	91 19 00 44 	stw     r8,68(r25)
     b54:	54 00 10 3a 	rlwinm  r0,r0,2,0,29
     b58:	91 79 00 4c 	stw     r11,76(r25)
     b5c:	7c 00 07 b4 	extsw   r0,r0
     b60:	90 f9 00 54 	stw     r7,84(r25)
     b64:	91 79 00 38 	stw     r11,56(r25)
     b68:	91 79 00 3c 	stw     r11,60(r25)
     b6c:	91 79 00 48 	stw     r11,72(r25)
     b70:	7d 35 00 2e 	lwzx    r9,r21,r0
     b74:	92 d9 00 40 	stw     r22,64(r25)
     b78:	91 39 00 34 	stw     r9,52(r25)
     b7c:	48 00 33 01 	bl      0x3e7c
     b80:	60 00 00 00 	nop
     b84:	38 77 00 d8 	addi    r3,r23,216
     b88:	54 63 00 38 	rlwinm  r3,r3,0,0,28
     b8c:	48 00 32 f1 	bl      0x3e7c
     b90:	60 00 00 00 	nop
     b94:	7f 23 cb 78 	mr      r3,r25
     b98:	92 fc 00 00 	stw     r23,0(r28)
     b9c:	48 00 04 f1 	bl      0x108c
     ba0:	60 00 00 00 	nop
     ba4:	2f 83 00 00 	cmpwi   cr7,r3,0
     ba8:	40 9e fd 8c 	bne+    cr7,0x934
     bac:	39 37 00 28 	addi    r9,r23,40
     bb0:	80 1d 00 04 	lwz     r0,4(r29)
     bb4:	81 1d 00 00 	lwz     r8,0(r29)
     bb8:	38 61 00 a0 	addi    r3,r1,160
     bbc:	79 29 00 20 	clrldi  r9,r9,32
     bc0:	90 09 00 04 	stw     r0,4(r9)
     bc4:	81 79 00 34 	lwz     r11,52(r25)
     bc8:	91 09 00 00 	stw     r8,0(r9)
     bcc:	81 4b 00 18 	lwz     r10,24(r11)
     bd0:	80 0a 00 00 	lwz     r0,0(r10)
     bd4:	f8 41 00 28 	std     r2,40(r1)
     bd8:	7c 09 03 a6 	mtctr   r0
     bdc:	80 4a 00 04 	lwz     r2,4(r10)
     be0:	4e 80 04 21 	bctrl
     be4:	e8 41 00 28 	ld      r2,40(r1)
     be8:	2f 9a 00 00 	cmpwi   cr7,r26,0
     bec:	41 9e 00 68 	beq-    cr7,0xc54
     bf0:	81 39 00 34 	lwz     r9,52(r25)
     bf4:	7b 40 00 20 	clrldi  r0,r26,32
     bf8:	80 79 00 30 	lwz     r3,48(r25)
     bfc:	7f 25 cb 78 	mr      r5,r25
     c00:	fb e1 00 78 	std     r31,120(r1)
     c04:	f8 01 00 80 	std     r0,128(r1)
     c08:	fb 21 00 70 	std     r25,112(r1)
     c0c:	81 69 00 2c 	lwz     r11,44(r9)
     c10:	7f 27 cb 78 	mr      r7,r25
     c14:	80 82 80 04 	lwz     r4,-32764(r2)
     c18:	7f 29 cb 78 	mr      r9,r25
     c1c:	80 c2 80 08 	lwz     r6,-32760(r2)
     c20:	81 02 80 0c 	lwz     r8,-32756(r2)
     c24:	81 42 80 10 	lwz     r10,-32752(r2)
     c28:	80 0b 00 00 	lwz     r0,0(r11)
     c2c:	f8 41 00 28 	std     r2,40(r1)
     c30:	7c 09 03 a6 	mtctr   r0
     c34:	80 4b 00 04 	lwz     r2,4(r11)
     c38:	4e 80 04 21 	bctrl
     c3c:	e8 41 00 28 	ld      r2,40(r1)
     c40:	4b ff fc f4 	b       0x934
     c44:	79 29 00 20 	clrldi  r9,r9,32
     c48:	38 00 00 01 	li      r0,1
     c4c:	90 09 01 84 	stw     r0,388(r9)
     c50:	4b ff fe a0 	b       0xaf0
     c54:	81 39 00 34 	lwz     r9,52(r25)
     c58:	7f 25 cb 78 	mr      r5,r25
     c5c:	80 79 00 30 	lwz     r3,48(r25)
     c60:	7f 27 cb 78 	mr      r7,r25
     c64:	fb e1 00 78 	std     r31,120(r1)
     c68:	fb 21 00 70 	std     r25,112(r1)
     c6c:	80 82 80 04 	lwz     r4,-32764(r2)
     c70:	81 69 00 04 	lwz     r11,4(r9)
     c74:	7f 29 cb 78 	mr      r9,r25
     c78:	80 c2 80 08 	lwz     r6,-32760(r2)
     c7c:	81 02 80 0c 	lwz     r8,-32756(r2)
     c80:	81 42 80 10 	lwz     r10,-32752(r2)
     c84:	80 0b 00 00 	lwz     r0,0(r11)
     c88:	f8 41 00 28 	std     r2,40(r1)
     c8c:	7c 09 03 a6 	mtctr   r0
     c90:	80 4b 00 04 	lwz     r2,4(r11)
     c94:	4e 80 04 21 	bctrl
     c98:	e8 41 00 28 	ld      r2,40(r1)
     c9c:	4b ff fc 98 	b       0x934
     ca0:	79 29 00 20 	clrldi  r9,r9,32
     ca4:	38 00 00 00 	li      r0,0
     ca8:	90 09 01 84 	stw     r0,388(r9)
     cac:	4b ff fe 44 	b       0xaf0
     cb0:	38 e0 00 00 	li      r7,0
     cb4:	4b ff fc 20 	b       0x8d4
     cb8:	f8 21 ff 61 	stdu    r1,-160(r1)
     cbc:	7c 08 02 a6 	mflr    r0
     cc0:	2c 24 00 00 	cmpdi   r4,0
     cc4:	f8 01 00 b0 	std     r0,176(r1)
     cc8:	3c 00 80 61 	lis     r0,-32671
     ccc:	7c 88 23 78 	mr      r8,r4
     cd0:	38 e1 00 70 	addi    r7,r1,112
     cd4:	38 81 00 80 	addi    r4,r1,128
     cd8:	60 00 00 03 	ori     r0,r0,3
     cdc:	78 63 00 20 	clrldi  r3,r3,32
     ce0:	78 a5 00 20 	clrldi  r5,r5,32
     ce4:	78 c6 00 20 	clrldi  r6,r6,32
     ce8:	41 82 00 84 	beq-    0xd6c
     cec:	80 08 00 00 	lwz     r0,0(r8)
     cf0:	81 68 00 04 	lwz     r11,4(r8)
     cf4:	90 01 00 80 	stw     r0,128(r1)
     cf8:	81 28 00 08 	lwz     r9,8(r8)
     cfc:	38 00 00 00 	li      r0,0
     d00:	81 48 00 10 	lwz     r10,16(r8)
     d04:	90 01 00 8c 	stw     r0,140(r1)
     d08:	91 21 00 88 	stw     r9,136(r1)
     d0c:	80 08 00 0c 	lwz     r0,12(r8)
     d10:	91 61 00 84 	stw     r11,132(r1)
     d14:	90 01 00 90 	stw     r0,144(r1)
     d18:	91 41 00 70 	stw     r10,112(r1)
     d1c:	88 08 00 14 	lbz     r0,20(r8)
     d20:	98 01 00 74 	stb     r0,116(r1)
     d24:	89 28 00 15 	lbz     r9,21(r8)
     d28:	99 21 00 75 	stb     r9,117(r1)
     d2c:	88 08 00 16 	lbz     r0,22(r8)
     d30:	98 01 00 76 	stb     r0,118(r1)
     d34:	89 28 00 17 	lbz     r9,23(r8)
     d38:	99 21 00 77 	stb     r9,119(r1)
     d3c:	88 08 00 18 	lbz     r0,24(r8)
     d40:	98 01 00 78 	stb     r0,120(r1)
     d44:	89 28 00 19 	lbz     r9,25(r8)
     d48:	99 21 00 79 	stb     r9,121(r1)
     d4c:	88 08 00 1a 	lbz     r0,26(r8)
     d50:	98 01 00 7a 	stb     r0,122(r1)
     d54:	89 28 00 1b 	lbz     r9,27(r8)
     d58:	99 21 00 7b 	stb     r9,123(r1)
     d5c:	80 08 00 1c 	lwz     r0,28(r8)
     d60:	90 01 00 7c 	stw     r0,124(r1)
     d64:	4b ff fb 71 	bl      0x8d4
     d68:	7c 60 1b 78 	mr      r0,r3
     d6c:	7c 03 07 b4 	extsw   r3,r0
     d70:	e8 01 00 b0 	ld      r0,176(r1)
     d74:	38 21 00 a0 	addi    r1,r1,160
     d78:	7c 08 03 a6 	mtlr    r0
     d7c:	4e 80 00 20 	blr
     d80:	4b ff ff 38 	b       0xcb8
     d84:	f8 21 ff 71 	stdu    r1,-144(r1)
     d88:	7c 08 02 a6 	mflr    r0
     d8c:	fb e1 00 88 	std     r31,136(r1)
     d90:	78 9f 00 20 	clrldi  r31,r4,32
     d94:	fb a1 00 78 	std     r29,120(r1)
     d98:	fb c1 00 80 	std     r30,128(r1)
     d9c:	7c 7d 1b 78 	mr      r29,r3
     da0:	7c 9e 23 78 	mr      r30,r4
     da4:	7c 64 1b 78 	mr      r4,r3
     da8:	7f e3 fb 78 	mr      r3,r31
     dac:	fb 81 00 70 	std     r28,112(r1)
     db0:	f8 01 00 a0 	std     r0,160(r1)
     db4:	48 00 05 cd 	bl      0x1380
     db8:	60 00 00 00 	nop
     dbc:	7c 7c 1b 78 	mr      r28,r3
     dc0:	3c 00 80 61 	lis     r0,-32671
     dc4:	2f 9c 00 00 	cmpwi   cr7,r28,0
     dc8:	7f a4 eb 78 	mr      r4,r29
     dcc:	38 a0 02 00 	li      r5,512
     dd0:	7f e3 fb 78 	mr      r3,r31
     dd4:	60 00 00 01 	ori     r0,r0,1
     dd8:	41 9e 00 50 	beq-    cr7,0xe28
     ddc:	48 00 07 39 	bl      0x1514
     de0:	60 00 00 00 	nop
     de4:	80 1e 00 28 	lwz     r0,40(r30)
     de8:	80 de 00 2c 	lwz     r6,44(r30)
     dec:	2f 80 00 00 	cmpwi   cr7,r0,0
     df0:	78 09 00 20 	clrldi  r9,r0,32
     df4:	7f e3 fb 78 	mr      r3,r31
     df8:	7f 85 07 b4 	extsw   r5,r28
     dfc:	38 80 00 00 	li      r4,0
     e00:	38 00 00 00 	li      r0,0
     e04:	78 c6 00 20 	clrldi  r6,r6,32
     e08:	41 9e 00 20 	beq-    cr7,0xe28
     e0c:	80 09 00 00 	lwz     r0,0(r9)
     e10:	f8 41 00 28 	std     r2,40(r1)
     e14:	7c 09 03 a6 	mtctr   r0
     e18:	80 49 00 04 	lwz     r2,4(r9)
     e1c:	4e 80 04 21 	bctrl
     e20:	e8 41 00 28 	ld      r2,40(r1)
     e24:	38 00 00 00 	li      r0,0
     e28:	7c 03 07 b4 	extsw   r3,r0
     e2c:	e8 01 00 a0 	ld      r0,160(r1)
     e30:	eb 81 00 70 	ld      r28,112(r1)
     e34:	eb a1 00 78 	ld      r29,120(r1)
     e38:	7c 08 03 a6 	mtlr    r0
     e3c:	eb c1 00 80 	ld      r30,128(r1)
     e40:	eb e1 00 88 	ld      r31,136(r1)
     e44:	38 21 00 90 	addi    r1,r1,144
     e48:	4e 80 00 20 	blr
     e4c:	f8 21 ff 11 	stdu    r1,-240(r1)
     e50:	7c 08 02 a6 	mflr    r0
     e54:	fb 81 00 d0 	std     r28,208(r1)
     e58:	fb a1 00 d8 	std     r29,216(r1)
     e5c:	78 7c 00 20 	clrldi  r28,r3,32
     e60:	78 dd 00 20 	clrldi  r29,r6,32
     e64:	fa e1 00 a8 	std     r23,168(r1)
     e68:	fb 61 00 c8 	std     r27,200(r1)
     e6c:	7c 97 23 78 	mr      r23,r4
     e70:	7c 7b 1b 78 	mr      r27,r3
     e74:	7f 84 e3 78 	mr      r4,r28
     e78:	7f a3 eb 78 	mr      r3,r29
     e7c:	fa c1 00 a0 	std     r22,160(r1)
     e80:	fb 01 00 b0 	std     r24,176(r1)
     e84:	fb 21 00 b8 	std     r25,184(r1)
     e88:	fb 41 00 c0 	std     r26,192(r1)
     e8c:	fb e1 00 e8 	std     r31,232(r1)
     e90:	fb c1 00 e0 	std     r30,224(r1)
     e94:	f8 01 01 00 	std     r0,256(r1)
     e98:	7c da 33 78 	mr      r26,r6
     e9c:	7c b9 2b 78 	mr      r25,r5
     ea0:	7c f8 3b 78 	mr      r24,r7
     ea4:	7d 1f 43 78 	mr      r31,r8
     ea8:	7d 36 4b 78 	mr      r22,r9
     eac:	48 00 04 d5 	bl      0x1380
     eb0:	60 00 00 00 	nop
     eb4:	2f 83 00 00 	cmpwi   cr7,r3,0
     eb8:	41 9e 01 90 	beq-    cr7,0x1048
     ebc:	7f 7e 07 b4 	extsw   r30,r27
     ec0:	7f e5 07 74 	extsb   r5,r31
     ec4:	7f a3 eb 78 	mr      r3,r29
     ec8:	7f c4 f3 78 	mr      r4,r30
     ecc:	48 00 08 2d 	bl      0x16f8
     ed0:	60 00 00 00 	nop
     ed4:	2f 83 00 00 	cmpwi   cr7,r3,0
     ed8:	7c 7f 1b 78 	mr      r31,r3
     edc:	41 9e 00 40 	beq-    cr7,0xf1c
     ee0:	e8 01 01 00 	ld      r0,256(r1)
     ee4:	7f e3 07 b4 	extsw   r3,r31
     ee8:	ea c1 00 a0 	ld      r22,160(r1)
     eec:	ea e1 00 a8 	ld      r23,168(r1)
     ef0:	7c 08 03 a6 	mtlr    r0
     ef4:	eb 01 00 b0 	ld      r24,176(r1)
     ef8:	eb 21 00 b8 	ld      r25,184(r1)
     efc:	eb 41 00 c0 	ld      r26,192(r1)
     f00:	eb 61 00 c8 	ld      r27,200(r1)
     f04:	eb 81 00 d0 	ld      r28,208(r1)
     f08:	eb a1 00 d8 	ld      r29,216(r1)
     f0c:	eb c1 00 e0 	ld      r30,224(r1)
     f10:	eb e1 00 e8 	ld      r31,232(r1)
     f14:	38 21 00 f0 	addi    r1,r1,240
     f18:	4e 80 00 20 	blr
     f1c:	7f c4 f3 78 	mr      r4,r30
     f20:	3f c0 80 61 	lis     r30,-32671
     f24:	7f a3 eb 78 	mr      r3,r29
     f28:	63 de 00 01 	ori     r30,r30,1
     f2c:	48 00 0c d1 	bl      0x1bfc
     f30:	60 00 00 00 	nop
     f34:	7f 83 f0 00 	cmpw    cr7,r3,r30
     f38:	7c 7f 1b 78 	mr      r31,r3
     f3c:	41 9e ff a4 	beq+    cr7,0xee0
     f40:	7f a3 eb 78 	mr      r3,r29
     f44:	7f 84 e3 78 	mr      r4,r28
     f48:	38 a0 08 00 	li      r5,2048
     f4c:	48 00 05 c9 	bl      0x1514
     f50:	60 00 00 00 	nop
     f54:	54 7f 06 3e 	clrlwi  r31,r3,24
     f58:	7f 9f f0 00 	cmpw    cr7,r31,r30
     f5c:	41 9e ff 84 	beq+    cr7,0xee0
     f60:	7a e5 00 20 	clrldi  r5,r23,32
     f64:	7b 26 00 20 	clrldi  r6,r25,32
     f68:	7b 07 00 20 	clrldi  r7,r24,32
     f6c:	7f a3 eb 78 	mr      r3,r29
     f70:	7f 84 e3 78 	mr      r4,r28
     f74:	48 00 06 a9 	bl      0x161c
     f78:	60 00 00 00 	nop
     f7c:	7f 83 f0 00 	cmpw    cr7,r3,r30
     f80:	7c 7f 1b 78 	mr      r31,r3
     f84:	41 de ff 5c 	beq+    cr7,0xee0
     f88:	7f 84 e3 78 	mr      r4,r28
     f8c:	7f a3 eb 78 	mr      r3,r29
     f90:	38 a1 00 70 	addi    r5,r1,112
     f94:	48 00 04 51 	bl      0x13e4
     f98:	60 00 00 00 	nop
     f9c:	2f 83 00 00 	cmpwi   cr7,r3,0
     fa0:	7c 7f 1b 78 	mr      r31,r3
     fa4:	40 9e ff 3c 	bne+    cr7,0xee0
     fa8:	38 7a 00 84 	addi    r3,r26,132
     fac:	80 01 00 70 	lwz     r0,112(r1)
     fb0:	3b e0 00 10 	li      r31,16
     fb4:	78 63 00 20 	clrldi  r3,r3,32
     fb8:	38 81 00 74 	addi    r4,r1,116
     fbc:	90 01 00 7c 	stw     r0,124(r1)
     fc0:	93 e1 00 78 	stw     r31,120(r1)
     fc4:	93 61 00 80 	stw     r27,128(r1)
     fc8:	48 00 30 1d 	bl      0x3fe4
     fcc:	60 00 00 00 	nop
     fd0:	2f 83 00 00 	cmpwi   cr7,r3,0
     fd4:	40 fe 00 74 	bne+    cr7,0x1048
     fd8:	38 7a 00 d8 	addi    r3,r26,216
     fdc:	80 01 00 70 	lwz     r0,112(r1)
     fe0:	38 81 00 84 	addi    r4,r1,132
     fe4:	78 63 00 20 	clrldi  r3,r3,32
     fe8:	93 e1 00 88 	stw     r31,136(r1)
     fec:	90 01 00 8c 	stw     r0,140(r1)
     ff0:	93 61 00 90 	stw     r27,144(r1)
     ff4:	48 00 2f f1 	bl      0x3fe4
     ff8:	60 00 00 00 	nop
     ffc:	2f 83 00 00 	cmpwi   cr7,r3,0
    1000:	7c 7f 1b 78 	mr      r31,r3
    1004:	40 9e 00 44 	bne-    cr7,0x1048
    1008:	81 3a 00 28 	lwz     r9,40(r26)
    100c:	80 da 00 2c 	lwz     r6,44(r26)
    1010:	2f 89 00 00 	cmpwi   cr7,r9,0
    1014:	41 9e fe cc 	beq+    cr7,0xee0
    1018:	79 29 00 20 	clrldi  r9,r9,32
    101c:	7f a3 eb 78 	mr      r3,r29
    1020:	7e c5 07 b4 	extsw   r5,r22
    1024:	78 c6 00 20 	clrldi  r6,r6,32
    1028:	38 80 00 01 	li      r4,1
    102c:	80 09 00 00 	lwz     r0,0(r9)
    1030:	f8 41 00 28 	std     r2,40(r1)
    1034:	7c 09 03 a6 	mtctr   r0
    1038:	80 49 00 04 	lwz     r2,4(r9)
    103c:	4e 80 04 21 	bctrl
    1040:	e8 41 00 28 	ld      r2,40(r1)
    1044:	4b ff fe 9c 	b       0xee0
    1048:	3f e0 80 61 	lis     r31,-32671
    104c:	e8 01 01 00 	ld      r0,256(r1)
    1050:	ea c1 00 a0 	ld      r22,160(r1)
    1054:	63 ff 00 01 	ori     r31,r31,1
    1058:	ea e1 00 a8 	ld      r23,168(r1)
    105c:	eb 01 00 b0 	ld      r24,176(r1)
    1060:	7c 08 03 a6 	mtlr    r0
    1064:	7f e3 07 b4 	extsw   r3,r31
    1068:	eb 21 00 b8 	ld      r25,184(r1)
    106c:	eb 41 00 c0 	ld      r26,192(r1)
    1070:	eb 61 00 c8 	ld      r27,200(r1)
    1074:	eb 81 00 d0 	ld      r28,208(r1)
    1078:	eb a1 00 d8 	ld      r29,216(r1)
    107c:	eb c1 00 e0 	ld      r30,224(r1)
    1080:	eb e1 00 e8 	ld      r31,232(r1)
    1084:	38 21 00 f0 	addi    r1,r1,240
    1088:	4e 80 00 20 	blr
    108c:	7c 66 1b 78 	mr      r6,r3
    1090:	7c 08 02 a6 	mflr    r0
    1094:	f8 01 00 10 	std     r0,16(r1)
    1098:	80 03 00 40 	lwz     r0,64(r3)
    109c:	80 e3 00 50 	lwz     r7,80(r3)
    10a0:	2f 80 00 00 	cmpwi   cr7,r0,0
    10a4:	40 9d 00 58 	ble-    cr7,0x10fc
    10a8:	78 00 00 20 	clrldi  r0,r0,32
    10ac:	39 00 00 00 	li      r8,0
    10b0:	7c 09 03 a6 	mtctr   r0
    10b4:	39 40 00 00 	li      r10,0
    10b8:	38 00 00 00 	li      r0,0
    10bc:	39 60 00 00 	li      r11,0
    10c0:	7d 2a 3a 14 	add     r9,r10,r7
    10c4:	39 4a 00 68 	addi    r10,r10,104
    10c8:	79 29 00 20 	clrldi  r9,r9,32
    10cc:	91 09 00 04 	stw     r8,4(r9)
    10d0:	91 69 00 64 	stw     r11,100(r9)
    10d4:	98 09 00 00 	stb     r0,0(r9)
    10d8:	98 09 00 08 	stb     r0,8(r9)
    10dc:	98 09 00 09 	stb     r0,9(r9)
    10e0:	98 09 00 0a 	stb     r0,10(r9)
    10e4:	98 09 00 0b 	stb     r0,11(r9)
    10e8:	91 69 00 58 	stw     r11,88(r9)
    10ec:	91 69 00 5c 	stw     r11,92(r9)
    10f0:	91 69 00 60 	stw     r11,96(r9)
    10f4:	39 08 00 01 	addi    r8,r8,1
    10f8:	42 00 ff c8 	bdnz+   0x10c0
    10fc:	38 00 00 02 	li      r0,2
    1100:	81 62 80 14 	lwz     r11,-32748(r2)
    1104:	39 20 00 00 	li      r9,0
    1108:	90 03 00 58 	stw     r0,88(r3)
    110c:	38 00 00 20 	li      r0,32
    1110:	39 40 00 00 	li      r10,0
    1114:	99 23 00 78 	stb     r9,120(r3)
    1118:	90 03 00 5c 	stw     r0,92(r3)
    111c:	39 20 02 00 	li      r9,512
    1120:	38 00 20 00 	li      r0,8192
    1124:	91 23 00 60 	stw     r9,96(r3)
    1128:	90 03 00 64 	stw     r0,100(r3)
    112c:	91 43 00 70 	stw     r10,112(r3)
    1130:	f9 43 00 68 	std     r10,104(r3)
    1134:	39 26 00 78 	addi    r9,r6,120
    1138:	e8 0b 00 00 	ld      r0,0(r11)
    113c:	f8 09 00 00 	std     r0,0(r9)
    1140:	38 00 00 00 	li      r0,0
    1144:	39 49 00 07 	addi    r10,r9,7
    1148:	98 0a 00 00 	stb     r0,0(r10)
    114c:	38 86 00 58 	addi    r4,r6,88
    1150:	38 66 00 80 	addi    r3,r6,128
    1154:	78 84 00 20 	clrldi  r4,r4,32
    1158:	78 63 00 20 	clrldi  r3,r3,32
    115c:	39 60 00 64 	li      r11,100
    1160:	44 00 00 02 	sc      
    1164:	e8 01 00 10 	ld      r0,16(r1)
    1168:	38 60 00 00 	li      r3,0
    116c:	7c 08 03 a6 	mtlr    r0
    1170:	4e 80 00 20 	blr
    1174:	81 23 00 50 	lwz     r9,80(r3)
    1178:	38 00 00 00 	li      r0,0
    117c:	39 60 00 00 	li      r11,0
    1180:	39 40 ff ff 	li      r10,-1
    1184:	38 60 00 00 	li      r3,0
    1188:	1c 84 00 68 	mulli   r4,r4,104
    118c:	7c 84 4a 14 	add     r4,r4,r9
    1190:	78 84 00 20 	clrldi  r4,r4,32
    1194:	91 44 00 64 	stw     r10,100(r4)
    1198:	98 04 00 0b 	stb     r0,11(r4)
    119c:	91 64 00 5c 	stw     r11,92(r4)
    11a0:	98 04 00 00 	stb     r0,0(r4)
    11a4:	98 04 00 08 	stb     r0,8(r4)
    11a8:	98 04 00 09 	stb     r0,9(r4)
    11ac:	98 04 00 0a 	stb     r0,10(r4)
    11b0:	91 64 00 58 	stw     r11,88(r4)
    11b4:	91 44 00 60 	stw     r10,96(r4)
    11b8:	4e 80 00 20 	blr
    11bc:	81 03 00 40 	lwz     r8,64(r3)
    11c0:	81 63 00 50 	lwz     r11,80(r3)
    11c4:	2f 88 00 00 	cmpwi   cr7,r8,0
    11c8:	40 9d 00 50 	ble-    cr7,0x1218
    11cc:	79 69 00 20 	clrldi  r9,r11,32
    11d0:	7d 6a 5b 78 	mr      r10,r11
    11d4:	38 60 00 00 	li      r3,0
    11d8:	88 09 00 00 	lbz     r0,0(r9)
    11dc:	2f 80 00 00 	cmpwi   cr7,r0,0
    11e0:	41 9e 00 48 	beq-    cr7,0x1228
    11e4:	79 08 00 20 	clrldi  r8,r8,32
    11e8:	39 2b 00 68 	addi    r9,r11,104
    11ec:	38 60 00 00 	li      r3,0
    11f0:	7d 09 03 a6 	mtctr   r8
    11f4:	48 00 00 10 	b       0x1204
    11f8:	88 0b 00 00 	lbz     r0,0(r11)
    11fc:	2f 80 00 00 	cmpwi   cr7,r0,0
    1200:	41 9e 00 28 	beq-    cr7,0x1228
    1204:	79 2b 00 20 	clrldi  r11,r9,32
    1208:	7d 2a 4b 78 	mr      r10,r9
    120c:	38 63 00 01 	addi    r3,r3,1
    1210:	39 29 00 68 	addi    r9,r9,104
    1214:	42 00 ff e4 	bdnz+   0x11f8
    1218:	3c 60 80 61 	lis     r3,-32671
    121c:	60 63 00 04 	ori     r3,r3,4
    1220:	7c 63 07 b4 	extsw   r3,r3
    1224:	4e 80 00 20 	blr
    1228:	79 49 00 20 	clrldi  r9,r10,32
    122c:	e8 04 00 00 	ld      r0,0(r4)
    1230:	7c 63 07 b4 	extsw   r3,r3
    1234:	f8 09 00 10 	std     r0,16(r9)
    1238:	e9 64 00 08 	ld      r11,8(r4)
    123c:	38 00 00 01 	li      r0,1
    1240:	f9 69 00 18 	std     r11,24(r9)
    1244:	98 09 00 00 	stb     r0,0(r9)
    1248:	e8 04 00 10 	ld      r0,16(r4)
    124c:	f8 09 00 20 	std     r0,32(r9)
    1250:	4e 80 00 20 	blr
    1254:	2f 84 00 00 	cmpwi   cr7,r4,0
    1258:	39 60 00 00 	li      r11,0
    125c:	41 dc 00 28 	blt-    cr7,0x1284
    1260:	80 03 00 50 	lwz     r0,80(r3)
    1264:	1d 24 00 68 	mulli   r9,r4,104
    1268:	7d 29 02 14 	add     r9,r9,r0
    126c:	79 29 00 20 	clrldi  r9,r9,32
    1270:	88 09 00 00 	lbz     r0,0(r9)
    1274:	2f 80 00 00 	cmpwi   cr7,r0,0
    1278:	41 9e 00 18 	beq-    cr7,0x1290
    127c:	7d 63 07 b4 	extsw   r3,r11
    1280:	4e 80 00 20 	blr
    1284:	80 03 00 40 	lwz     r0,64(r3)
    1288:	7f 80 20 00 	cmpw    cr7,r0,r4
    128c:	41 9d ff d4 	bgt+    cr7,0x1260
    1290:	3d 60 80 61 	lis     r11,-32671
    1294:	61 6b 00 01 	ori     r11,r11,1
    1298:	4b ff ff e4 	b       0x127c
    129c:	81 63 00 40 	lwz     r11,64(r3)
    12a0:	81 23 00 50 	lwz     r9,80(r3)
    12a4:	2f 8b 00 00 	cmpwi   cr7,r11,0
    12a8:	40 9d 00 40 	ble-    cr7,0x12e8
    12ac:	38 09 00 10 	addi    r0,r9,16
    12b0:	38 60 00 00 	li      r3,0
    12b4:	7f 80 20 00 	cmpw    cr7,r0,r4
    12b8:	41 9e 00 38 	beq-    cr7,0x12f0
    12bc:	79 6b 00 20 	clrldi  r11,r11,32
    12c0:	39 29 00 68 	addi    r9,r9,104
    12c4:	38 60 00 00 	li      r3,0
    12c8:	7d 69 03 a6 	mtctr   r11
    12cc:	48 00 00 08 	b       0x12d4
    12d0:	41 9e 00 20 	beq-    cr7,0x12f0
    12d4:	38 09 00 10 	addi    r0,r9,16
    12d8:	38 63 00 01 	addi    r3,r3,1
    12dc:	39 29 00 68 	addi    r9,r9,104
    12e0:	7f 80 20 00 	cmpw    cr7,r0,r4
    12e4:	42 00 ff ec 	bdnz+   0x12d0
    12e8:	3c 60 80 61 	lis     r3,-32671
    12ec:	60 63 00 01 	ori     r3,r3,1
    12f0:	7c 63 07 b4 	extsw   r3,r3
    12f4:	4e 80 00 20 	blr
    12f8:	f8 21 ff 71 	stdu    r1,-144(r1)
    12fc:	7c 08 02 a6 	mflr    r0
    1300:	fb c1 00 80 	std     r30,128(r1)
    1304:	7c 7e 1b 78 	mr      r30,r3
    1308:	f8 01 00 a0 	std     r0,160(r1)
    130c:	fb e1 00 88 	std     r31,136(r1)
    1310:	fb a1 00 78 	std     r29,120(r1)
    1314:	7c 9d 23 78 	mr      r29,r4
    1318:	83 fe 00 48 	lwz     r31,72(r30)
    131c:	2f 9f ff ff 	cmpwi   cr7,r31,-1
    1320:	7f e4 07 b4 	extsw   r4,r31
    1324:	40 9e 00 2c 	bne-    cr7,0x1350
    1328:	3d 60 80 61 	lis     r11,-32671
    132c:	61 6b 00 01 	ori     r11,r11,1
    1330:	e8 01 00 a0 	ld      r0,160(r1)
    1334:	7d 63 07 b4 	extsw   r3,r11
    1338:	eb a1 00 78 	ld      r29,120(r1)
    133c:	eb c1 00 80 	ld      r30,128(r1)
    1340:	7c 08 03 a6 	mtlr    r0
    1344:	eb e1 00 88 	ld      r31,136(r1)
    1348:	38 21 00 90 	addi    r1,r1,144
    134c:	4e 80 00 20 	blr
    1350:	4b ff ff 05 	bl      0x1254
    1354:	3c 00 80 61 	lis     r0,-32671
    1358:	39 60 00 00 	li      r11,0
    135c:	60 00 00 01 	ori     r0,r0,1
    1360:	7f 83 00 00 	cmpw    cr7,r3,r0
    1364:	41 9e ff c4 	beq+    cr7,0x1328
    1368:	80 1e 00 50 	lwz     r0,80(r30)
    136c:	1d 3f 00 68 	mulli   r9,r31,104
    1370:	7d 29 02 14 	add     r9,r9,r0
    1374:	39 29 00 28 	addi    r9,r9,40
    1378:	91 3d 00 00 	stw     r9,0(r29)
    137c:	4b ff ff b4 	b       0x1330
    1380:	f8 21 ff 81 	stdu    r1,-128(r1)
    1384:	7c 08 02 a6 	mflr    r0
    1388:	fb c1 00 70 	std     r30,112(r1)
    138c:	7c 9e 23 78 	mr      r30,r4
    1390:	7c 84 07 b4 	extsw   r4,r4
    1394:	fb e1 00 78 	std     r31,120(r1)
    1398:	f8 01 00 90 	std     r0,144(r1)
    139c:	7c 7f 1b 78 	mr      r31,r3
    13a0:	4b ff fe b5 	bl      0x1254
    13a4:	3c 00 80 61 	lis     r0,-32671
    13a8:	38 80 00 00 	li      r4,0
    13ac:	60 00 00 01 	ori     r0,r0,1
    13b0:	7f 83 00 00 	cmpw    cr7,r3,r0
    13b4:	41 9e 00 14 	beq-    cr7,0x13c8
    13b8:	80 1f 00 50 	lwz     r0,80(r31)
    13bc:	1d 3e 00 68 	mulli   r9,r30,104
    13c0:	7d 29 02 14 	add     r9,r9,r0
    13c4:	38 89 00 10 	addi    r4,r9,16
    13c8:	e8 01 00 90 	ld      r0,144(r1)
    13cc:	78 83 00 20 	clrldi  r3,r4,32
    13d0:	eb c1 00 70 	ld      r30,112(r1)
    13d4:	eb e1 00 78 	ld      r31,120(r1)
    13d8:	7c 08 03 a6 	mtlr    r0
    13dc:	38 21 00 80 	addi    r1,r1,128
    13e0:	4e 80 00 20 	blr
    13e4:	f8 21 ff 71 	stdu    r1,-144(r1)
    13e8:	7c 08 02 a6 	mflr    r0
    13ec:	fb c1 00 80 	std     r30,128(r1)
    13f0:	7c 9e 23 78 	mr      r30,r4
    13f4:	7c 84 07 b4 	extsw   r4,r4
    13f8:	fb a1 00 78 	std     r29,120(r1)
    13fc:	fb e1 00 88 	std     r31,136(r1)
    1400:	f8 01 00 a0 	std     r0,160(r1)
    1404:	7c 7f 1b 78 	mr      r31,r3
    1408:	7c bd 2b 78 	mr      r29,r5
    140c:	4b ff fe 49 	bl      0x1254
    1410:	3c 00 80 61 	lis     r0,-32671
    1414:	7c 6b 1b 78 	mr      r11,r3
    1418:	60 00 00 01 	ori     r0,r0,1
    141c:	7f 80 18 00 	cmpw    cr7,r0,r3
    1420:	41 9e 00 1c 	beq-    cr7,0x143c
    1424:	80 1f 00 50 	lwz     r0,80(r31)
    1428:	39 60 00 00 	li      r11,0
    142c:	1d 3e 00 68 	mulli   r9,r30,104
    1430:	7d 29 02 14 	add     r9,r9,r0
    1434:	39 29 00 28 	addi    r9,r9,40
    1438:	91 3d 00 00 	stw     r9,0(r29)
    143c:	e8 01 00 a0 	ld      r0,160(r1)
    1440:	7d 63 07 b4 	extsw   r3,r11
    1444:	eb a1 00 78 	ld      r29,120(r1)
    1448:	eb c1 00 80 	ld      r30,128(r1)
    144c:	7c 08 03 a6 	mtlr    r0
    1450:	eb e1 00 88 	ld      r31,136(r1)
    1454:	38 21 00 90 	addi    r1,r1,144
    1458:	4e 80 00 20 	blr
    145c:	38 60 00 00 	li      r3,0
    1460:	4e 80 00 20 	blr
    1464:	2f 85 00 40 	cmpwi   cr7,r5,64
    1468:	80 03 00 50 	lwz     r0,80(r3)
    146c:	41 9e 00 4c 	beq-    cr7,0x14b8
    1470:	2b 85 00 40 	cmplwi  cr7,r5,64
    1474:	40 9d 00 20 	ble-    cr7,0x1494
    1478:	2f 85 00 80 	cmpwi   cr7,r5,128
    147c:	41 9e 00 68 	beq-    cr7,0x14e4
    1480:	2f 85 01 00 	cmpwi   cr7,r5,256
    1484:	41 9e 00 4c 	beq-    cr7,0x14d0
    1488:	38 60 00 00 	li      r3,0
    148c:	7c 63 07 b4 	extsw   r3,r3
    1490:	4e 80 00 20 	blr
    1494:	2f 85 00 10 	cmpwi   cr7,r5,16
    1498:	41 9e 00 64 	beq-    cr7,0x14fc
    149c:	2f 85 00 20 	cmpwi   cr7,r5,32
    14a0:	40 9e ff e8 	bne+    cr7,0x1488
    14a4:	1d 24 00 68 	mulli   r9,r4,104
    14a8:	7d 29 02 14 	add     r9,r9,r0
    14ac:	79 29 00 20 	clrldi  r9,r9,32
    14b0:	88 69 00 08 	lbz     r3,8(r9)
    14b4:	4b ff ff d8 	b       0x148c
    14b8:	1d 24 00 68 	mulli   r9,r4,104
    14bc:	7d 29 02 14 	add     r9,r9,r0
    14c0:	79 29 00 20 	clrldi  r9,r9,32
    14c4:	88 69 00 09 	lbz     r3,9(r9)
    14c8:	7c 63 07 b4 	extsw   r3,r3
    14cc:	4e 80 00 20 	blr
    14d0:	1d 24 00 68 	mulli   r9,r4,104
    14d4:	7d 29 02 14 	add     r9,r9,r0
    14d8:	79 29 00 20 	clrldi  r9,r9,32
    14dc:	88 69 00 0b 	lbz     r3,11(r9)
    14e0:	4b ff ff ac 	b       0x148c
    14e4:	1d 24 00 68 	mulli   r9,r4,104
    14e8:	7d 29 02 14 	add     r9,r9,r0
    14ec:	79 29 00 20 	clrldi  r9,r9,32
    14f0:	88 69 00 0a 	lbz     r3,10(r9)
    14f4:	7c 63 07 b4 	extsw   r3,r3
    14f8:	4e 80 00 20 	blr
    14fc:	1d 24 00 68 	mulli   r9,r4,104
    1500:	7d 29 02 14 	add     r9,r9,r0
    1504:	79 29 00 20 	clrldi  r9,r9,32
    1508:	88 69 00 00 	lbz     r3,0(r9)
    150c:	7c 63 07 b4 	extsw   r3,r3
    1510:	4e 80 00 20 	blr
    1514:	2f 85 04 00 	cmpwi   cr7,r5,1024
    1518:	80 03 00 50 	lwz     r0,80(r3)
    151c:	41 9e 00 50 	beq-    cr7,0x156c
    1520:	2b 85 04 00 	cmplwi  cr7,r5,1024
    1524:	40 9d 00 20 	ble-    cr7,0x1544
    1528:	2f 85 08 00 	cmpwi   cr7,r5,2048
    152c:	41 9e 00 7c 	beq-    cr7,0x15a8
    1530:	2f 85 10 00 	cmpwi   cr7,r5,4096
    1534:	41 9e 00 58 	beq-    cr7,0x158c
    1538:	38 60 00 00 	li      r3,0
    153c:	7c 63 07 b4 	extsw   r3,r3
    1540:	4e 80 00 20 	blr
    1544:	2f 85 02 00 	cmpwi   cr7,r5,512
    1548:	40 9e ff f0 	bne+    cr7,0x1538
    154c:	38 60 00 01 	li      r3,1
    1550:	1d 24 00 68 	mulli   r9,r4,104
    1554:	7d 29 02 14 	add     r9,r9,r0
    1558:	7c 63 07 b4 	extsw   r3,r3
    155c:	79 29 00 20 	clrldi  r9,r9,32
    1560:	38 00 00 01 	li      r0,1
    1564:	98 09 00 08 	stb     r0,8(r9)
    1568:	4e 80 00 20 	blr
    156c:	38 60 00 01 	li      r3,1
    1570:	1d 24 00 68 	mulli   r9,r4,104
    1574:	7d 29 02 14 	add     r9,r9,r0
    1578:	7c 63 07 b4 	extsw   r3,r3
    157c:	79 29 00 20 	clrldi  r9,r9,32
    1580:	38 00 00 01 	li      r0,1
    1584:	98 09 00 09 	stb     r0,9(r9)
    1588:	4e 80 00 20 	blr
    158c:	38 60 00 01 	li      r3,1
    1590:	1d 24 00 68 	mulli   r9,r4,104
    1594:	7d 29 02 14 	add     r9,r9,r0
    1598:	38 00 00 01 	li      r0,1
    159c:	79 29 00 20 	clrldi  r9,r9,32
    15a0:	98 09 00 0b 	stb     r0,11(r9)
    15a4:	4b ff ff 98 	b       0x153c
    15a8:	38 60 00 01 	li      r3,1
    15ac:	1d 24 00 68 	mulli   r9,r4,104
    15b0:	7d 29 02 14 	add     r9,r9,r0
    15b4:	7c 63 07 b4 	extsw   r3,r3
    15b8:	79 29 00 20 	clrldi  r9,r9,32
    15bc:	38 00 00 01 	li      r0,1
    15c0:	98 09 00 0a 	stb     r0,10(r9)
    15c4:	4e 80 00 20 	blr
    15c8:	fb a1 ff e8 	std     r29,-24(r1)
    15cc:	7c 08 02 a6 	mflr    r0
    15d0:	39 60 00 65 	li      r11,101
    15d4:	f8 01 00 10 	std     r0,16(r1)
    15d8:	80 63 00 80 	lwz     r3,128(r3)
    15dc:	44 00 00 02 	sc      
    15e0:	7c 60 fe 70 	srawi   r0,r3,31
    15e4:	7c 1d 1a 78 	xor     r29,r0,r3
    15e8:	7f a0 e8 50 	subf    r29,r0,r29
    15ec:	3c 00 7f 9e 	lis     r0,32670
    15f0:	3b bd ff ff 	addi    r29,r29,-1
    15f4:	60 00 ff ff 	ori     r0,r0,65535
    15f8:	7f bd fe 70 	srawi   r29,r29,31
    15fc:	7f a3 00 38 	and     r3,r29,r0
    1600:	e8 01 00 10 	ld      r0,16(r1)
    1604:	eb a1 ff e8 	ld      r29,-24(r1)
    1608:	3c 63 80 61 	addis   r3,r3,-32671
    160c:	7c 08 03 a6 	mtlr    r0
    1610:	38 63 00 01 	addi    r3,r3,1
    1614:	7c 63 07 b4 	extsw   r3,r3
    1618:	4e 80 00 20 	blr
    161c:	f8 21 ff 61 	stdu    r1,-160(r1)
    1620:	7c 08 02 a6 	mflr    r0
    1624:	fb a1 00 88 	std     r29,136(r1)
    1628:	7c 9d 23 78 	mr      r29,r4
    162c:	7c 84 07 b4 	extsw   r4,r4
    1630:	fb 41 00 70 	std     r26,112(r1)
    1634:	fb 61 00 78 	std     r27,120(r1)
    1638:	fb 81 00 80 	std     r28,128(r1)
    163c:	fb e1 00 98 	std     r31,152(r1)
    1640:	f8 01 00 b0 	std     r0,176(r1)
    1644:	fb c1 00 90 	std     r30,144(r1)
    1648:	7c 7f 1b 78 	mr      r31,r3
    164c:	7c bc 2b 78 	mr      r28,r5
    1650:	7c db 33 78 	mr      r27,r6
    1654:	7c fa 3b 78 	mr      r26,r7
    1658:	4b ff fb fd 	bl      0x1254
    165c:	3c 00 80 61 	lis     r0,-32671
    1660:	7c 69 1b 78 	mr      r9,r3
    1664:	60 00 00 01 	ori     r0,r0,1
    1668:	7f 80 18 00 	cmpw    cr7,r0,r3
    166c:	41 9e 00 60 	beq-    cr7,0x16cc
    1670:	80 1f 00 50 	lwz     r0,80(r31)
    1674:	1d 5d 00 68 	mulli   r10,r29,104
    1678:	7d 4a 02 14 	add     r10,r10,r0
    167c:	38 00 00 00 	li      r0,0
    1680:	39 2a 00 28 	addi    r9,r10,40
    1684:	79 4a 00 20 	clrldi  r10,r10,32
    1688:	79 29 00 20 	clrldi  r9,r9,32
    168c:	93 a9 00 00 	stw     r29,0(r9)
    1690:	90 09 00 04 	stw     r0,4(r9)
    1694:	93 89 00 08 	stw     r28,8(r9)
    1698:	93 69 00 0c 	stw     r27,12(r9)
    169c:	e9 6a 00 10 	ld      r11,16(r10)
    16a0:	80 69 00 10 	lwz     r3,16(r9)
    16a4:	f9 69 00 18 	std     r11,24(r9)
    16a8:	e8 0a 00 18 	ld      r0,24(r10)
    16ac:	f8 09 00 20 	std     r0,32(r9)
    16b0:	e9 6a 00 20 	ld      r11,32(r10)
    16b4:	f9 69 00 28 	std     r11,40(r9)
    16b8:	80 9a 00 00 	lwz     r4,0(r26)
    16bc:	80 bf 00 54 	lwz     r5,84(r31)
    16c0:	48 00 30 d9 	bl      0x4798
    16c4:	e8 41 00 28 	ld      r2,40(r1)
    16c8:	39 20 00 00 	li      r9,0
    16cc:	e8 01 00 b0 	ld      r0,176(r1)
    16d0:	7d 23 07 b4 	extsw   r3,r9
    16d4:	eb 41 00 70 	ld      r26,112(r1)
    16d8:	eb 61 00 78 	ld      r27,120(r1)
    16dc:	7c 08 03 a6 	mtlr    r0
    16e0:	eb 81 00 80 	ld      r28,128(r1)
    16e4:	eb a1 00 88 	ld      r29,136(r1)
    16e8:	eb c1 00 90 	ld      r30,144(r1)
    16ec:	eb e1 00 98 	ld      r31,152(r1)
    16f0:	38 21 00 a0 	addi    r1,r1,160
    16f4:	4e 80 00 20 	blr
    16f8:	f8 21 ff 71 	stdu    r1,-144(r1)
    16fc:	7c 08 02 a6 	mflr    r0
    1700:	fb e1 00 88 	std     r31,136(r1)
    1704:	7c 9f 23 78 	mr      r31,r4
    1708:	7c 84 07 b4 	extsw   r4,r4
    170c:	fb a1 00 78 	std     r29,120(r1)
    1710:	fb c1 00 80 	std     r30,128(r1)
    1714:	f8 01 00 a0 	std     r0,160(r1)
    1718:	7c 7e 1b 78 	mr      r30,r3
    171c:	7c bd 2b 78 	mr      r29,r5
    1720:	4b ff fb 35 	bl      0x1254
    1724:	6c 60 80 61 	xoris   r0,r3,32865
    1728:	2f 80 00 01 	cmpwi   cr7,r0,1
    172c:	41 9e 01 20 	beq-    cr7,0x184c
    1730:	39 7d ff ef 	addi    r11,r29,-17
    1734:	80 1e 00 50 	lwz     r0,80(r30)
    1738:	81 5e 00 10 	lwz     r10,16(r30)
    173c:	2b 8b 00 15 	cmplwi  cr7,r11,21
    1740:	1d 3f 00 68 	mulli   r9,r31,104
    1744:	7d 29 02 14 	add     r9,r9,r0
    1748:	38 89 00 10 	addi    r4,r9,16
    174c:	40 9d 00 50 	ble-    cr7,0x179c
    1750:	78 84 00 20 	clrldi  r4,r4,32
    1754:	80 04 00 08 	lwz     r0,8(r4)
    1758:	2f 80 ff ff 	cmpwi   cr7,r0,-1
    175c:	41 9e 01 18 	beq-    cr7,0x1874
    1760:	80 04 00 08 	lwz     r0,8(r4)
    1764:	80 84 00 0c 	lwz     r4,12(r4)
    1768:	2f 84 ff ff 	cmpwi   cr7,r4,-1
    176c:	41 9e 00 e0 	beq-    cr7,0x184c
    1770:	90 1e 00 38 	stw     r0,56(r30)
    1774:	38 60 00 00 	li      r3,0
    1778:	e8 01 00 a0 	ld      r0,160(r1)
    177c:	90 9e 00 3c 	stw     r4,60(r30)
    1780:	7c 63 07 b4 	extsw   r3,r3
    1784:	eb a1 00 78 	ld      r29,120(r1)
    1788:	eb c1 00 80 	ld      r30,128(r1)
    178c:	7c 08 03 a6 	mtlr    r0
    1790:	eb e1 00 88 	ld      r31,136(r1)
    1794:	38 21 00 90 	addi    r1,r1,144
    1798:	4e 80 00 20 	blr
    179c:	79 69 17 88 	rldic   r9,r11,2,30
    17a0:	81 62 80 18 	lwz     r11,-32744(r2)
    17a4:	7c 09 58 2e 	lwzx    r0,r9,r11
    17a8:	7c 00 07 b4 	extsw   r0,r0
    17ac:	7c 00 5a 14 	add     r0,r0,r11
    17b0:	7c 09 03 a6 	mtctr   r0
    17b4:	4e 80 04 20 	bctr
    17b8:	00 00 02 88 	.long 0x288
    17bc:	ff ff ff 98 	.long 0xffffff98
    17c0:	ff ff ff 98 	.long 0xffffff98
    17c4:	ff ff ff 98 	.long 0xffffff98
    17c8:	00 00 01 8c 	.long 0x18c
    17cc:	ff ff ff 98 	.long 0xffffff98
    17d0:	ff ff ff 98 	.long 0xffffff98
    17d4:	00 00 03 18 	.long 0x318
    17d8:	00 00 02 f4 	.long 0x2f4
    17dc:	00 00 02 d0 	.long 0x2d0
    17e0:	00 00 02 ac 	.long 0x2ac
    17e4:	00 00 03 78 	.long 0x378
    17e8:	00 00 03 3c 	.long 0x33c
    17ec:	00 00 01 68 	.long 0x168
    17f0:	00 00 02 1c 	.long 0x21c
    17f4:	00 00 01 f8 	.long 0x1f8
    17f8:	00 00 01 d4 	.long 0x1d4
    17fc:	00 00 01 b0 	.long 0x1b0
    1800:	00 00 02 64 	.long 0x264
    1804:	00 00 02 40 	.long 0x240
    1808:	00 00 01 28 	.long 0x128
    180c:	00 00 01 28 	.long 0x128
    1810:	38 00 01 c2 	li      r0,450
    1814:	7c 00 42 14 	add     r0,r0,r8
    1818:	91 44 00 08 	stw     r10,8(r4)
    181c:	90 04 00 0c 	stw     r0,12(r4)
    1820:	81 3e 00 3c 	lwz     r9,60(r30)
    1824:	7f 80 48 40 	cmplw   cr7,r0,r9
    1828:	40 9c 00 18 	bge-    cr7,0x1840
    182c:	55 40 07 fe 	clrlwi  r0,r10,31
    1830:	2f 80 00 00 	cmpwi   cr7,r0,0
    1834:	40 9e 03 74 	bne-    cr7,0x1ba8
    1838:	38 0a 00 01 	addi    r0,r10,1
    183c:	90 04 00 08 	stw     r0,8(r4)
    1840:	80 04 00 08 	lwz     r0,8(r4)
    1844:	2f 80 ff ff 	cmpwi   cr7,r0,-1
    1848:	40 9e ff 1c 	bne+    cr7,0x1764
    184c:	3c 60 80 61 	lis     r3,-32671
    1850:	e8 01 00 a0 	ld      r0,160(r1)
    1854:	eb a1 00 78 	ld      r29,120(r1)
    1858:	60 63 00 01 	ori     r3,r3,1
    185c:	eb c1 00 80 	ld      r30,128(r1)
    1860:	eb e1 00 88 	ld      r31,136(r1)
    1864:	7c 08 03 a6 	mtlr    r0
    1868:	7c 63 07 b4 	extsw   r3,r3
    186c:	38 21 00 90 	addi    r1,r1,144
    1870:	4e 80 00 20 	blr
    1874:	80 04 00 0c 	lwz     r0,12(r4)
    1878:	2f 80 ff ff 	cmpwi   cr7,r0,-1
    187c:	40 9e ff d0 	bne+    cr7,0x184c
    1880:	81 5e 00 38 	lwz     r10,56(r30)
    1884:	2f 8a ff ff 	cmpwi   cr7,r10,-1
    1888:	41 9e 02 cc 	beq-    cr7,0x1b54
    188c:	81 1e 00 3c 	lwz     r8,60(r30)
    1890:	2b 9d 00 09 	cmplwi  cr7,r29,9
    1894:	38 00 00 00 	li      r0,0
    1898:	41 9d ff 7c 	bgt+    cr7,0x1814
    189c:	81 62 80 1c 	lwz     r11,-32740(r2)
    18a0:	7b a9 17 88 	rldic   r9,r29,2,30
    18a4:	7c 09 58 2e 	lwzx    r0,r9,r11
    18a8:	7c 00 07 b4 	extsw   r0,r0
    18ac:	7c 00 5a 14 	add     r0,r0,r11
    18b0:	7c 09 03 a6 	mtctr   r0
    18b4:	4e 80 04 20 	bctr
    18b8:	ff ff ff 58 	.long 0xffffff58
    18bc:	00 00 02 b0 	.long 0x2b0
    18c0:	00 00 02 b8 	.long 0x2b8
    18c4:	00 00 02 d0 	.long 0x2d0
    18c8:	00 00 02 c0 	.long 0x2c0
    18cc:	00 00 02 c8 	.long 0x2c8
    18d0:	00 00 02 d0 	.long 0x2d0
    18d4:	00 00 02 d8 	.long 0x2d8
    18d8:	00 00 02 e8 	.long 0x2e8
    18dc:	00 00 02 e0 	.long 0x2e0
    18e0:	38 84 00 08 	addi    r4,r4,8
    18e4:	80 7e 00 30 	lwz     r3,48(r30)
    18e8:	78 84 00 20 	clrldi  r4,r4,32
    18ec:	48 00 33 4d 	bl      0x4c38
    18f0:	e8 41 00 28 	ld      r2,40(r1)
    18f4:	2f 83 00 00 	cmpwi   cr7,r3,0
    18f8:	40 9e ff 54 	bne+    cr7,0x184c
    18fc:	38 60 00 00 	li      r3,0
    1900:	e8 01 00 a0 	ld      r0,160(r1)
    1904:	7c 63 07 b4 	extsw   r3,r3
    1908:	eb a1 00 78 	ld      r29,120(r1)
    190c:	eb c1 00 80 	ld      r30,128(r1)
    1910:	7c 08 03 a6 	mtlr    r0
    1914:	eb e1 00 88 	ld      r31,136(r1)
    1918:	38 21 00 90 	addi    r1,r1,144
    191c:	4e 80 00 20 	blr
    1920:	38 84 00 08 	addi    r4,r4,8
    1924:	80 7e 00 30 	lwz     r3,48(r30)
    1928:	78 84 00 20 	clrldi  r4,r4,32
    192c:	48 00 31 ad 	bl      0x4ad8
    1930:	e8 41 00 28 	ld      r2,40(r1)
    1934:	2f 83 00 00 	cmpwi   cr7,r3,0
    1938:	40 9e ff 14 	bne+    cr7,0x184c
    193c:	38 60 00 00 	li      r3,0
    1940:	4b ff ff c0 	b       0x1900
    1944:	38 84 00 08 	addi    r4,r4,8
    1948:	80 7e 00 30 	lwz     r3,48(r30)
    194c:	78 84 00 20 	clrldi  r4,r4,32
    1950:	48 00 32 09 	bl      0x4b58
    1954:	e8 41 00 28 	ld      r2,40(r1)
    1958:	2f 83 00 00 	cmpwi   cr7,r3,0
    195c:	40 9e fe f0 	bne+    cr7,0x184c
    1960:	38 60 00 00 	li      r3,0
    1964:	4b ff ff 9c 	b       0x1900
    1968:	38 84 00 08 	addi    r4,r4,8
    196c:	80 7e 00 30 	lwz     r3,48(r30)
    1970:	78 84 00 20 	clrldi  r4,r4,32
    1974:	48 00 32 65 	bl      0x4bd8
    1978:	e8 41 00 28 	ld      r2,40(r1)
    197c:	2f 83 00 00 	cmpwi   cr7,r3,0
    1980:	40 9e fe cc 	bne+    cr7,0x184c
    1984:	38 60 00 00 	li      r3,0
    1988:	4b ff ff 78 	b       0x1900
    198c:	38 84 00 08 	addi    r4,r4,8
    1990:	80 7e 00 30 	lwz     r3,48(r30)
    1994:	78 84 00 20 	clrldi  r4,r4,32
    1998:	48 00 32 01 	bl      0x4b98
    199c:	e8 41 00 28 	ld      r2,40(r1)
    19a0:	2f 83 00 00 	cmpwi   cr7,r3,0
    19a4:	40 9e fe a8 	bne+    cr7,0x184c
    19a8:	38 60 00 00 	li      r3,0
    19ac:	4b ff ff 54 	b       0x1900
    19b0:	38 84 00 08 	addi    r4,r4,8
    19b4:	80 7e 00 30 	lwz     r3,48(r30)
    19b8:	78 84 00 20 	clrldi  r4,r4,32
    19bc:	48 00 31 bd 	bl      0x4b78
    19c0:	e8 41 00 28 	ld      r2,40(r1)
    19c4:	2f 83 00 00 	cmpwi   cr7,r3,0
    19c8:	40 9e fe 84 	bne+    cr7,0x184c
    19cc:	38 60 00 00 	li      r3,0
    19d0:	4b ff ff 30 	b       0x1900
    19d4:	38 84 00 08 	addi    r4,r4,8
    19d8:	80 7e 00 30 	lwz     r3,48(r30)
    19dc:	78 84 00 20 	clrldi  r4,r4,32
    19e0:	48 00 31 19 	bl      0x4af8
    19e4:	e8 41 00 28 	ld      r2,40(r1)
    19e8:	2f 83 00 00 	cmpwi   cr7,r3,0
    19ec:	40 9e fe 60 	bne+    cr7,0x184c
    19f0:	38 60 00 00 	li      r3,0
    19f4:	4b ff ff 0c 	b       0x1900
    19f8:	38 84 00 08 	addi    r4,r4,8
    19fc:	80 7e 00 30 	lwz     r3,48(r30)
    1a00:	78 84 00 20 	clrldi  r4,r4,32
    1a04:	48 00 32 15 	bl      0x4c18
    1a08:	e8 41 00 28 	ld      r2,40(r1)
    1a0c:	2f 83 00 00 	cmpwi   cr7,r3,0
    1a10:	40 9e fe 3c 	bne+    cr7,0x184c
    1a14:	38 60 00 00 	li      r3,0
    1a18:	4b ff fe e8 	b       0x1900
    1a1c:	38 84 00 08 	addi    r4,r4,8
    1a20:	80 7e 00 30 	lwz     r3,48(r30)
    1a24:	78 84 00 20 	clrldi  r4,r4,32
    1a28:	48 00 31 d1 	bl      0x4bf8
    1a2c:	e8 41 00 28 	ld      r2,40(r1)
    1a30:	2f 83 00 00 	cmpwi   cr7,r3,0
    1a34:	40 9e fe 18 	bne+    cr7,0x184c
    1a38:	38 60 00 00 	li      r3,0
    1a3c:	4b ff fe c4 	b       0x1900
    1a40:	38 84 00 08 	addi    r4,r4,8
    1a44:	80 7e 00 30 	lwz     r3,48(r30)
    1a48:	78 84 00 20 	clrldi  r4,r4,32
    1a4c:	48 00 30 cd 	bl      0x4b18
    1a50:	e8 41 00 28 	ld      r2,40(r1)
    1a54:	2f 83 00 00 	cmpwi   cr7,r3,0
    1a58:	40 9e fd f4 	bne+    cr7,0x184c
    1a5c:	38 60 00 00 	li      r3,0
    1a60:	4b ff fe a0 	b       0x1900
    1a64:	38 84 00 08 	addi    r4,r4,8
    1a68:	80 7e 00 30 	lwz     r3,48(r30)
    1a6c:	78 84 00 20 	clrldi  r4,r4,32
    1a70:	48 00 30 49 	bl      0x4ab8
    1a74:	e8 41 00 28 	ld      r2,40(r1)
    1a78:	2f 83 00 00 	cmpwi   cr7,r3,0
    1a7c:	40 9e fd d0 	bne+    cr7,0x184c
    1a80:	38 60 00 00 	li      r3,0
    1a84:	4b ff fe 7c 	b       0x1900
    1a88:	38 84 00 08 	addi    r4,r4,8
    1a8c:	80 7e 00 30 	lwz     r3,48(r30)
    1a90:	78 84 00 20 	clrldi  r4,r4,32
    1a94:	48 00 2f e5 	bl      0x4a78
    1a98:	e8 41 00 28 	ld      r2,40(r1)
    1a9c:	2f 83 00 00 	cmpwi   cr7,r3,0
    1aa0:	40 9e fd ac 	bne+    cr7,0x184c
    1aa4:	38 60 00 00 	li      r3,0
    1aa8:	4b ff fe 58 	b       0x1900
    1aac:	38 84 00 08 	addi    r4,r4,8
    1ab0:	80 7e 00 30 	lwz     r3,48(r30)
    1ab4:	78 84 00 20 	clrldi  r4,r4,32
    1ab8:	48 00 2f a1 	bl      0x4a58
    1abc:	e8 41 00 28 	ld      r2,40(r1)
    1ac0:	2f 83 00 00 	cmpwi   cr7,r3,0
    1ac4:	40 9e fd 88 	bne+    cr7,0x184c
    1ac8:	38 60 00 00 	li      r3,0
    1acc:	4b ff fe 34 	b       0x1900
    1ad0:	38 84 00 08 	addi    r4,r4,8
    1ad4:	80 7e 00 30 	lwz     r3,48(r30)
    1ad8:	78 84 00 20 	clrldi  r4,r4,32
    1adc:	48 00 2f 3d 	bl      0x4a18
    1ae0:	e8 41 00 28 	ld      r2,40(r1)
    1ae4:	2f 83 00 00 	cmpwi   cr7,r3,0
    1ae8:	40 9e fd 64 	bne+    cr7,0x184c
    1aec:	38 60 00 00 	li      r3,0
    1af0:	4b ff fe 10 	b       0x1900
    1af4:	2f 8a 00 10 	cmpwi   cr7,r10,16
    1af8:	41 9e 00 bc 	beq-    cr7,0x1bb4
    1afc:	2f 8a 00 14 	cmpwi   cr7,r10,20
    1b00:	41 9e 00 d8 	beq-    cr7,0x1bd8
    1b04:	2f 8a 00 18 	cmpwi   cr7,r10,24
    1b08:	40 9e fd f4 	bne+    cr7,0x18fc
    1b0c:	38 84 00 08 	addi    r4,r4,8
    1b10:	80 7e 00 30 	lwz     r3,48(r30)
    1b14:	78 84 00 20 	clrldi  r4,r4,32
    1b18:	48 00 30 a1 	bl      0x4bb8
    1b1c:	e8 41 00 28 	ld      r2,40(r1)
    1b20:	2f 83 00 00 	cmpwi   cr7,r3,0
    1b24:	40 9e fd 28 	bne+    cr7,0x184c
    1b28:	38 60 00 00 	li      r3,0
    1b2c:	4b ff fd d4 	b       0x1900
    1b30:	38 84 00 08 	addi    r4,r4,8
    1b34:	80 7e 00 30 	lwz     r3,48(r30)
    1b38:	78 84 00 20 	clrldi  r4,r4,32
    1b3c:	48 00 2e fd 	bl      0x4a38
    1b40:	e8 41 00 28 	ld      r2,40(r1)
    1b44:	2f 83 00 00 	cmpwi   cr7,r3,0
    1b48:	40 9e fd 04 	bne+    cr7,0x184c
    1b4c:	38 60 00 00 	li      r3,0
    1b50:	4b ff fd b0 	b       0x1900
    1b54:	81 1e 00 3c 	lwz     r8,60(r30)
    1b58:	2f 88 ff ff 	cmpwi   cr7,r8,-1
    1b5c:	40 9e fd 34 	bne+    cr7,0x1890
    1b60:	38 60 00 00 	li      r3,0
    1b64:	4b ff fd 9c 	b       0x1900
    1b68:	38 00 00 96 	li      r0,150
    1b6c:	4b ff fc a8 	b       0x1814
    1b70:	38 00 0f 00 	li      r0,3840
    1b74:	4b ff fc a0 	b       0x1814
    1b78:	38 00 16 80 	li      r0,5760
    1b7c:	4b ff fc 98 	b       0x1814
    1b80:	38 00 0b 40 	li      r0,2880
    1b84:	4b ff fc 90 	b       0x1814
    1b88:	38 00 10 54 	li      r0,4180
    1b8c:	4b ff fc 88 	b       0x1814
    1b90:	38 00 08 70 	li      r0,2160
    1b94:	4b ff fc 80 	b       0x1814
    1b98:	38 00 0c a8 	li      r0,3240
    1b9c:	4b ff fc 78 	b       0x1814
    1ba0:	38 00 09 2f 	li      r0,2351
    1ba4:	4b ff fc 70 	b       0x1814
    1ba8:	38 00 00 00 	li      r0,0
    1bac:	90 04 00 08 	stw     r0,8(r4)
    1bb0:	4b ff fb b0 	b       0x1760
    1bb4:	38 84 00 08 	addi    r4,r4,8
    1bb8:	80 7e 00 30 	lwz     r3,48(r30)
    1bbc:	78 84 00 20 	clrldi  r4,r4,32
    1bc0:	48 00 2e d9 	bl      0x4a98
    1bc4:	e8 41 00 28 	ld      r2,40(r1)
    1bc8:	2f 83 00 00 	cmpwi   cr7,r3,0
    1bcc:	40 9e fc 80 	bne+    cr7,0x184c
    1bd0:	38 60 00 00 	li      r3,0
    1bd4:	4b ff fd 2c 	b       0x1900
    1bd8:	38 84 00 08 	addi    r4,r4,8
    1bdc:	80 7e 00 30 	lwz     r3,48(r30)
    1be0:	78 84 00 20 	clrldi  r4,r4,32
    1be4:	48 00 2f 55 	bl      0x4b38
    1be8:	e8 41 00 28 	ld      r2,40(r1)
    1bec:	2f 83 00 00 	cmpwi   cr7,r3,0
    1bf0:	40 9e fc 5c 	bne+    cr7,0x184c
    1bf4:	38 60 00 00 	li      r3,0
    1bf8:	4b ff fd 08 	b       0x1900
    1bfc:	f8 21 ff 61 	stdu    r1,-160(r1)
    1c00:	7c 08 02 a6 	mflr    r0
    1c04:	fb c1 00 90 	std     r30,144(r1)
    1c08:	f8 01 00 b0 	std     r0,176(r1)
    1c0c:	fb e1 00 98 	std     r31,152(r1)
    1c10:	7c 9e 23 78 	mr      r30,r4
    1c14:	7c 7f 1b 78 	mr      r31,r3
    1c18:	80 63 00 80 	lwz     r3,128(r3)
    1c1c:	fb 61 00 78 	std     r27,120(r1)
    1c20:	fb 81 00 80 	std     r28,128(r1)
    1c24:	fb a1 00 88 	std     r29,136(r1)
    1c28:	38 80 00 00 	li      r4,0
    1c2c:	39 60 00 66 	li      r11,102
    1c30:	44 00 00 02 	sc      
    1c34:	3f 60 80 61 	lis     r27,-32671
    1c38:	7f e3 fb 78 	mr      r3,r31
    1c3c:	7f c4 07 b4 	extsw   r4,r30
    1c40:	63 7b 00 01 	ori     r27,r27,1
    1c44:	4b ff f6 11 	bl      0x1254
    1c48:	7f 9b 18 00 	cmpw    cr7,r27,r3
    1c4c:	7c 7d 1b 78 	mr      r29,r3
    1c50:	41 de 00 c0 	beq-    cr7,0x1d10
    1c54:	81 5f 00 4c 	lwz     r10,76(r31)
    1c58:	81 1f 00 50 	lwz     r8,80(r31)
    1c5c:	2f 8a ff ff 	cmpwi   cr7,r10,-1
    1c60:	41 9e 00 70 	beq-    cr7,0x1cd0
    1c64:	80 1f 00 48 	lwz     r0,72(r31)
    1c68:	2f 80 ff ff 	cmpwi   cr7,r0,-1
    1c6c:	41 de 00 90 	beq-    cr7,0x1cfc
    1c70:	1d 3e 00 68 	mulli   r9,r30,104
    1c74:	7d 28 4a 14 	add     r9,r8,r9
    1c78:	1d 6a 00 68 	mulli   r11,r10,104
    1c7c:	7d 6b 42 14 	add     r11,r11,r8
    1c80:	79 29 00 20 	clrldi  r9,r9,32
    1c84:	79 6b 00 20 	clrldi  r11,r11,32
    1c88:	91 49 00 64 	stw     r10,100(r9)
    1c8c:	93 cb 00 60 	stw     r30,96(r11)
    1c90:	93 c9 00 60 	stw     r30,96(r9)
    1c94:	93 df 00 4c 	stw     r30,76(r31)
    1c98:	80 7f 00 80 	lwz     r3,128(r31)
    1c9c:	39 60 00 68 	li      r11,104
    1ca0:	44 00 00 02 	sc      
    1ca4:	38 60 00 00 	li      r3,0
    1ca8:	e8 01 00 b0 	ld      r0,176(r1)
    1cac:	7c 63 07 b4 	extsw   r3,r3
    1cb0:	eb 61 00 78 	ld      r27,120(r1)
    1cb4:	eb 81 00 80 	ld      r28,128(r1)
    1cb8:	7c 08 03 a6 	mtlr    r0
    1cbc:	eb a1 00 88 	ld      r29,136(r1)
    1cc0:	eb c1 00 90 	ld      r30,144(r1)
    1cc4:	eb e1 00 98 	ld      r31,152(r1)
    1cc8:	38 21 00 a0 	addi    r1,r1,160
    1ccc:	4e 80 00 20 	blr
    1cd0:	80 1f 00 48 	lwz     r0,72(r31)
    1cd4:	2f 80 ff ff 	cmpwi   cr7,r0,-1
    1cd8:	40 9e 00 24 	bne-    cr7,0x1cfc
    1cdc:	1d 3e 00 68 	mulli   r9,r30,104
    1ce0:	7d 28 4a 14 	add     r9,r8,r9
    1ce4:	79 29 00 20 	clrldi  r9,r9,32
    1ce8:	93 c9 00 60 	stw     r30,96(r9)
    1cec:	93 c9 00 64 	stw     r30,100(r9)
    1cf0:	93 df 00 4c 	stw     r30,76(r31)
    1cf4:	93 df 00 48 	stw     r30,72(r31)
    1cf8:	4b ff ff a0 	b       0x1c98
    1cfc:	80 7f 00 80 	lwz     r3,128(r31)
    1d00:	39 60 00 68 	li      r11,104
    1d04:	44 00 00 02 	sc      
    1d08:	7f 63 db 78 	mr      r3,r27
    1d0c:	4b ff ff 9c 	b       0x1ca8
    1d10:	80 7f 00 80 	lwz     r3,128(r31)
    1d14:	39 60 00 68 	li      r11,104
    1d18:	44 00 00 02 	sc      
    1d1c:	7f a3 eb 78 	mr      r3,r29
    1d20:	4b ff ff 88 	b       0x1ca8
    1d24:	f8 21 ff 71 	stdu    r1,-144(r1)
    1d28:	7c 08 02 a6 	mflr    r0
    1d2c:	fb c1 00 80 	std     r30,128(r1)
    1d30:	f8 01 00 a0 	std     r0,160(r1)
    1d34:	fb e1 00 88 	std     r31,136(r1)
    1d38:	7c 9e 23 78 	mr      r30,r4
    1d3c:	7c 7f 1b 78 	mr      r31,r3
    1d40:	80 63 00 80 	lwz     r3,128(r3)
    1d44:	fb 81 00 70 	std     r28,112(r1)
    1d48:	fb a1 00 78 	std     r29,120(r1)
    1d4c:	38 80 00 00 	li      r4,0
    1d50:	39 60 00 66 	li      r11,102
    1d54:	44 00 00 02 	sc      
    1d58:	3f 80 80 61 	lis     r28,-32671
    1d5c:	7f e3 fb 78 	mr      r3,r31
    1d60:	7f c4 07 b4 	extsw   r4,r30
    1d64:	63 9c 00 01 	ori     r28,r28,1
    1d68:	4b ff f4 ed 	bl      0x1254
    1d6c:	7f 9c 18 00 	cmpw    cr7,r28,r3
    1d70:	7c 7d 1b 78 	mr      r29,r3
    1d74:	41 de 01 4c 	beq-    cr7,0x1ec0
    1d78:	81 3f 00 48 	lwz     r9,72(r31)
    1d7c:	39 60 ff ff 	li      r11,-1
    1d80:	2f 89 ff ff 	cmpwi   cr7,r9,-1
    1d84:	41 9e 00 a0 	beq-    cr7,0x1e24
    1d88:	80 9f 00 4c 	lwz     r4,76(r31)
    1d8c:	2f 84 ff ff 	cmpwi   cr7,r4,-1
    1d90:	41 9e 00 a0 	beq-    cr7,0x1e30
    1d94:	81 5f 00 50 	lwz     r10,80(r31)
    1d98:	7f 89 20 00 	cmpw    cr7,r9,r4
    1d9c:	1c 1e 00 68 	mulli   r0,r30,104
    1da0:	7c 0a 02 14 	add     r0,r10,r0
    1da4:	78 08 00 20 	clrldi  r8,r0,32
    1da8:	80 c8 00 64 	lwz     r6,100(r8)
    1dac:	80 e8 00 60 	lwz     r7,96(r8)
    1db0:	41 9e 00 d0 	beq-    cr7,0x1e80
    1db4:	7f 9e 48 00 	cmpw    cr7,r30,r9
    1db8:	41 9e 00 dc 	beq-    cr7,0x1e94
    1dbc:	7f 9e 20 00 	cmpw    cr7,r30,r4
    1dc0:	41 9e 00 a8 	beq-    cr7,0x1e68
    1dc4:	1d 27 00 68 	mulli   r9,r7,104
    1dc8:	7d 29 52 14 	add     r9,r9,r10
    1dcc:	1d 66 00 68 	mulli   r11,r6,104
    1dd0:	7d 6b 52 14 	add     r11,r11,r10
    1dd4:	79 29 00 20 	clrldi  r9,r9,32
    1dd8:	79 6b 00 20 	clrldi  r11,r11,32
    1ddc:	90 c9 00 64 	stw     r6,100(r9)
    1de0:	90 eb 00 60 	stw     r7,96(r11)
    1de4:	38 00 ff ff 	li      r0,-1
    1de8:	39 60 00 68 	li      r11,104
    1dec:	90 08 00 60 	stw     r0,96(r8)
    1df0:	90 08 00 64 	stw     r0,100(r8)
    1df4:	80 7f 00 80 	lwz     r3,128(r31)
    1df8:	44 00 00 02 	sc      
    1dfc:	38 60 00 00 	li      r3,0
    1e00:	e8 01 00 a0 	ld      r0,160(r1)
    1e04:	eb 81 00 70 	ld      r28,112(r1)
    1e08:	7c 63 07 b4 	extsw   r3,r3
    1e0c:	eb a1 00 78 	ld      r29,120(r1)
    1e10:	eb c1 00 80 	ld      r30,128(r1)
    1e14:	7c 08 03 a6 	mtlr    r0
    1e18:	eb e1 00 88 	ld      r31,136(r1)
    1e1c:	38 21 00 90 	addi    r1,r1,144
    1e20:	4e 80 00 20 	blr
    1e24:	80 1f 00 4c 	lwz     r0,76(r31)
    1e28:	2f 80 ff ff 	cmpwi   cr7,r0,-1
    1e2c:	41 de 00 80 	beq-    cr7,0x1eac
    1e30:	80 7f 00 80 	lwz     r3,128(r31)
    1e34:	39 60 00 68 	li      r11,104
    1e38:	44 00 00 02 	sc      
    1e3c:	3c 60 80 61 	lis     r3,-32671
    1e40:	60 63 00 01 	ori     r3,r3,1
    1e44:	e8 01 00 a0 	ld      r0,160(r1)
    1e48:	7c 63 07 b4 	extsw   r3,r3
    1e4c:	eb 81 00 70 	ld      r28,112(r1)
    1e50:	eb a1 00 78 	ld      r29,120(r1)
    1e54:	7c 08 03 a6 	mtlr    r0
    1e58:	eb c1 00 80 	ld      r30,128(r1)
    1e5c:	eb e1 00 88 	ld      r31,136(r1)
    1e60:	38 21 00 90 	addi    r1,r1,144
    1e64:	4e 80 00 20 	blr
    1e68:	90 df 00 4c 	stw     r6,76(r31)
    1e6c:	1d 26 00 68 	mulli   r9,r6,104
    1e70:	7d 29 52 14 	add     r9,r9,r10
    1e74:	79 29 00 20 	clrldi  r9,r9,32
    1e78:	90 c9 00 60 	stw     r6,96(r9)
    1e7c:	4b ff ff 68 	b       0x1de4
    1e80:	7f 9e 20 00 	cmpw    cr7,r30,r4
    1e84:	40 9e 00 28 	bne-    cr7,0x1eac
    1e88:	91 7f 00 4c 	stw     r11,76(r31)
    1e8c:	91 7f 00 48 	stw     r11,72(r31)
    1e90:	4b ff ff 54 	b       0x1de4
    1e94:	90 ff 00 48 	stw     r7,72(r31)
    1e98:	1d 27 00 68 	mulli   r9,r7,104
    1e9c:	7d 29 52 14 	add     r9,r9,r10
    1ea0:	79 29 00 20 	clrldi  r9,r9,32
    1ea4:	90 e9 00 64 	stw     r7,100(r9)
    1ea8:	4b ff ff 3c 	b       0x1de4
    1eac:	80 7f 00 80 	lwz     r3,128(r31)
    1eb0:	39 60 00 68 	li      r11,104
    1eb4:	44 00 00 02 	sc      
    1eb8:	7f 83 e3 78 	mr      r3,r28
    1ebc:	4b ff ff 88 	b       0x1e44
    1ec0:	80 7f 00 80 	lwz     r3,128(r31)
    1ec4:	39 60 00 68 	li      r11,104
    1ec8:	44 00 00 02 	sc      
    1ecc:	7f a3 eb 78 	mr      r3,r29
    1ed0:	4b ff ff 74 	b       0x1e44
    1ed4:	fb 81 ff e0 	std     r28,-32(r1)
    1ed8:	7c 08 02 a6 	mflr    r0
    1edc:	fb c1 ff f0 	std     r30,-16(r1)
    1ee0:	f8 01 00 10 	std     r0,16(r1)
    1ee4:	fb e1 ff f8 	std     r31,-8(r1)
    1ee8:	7c 7e 1b 78 	mr      r30,r3
    1eec:	83 83 01 04 	lwz     r28,260(r3)
    1ef0:	7c 9f 23 78 	mr      r31,r4
    1ef4:	80 63 01 50 	lwz     r3,336(r3)
    1ef8:	fb a1 ff e8 	std     r29,-24(r1)
    1efc:	38 80 00 00 	li      r4,0
    1f00:	39 60 00 66 	li      r11,102
    1f04:	44 00 00 02 	sc      
    1f08:	2f 83 00 00 	cmpwi   cr7,r3,0
    1f0c:	40 9e 00 cc 	bne-    cr7,0x1fd8
    1f10:	81 3e 00 b4 	lwz     r9,180(r30)
    1f14:	7b 84 00 20 	clrldi  r4,r28,32
    1f18:	39 60 00 68 	li      r11,104
    1f1c:	38 09 00 01 	addi    r0,r9,1
    1f20:	1d 29 00 2c 	mulli   r9,r9,44
    1f24:	7d 25 07 b4 	extsw   r5,r9
    1f28:	54 03 07 be 	clrlwi  r3,r0,30
    1f2c:	7c de 2a 14 	add     r6,r30,r5
    1f30:	7c 1e 28 2e 	lwzx    r0,r30,r5
    1f34:	2f 80 00 ff 	cmpwi   cr7,r0,255
    1f38:	40 9e 00 c0 	bne-    cr7,0x1ff8
    1f3c:	80 1f 00 00 	lwz     r0,0(r31)
    1f40:	39 60 00 68 	li      r11,104
    1f44:	81 3f 00 04 	lwz     r9,4(r31)
    1f48:	81 5f 00 08 	lwz     r10,8(r31)
    1f4c:	81 1f 00 0c 	lwz     r8,12(r31)
    1f50:	7c 1e 29 2e 	stwx    r0,r30,r5
    1f54:	91 26 00 04 	stw     r9,4(r6)
    1f58:	91 46 00 08 	stw     r10,8(r6)
    1f5c:	91 06 00 0c 	stw     r8,12(r6)
    1f60:	81 3f 00 14 	lwz     r9,20(r31)
    1f64:	81 5f 00 18 	lwz     r10,24(r31)
    1f68:	81 1f 00 1c 	lwz     r8,28(r31)
    1f6c:	80 1f 00 10 	lwz     r0,16(r31)
    1f70:	80 fe 00 b8 	lwz     r7,184(r30)
    1f74:	91 26 00 14 	stw     r9,20(r6)
    1f78:	90 06 00 10 	stw     r0,16(r6)
    1f7c:	91 46 00 18 	stw     r10,24(r6)
    1f80:	91 06 00 1c 	stw     r8,28(r6)
    1f84:	81 3f 00 20 	lwz     r9,32(r31)
    1f88:	38 e7 00 01 	addi    r7,r7,1
    1f8c:	81 5f 00 24 	lwz     r10,36(r31)
    1f90:	80 1f 00 28 	lwz     r0,40(r31)
    1f94:	90 7e 00 b4 	stw     r3,180(r30)
    1f98:	91 26 00 20 	stw     r9,32(r6)
    1f9c:	90 06 00 28 	stw     r0,40(r6)
    1fa0:	91 46 00 24 	stw     r10,36(r6)
    1fa4:	90 fe 00 b8 	stw     r7,184(r30)
    1fa8:	80 04 00 00 	lwz     r0,0(r4)
    1fac:	81 04 00 0c 	lwz     r8,12(r4)
    1fb0:	81 24 00 04 	lwz     r9,4(r4)
    1fb4:	81 44 00 08 	lwz     r10,8(r4)
    1fb8:	90 1f 00 14 	stw     r0,20(r31)
    1fbc:	91 3f 00 18 	stw     r9,24(r31)
    1fc0:	91 5f 00 1c 	stw     r10,28(r31)
    1fc4:	91 1f 00 20 	stw     r8,32(r31)
    1fc8:	80 1e 01 84 	lwz     r0,388(r30)
    1fcc:	90 1f 00 28 	stw     r0,40(r31)
    1fd0:	80 7e 01 50 	lwz     r3,336(r30)
    1fd4:	44 00 00 02 	sc      
    1fd8:	e8 01 00 10 	ld      r0,16(r1)
    1fdc:	7c 63 07 b4 	extsw   r3,r3
    1fe0:	eb 81 ff e0 	ld      r28,-32(r1)
    1fe4:	7c 08 03 a6 	mtlr    r0
    1fe8:	eb a1 ff e8 	ld      r29,-24(r1)
    1fec:	eb c1 ff f0 	ld      r30,-16(r1)
    1ff0:	eb e1 ff f8 	ld      r31,-8(r1)
    1ff4:	4e 80 00 20 	blr
    1ff8:	80 7e 01 50 	lwz     r3,336(r30)
    1ffc:	44 00 00 02 	sc      
    2000:	2f 83 00 00 	cmpwi   cr7,r3,0
    2004:	40 9e ff d4 	bne+    cr7,0x1fd8
    2008:	3c 60 80 61 	lis     r3,-32671
    200c:	60 63 00 01 	ori     r3,r3,1
    2010:	4b ff ff c8 	b       0x1fd8
    2014:	7c 6b 1b 78 	mr      r11,r3
    2018:	7c 08 02 a6 	mflr    r0
    201c:	f8 21 ff 91 	stdu    r1,-112(r1)
    2020:	f8 01 00 80 	std     r0,128(r1)
    2024:	3c 60 80 61 	lis     r3,-32671
    2028:	80 0b 00 f4 	lwz     r0,244(r11)
    202c:	60 63 20 03 	ori     r3,r3,8195
    2030:	2f 80 00 00 	cmpwi   cr7,r0,0
    2034:	78 09 00 20 	clrldi  r9,r0,32
    2038:	41 9e 00 24 	beq-    cr7,0x205c
    203c:	80 09 00 00 	lwz     r0,0(r9)
    2040:	80 6b 00 f8 	lwz     r3,248(r11)
    2044:	f8 41 00 28 	std     r2,40(r1)
    2048:	7c 09 03 a6 	mtctr   r0
    204c:	80 49 00 04 	lwz     r2,4(r9)
    2050:	4e 80 04 21 	bctrl
    2054:	e8 41 00 28 	ld      r2,40(r1)
    2058:	38 60 00 00 	li      r3,0
    205c:	e8 01 00 80 	ld      r0,128(r1)
    2060:	7c 63 07 b4 	extsw   r3,r3
    2064:	38 21 00 70 	addi    r1,r1,112
    2068:	7c 08 03 a6 	mtlr    r0
    206c:	4e 80 00 20 	blr
    2070:	78 63 00 20 	clrldi  r3,r3,32
    2074:	38 00 00 23 	li      r0,35
    2078:	39 20 00 03 	li      r9,3
    207c:	98 03 00 03 	stb     r0,3(r3)
    2080:	99 23 00 02 	stb     r9,2(r3)
    2084:	38 00 00 07 	li      r0,7
    2088:	39 20 00 20 	li      r9,32
    208c:	98 03 00 01 	stb     r0,1(r3)
    2090:	99 23 00 00 	stb     r9,0(r3)
    2094:	4e 80 00 20 	blr
    2098:	fb e1 ff f8 	std     r31,-8(r1)
    209c:	7c 08 02 a6 	mflr    r0
    20a0:	7c 7f 1b 78 	mr      r31,r3
    20a4:	f8 01 00 10 	std     r0,16(r1)
    20a8:	38 80 00 00 	li      r4,0
    20ac:	80 63 01 30 	lwz     r3,304(r3)
    20b0:	39 60 00 66 	li      r11,102
    20b4:	44 00 00 02 	sc      
    20b8:	2f 83 00 00 	cmpwi   cr7,r3,0
    20bc:	7c 60 1b 78 	mr      r0,r3
    20c0:	39 60 00 6c 	li      r11,108
    20c4:	40 9e 00 24 	bne-    cr7,0x20e8
    20c8:	90 1f 00 fc 	stw     r0,252(r31)
    20cc:	80 7f 01 34 	lwz     r3,308(r31)
    20d0:	44 00 00 02 	sc      
    20d4:	2f 83 00 00 	cmpwi   cr7,r3,0
    20d8:	39 60 00 68 	li      r11,104
    20dc:	40 9e 00 0c 	bne-    cr7,0x20e8
    20e0:	80 7f 01 30 	lwz     r3,304(r31)
    20e4:	44 00 00 02 	sc      
    20e8:	e8 01 00 10 	ld      r0,16(r1)
    20ec:	7c 63 07 b4 	extsw   r3,r3
    20f0:	eb e1 ff f8 	ld      r31,-8(r1)
    20f4:	7c 08 03 a6 	mtlr    r0
    20f8:	4e 80 00 20 	blr
    20fc:	38 60 00 08 	li      r3,8
    2100:	4e 80 00 20 	blr
    2104:	38 60 00 0c 	li      r3,12
    2108:	4e 80 00 20 	blr
    210c:	e9 04 00 10 	ld      r8,16(r4)
    2110:	80 e3 01 04 	lwz     r7,260(r3)
    2114:	79 09 06 22 	rldicl  r9,r8,32,56
    2118:	79 0b 86 20 	rldicl  r11,r8,16,56
    211c:	2b 89 00 0b 	cmplwi  cr7,r9,11
    2120:	79 00 c6 20 	rldicl  r0,r8,24,56
    2124:	91 67 00 08 	stw     r11,8(r7)
    2128:	90 07 00 04 	stw     r0,4(r7)
    212c:	91 27 00 00 	stw     r9,0(r7)
    2130:	7d 66 5b 78 	mr      r6,r11
    2134:	41 9d 00 8c 	bgt-    cr7,0x21c0
    2138:	81 62 80 20 	lwz     r11,-32736(r2)
    213c:	55 29 15 ba 	rlwinm  r9,r9,2,22,29
    2140:	7c 09 58 2e 	lwzx    r0,r9,r11
    2144:	7c 00 07 b4 	extsw   r0,r0
    2148:	7c 00 5a 14 	add     r0,r0,r11
    214c:	7c 09 03 a6 	mtctr   r0
    2150:	4e 80 04 20 	bctr
    2154:	00 00 00 6c 	.long 0x6c
    2158:	00 00 00 30 	.long 0x30
    215c:	00 00 00 6c 	.long 0x6c
    2160:	00 00 00 30 	.long 0x30
    2164:	00 00 00 9c 	.long 0x9c
    2168:	00 00 00 9c 	.long 0x9c
    216c:	00 00 00 9c 	.long 0x9c
    2170:	00 00 00 9c 	.long 0x9c
    2174:	00 00 00 94 	.long 0x94
    2178:	00 00 00 94 	.long 0x94
    217c:	00 00 00 7c 	.long 0x7c
    2180:	00 00 00 7c 	.long 0x7c
    2184:	39 40 00 02 	li      r10,2
    2188:	80 07 00 04 	lwz     r0,4(r7)
    218c:	2f 80 00 03 	cmpwi   cr7,r0,3
    2190:	41 9e 00 50 	beq-    cr7,0x21e0
    2194:	2f 80 00 04 	cmpwi   cr7,r0,4
    2198:	41 9e 00 60 	beq-    cr7,0x21f8
    219c:	2f 80 00 01 	cmpwi   cr7,r0,1
    21a0:	40 9e 00 20 	bne-    cr7,0x21c0
    21a4:	39 20 00 30 	li      r9,48
    21a8:	2f 86 00 01 	cmpwi   cr7,r6,1
    21ac:	41 9e 00 54 	beq-    cr7,0x2200
    21b0:	2b 86 00 01 	cmplwi  cr7,r6,1
    21b4:	41 9c 00 0c 	blt-    cr7,0x21c0
    21b8:	2b 86 00 03 	cmplwi  cr7,r6,3
    21bc:	40 9d 00 78 	ble-    cr7,0x2234
    21c0:	3c 60 80 61 	lis     r3,-32671
    21c4:	60 63 00 01 	ori     r3,r3,1
    21c8:	7c 63 07 b4 	extsw   r3,r3
    21cc:	4e 80 00 20 	blr
    21d0:	80 07 00 04 	lwz     r0,4(r7)
    21d4:	39 40 00 08 	li      r10,8
    21d8:	2f 80 00 03 	cmpwi   cr7,r0,3
    21dc:	40 9e ff b8 	bne+    cr7,0x2194
    21e0:	39 20 00 60 	li      r9,96
    21e4:	4b ff ff c4 	b       0x21a8
    21e8:	39 40 00 06 	li      r10,6
    21ec:	4b ff ff 9c 	b       0x2188
    21f0:	39 40 00 04 	li      r10,4
    21f4:	4b ff ff 94 	b       0x2188
    21f8:	39 20 00 c0 	li      r9,192
    21fc:	4b ff ff ac 	b       0x21a8
    2200:	38 c0 00 10 	li      r6,16
    2204:	55 40 10 3a 	rlwinm  r0,r10,2,0,29
    2208:	79 0b 46 20 	rldicl  r11,r8,8,56
    220c:	7c 00 52 14 	add     r0,r0,r10
    2210:	38 60 00 00 	li      r3,0
    2214:	7d 29 31 d6 	mullw   r9,r9,r6
    2218:	7c 63 07 b4 	extsw   r3,r3
    221c:	7d 29 01 d6 	mullw   r9,r9,r0
    2220:	7d 29 1e 70 	srawi   r9,r9,3
    2224:	7d 29 01 94 	addze   r9,r9
    2228:	7d 29 59 d6 	mullw   r9,r9,r11
    222c:	91 27 00 0c 	stw     r9,12(r7)
    2230:	4e 80 00 20 	blr
    2234:	38 c0 00 18 	li      r6,24
    2238:	4b ff ff cc 	b       0x2204
    223c:	e8 e4 00 10 	ld      r7,16(r4)
    2240:	81 03 01 04 	lwz     r8,260(r3)
    2244:	78 e9 c6 20 	rldicl  r9,r7,24,56
    2248:	78 eb 86 20 	rldicl  r11,r7,16,56
    224c:	2f 89 00 01 	cmpwi   cr7,r9,1
    2250:	78 e0 06 22 	rldicl  r0,r7,32,56
    2254:	91 68 00 08 	stw     r11,8(r8)
    2258:	90 08 00 00 	stw     r0,0(r8)
    225c:	91 28 00 04 	stw     r9,4(r8)
    2260:	41 9e 00 1c 	beq-    cr7,0x227c
    2264:	2f 89 00 03 	cmpwi   cr7,r9,3
    2268:	41 9e 00 84 	beq-    cr7,0x22ec
    226c:	3c 60 80 61 	lis     r3,-32671
    2270:	60 63 00 01 	ori     r3,r3,1
    2274:	7c 63 07 b4 	extsw   r3,r3
    2278:	4e 80 00 20 	blr
    227c:	2f 8b 00 02 	cmpwi   cr7,r11,2
    2280:	39 40 00 50 	li      r10,80
    2284:	41 9e 00 74 	beq-    cr7,0x22f8
    2288:	2f 8b 00 03 	cmpwi   cr7,r11,3
    228c:	41 9e 00 74 	beq-    cr7,0x2300
    2290:	2f 8b 00 01 	cmpwi   cr7,r11,1
    2294:	40 9e ff d8 	bne+    cr7,0x226c
    2298:	38 c0 00 10 	li      r6,16
    229c:	80 08 00 00 	lwz     r0,0(r8)
    22a0:	2b 80 00 09 	cmplwi  cr7,r0,9
    22a4:	41 9d ff c8 	bgt+    cr7,0x226c
    22a8:	81 62 80 24 	lwz     r11,-32732(r2)
    22ac:	78 09 17 88 	rldic   r9,r0,2,30
    22b0:	7c 09 58 2e 	lwzx    r0,r9,r11
    22b4:	7c 00 07 b4 	extsw   r0,r0
    22b8:	7c 00 5a 14 	add     r0,r0,r11
    22bc:	7c 09 03 a6 	mtctr   r0
    22c0:	4e 80 04 20 	bctr
    22c4:	ff ff ff a8 	.long 0xffffffa8
    22c8:	00 00 00 44 	.long 0x44
    22cc:	ff ff ff a8 	.long 0xffffffa8
    22d0:	00 00 00 70 	.long 0x70
    22d4:	00 00 00 78 	.long 0x78
    22d8:	00 00 00 88 	.long 0x88
    22dc:	00 00 00 98 	.long 0x98
    22e0:	00 00 00 a8 	.long 0xa8
    22e4:	00 00 00 c0 	.long 0xc0
    22e8:	00 00 00 d8 	.long 0xd8
    22ec:	2f 8b 00 02 	cmpwi   cr7,r11,2
    22f0:	39 40 00 a0 	li      r10,160
    22f4:	40 9e ff 94 	bne+    cr7,0x2288
    22f8:	38 c0 00 14 	li      r6,20
    22fc:	4b ff ff a0 	b       0x229c
    2300:	38 c0 00 18 	li      r6,24
    2304:	4b ff ff 98 	b       0x229c
    2308:	38 00 00 01 	li      r0,1
    230c:	78 e9 46 20 	rldicl  r9,r7,8,56
    2310:	38 60 00 00 	li      r3,0
    2314:	7c 00 51 d6 	mullw   r0,r0,r10
    2318:	7c 63 07 b4 	extsw   r3,r3
    231c:	7c 06 01 d6 	mullw   r0,r6,r0
    2320:	7c 00 1e 70 	srawi   r0,r0,3
    2324:	7c 00 01 94 	addze   r0,r0
    2328:	7c 00 49 d6 	mullw   r0,r0,r9
    232c:	90 08 00 0c 	stw     r0,12(r8)
    2330:	4e 80 00 20 	blr
    2334:	38 00 00 02 	li      r0,2
    2338:	4b ff ff d4 	b       0x230c
    233c:	2f 8a 00 a0 	cmpwi   cr7,r10,160
    2340:	41 de 00 74 	beq-    cr7,0x23b4
    2344:	38 00 00 03 	li      r0,3
    2348:	4b ff ff c4 	b       0x230c
    234c:	2f 8a 00 a0 	cmpwi   cr7,r10,160
    2350:	41 de 00 74 	beq-    cr7,0x23c4
    2354:	38 00 00 04 	li      r0,4
    2358:	4b ff ff b4 	b       0x230c
    235c:	2f 8a 00 a0 	cmpwi   cr7,r10,160
    2360:	38 00 00 05 	li      r0,5
    2364:	40 9e ff a8 	bne+    cr7,0x230c
    2368:	4b ff ff 04 	b       0x226c
    236c:	2f 8a 00 a0 	cmpwi   cr7,r10,160
    2370:	41 9e fe fc 	beq+    cr7,0x226c
    2374:	2f 8a 00 50 	cmpwi   cr7,r10,80
    2378:	41 de 00 7c 	beq-    cr7,0x23f4
    237c:	38 00 00 06 	li      r0,6
    2380:	4b ff ff 8c 	b       0x230c
    2384:	2f 8a 00 a0 	cmpwi   cr7,r10,160
    2388:	41 9e fe e4 	beq+    cr7,0x226c
    238c:	2f 8a 00 50 	cmpwi   cr7,r10,80
    2390:	41 de 00 74 	beq-    cr7,0x2404
    2394:	38 00 00 07 	li      r0,7
    2398:	4b ff ff 74 	b       0x230c
    239c:	2f 8a 00 a0 	cmpwi   cr7,r10,160
    23a0:	41 9e fe cc 	beq+    cr7,0x226c
    23a4:	2f 8a 00 50 	cmpwi   cr7,r10,80
    23a8:	41 de 00 34 	beq-    cr7,0x23dc
    23ac:	38 00 00 08 	li      r0,8
    23b0:	4b ff ff 5c 	b       0x230c
    23b4:	2f 86 00 18 	cmpwi   cr7,r6,24
    23b8:	41 9e fe b4 	beq+    cr7,0x226c
    23bc:	38 00 00 03 	li      r0,3
    23c0:	4b ff ff 4c 	b       0x230c
    23c4:	2f 86 00 18 	cmpwi   cr7,r6,24
    23c8:	41 9e fe a4 	beq+    cr7,0x226c
    23cc:	2f 86 00 14 	cmpwi   cr7,r6,20
    23d0:	41 9e fe 9c 	beq+    cr7,0x226c
    23d4:	38 00 00 04 	li      r0,4
    23d8:	4b ff ff 34 	b       0x230c
    23dc:	2f 86 00 18 	cmpwi   cr7,r6,24
    23e0:	41 9e fe 8c 	beq+    cr7,0x226c
    23e4:	2f 86 00 14 	cmpwi   cr7,r6,20
    23e8:	41 9e fe 84 	beq+    cr7,0x226c
    23ec:	38 00 00 08 	li      r0,8
    23f0:	4b ff ff 1c 	b       0x230c
    23f4:	2f 86 00 18 	cmpwi   cr7,r6,24
    23f8:	41 9e fe 74 	beq+    cr7,0x226c
    23fc:	38 00 00 06 	li      r0,6
    2400:	4b ff ff 0c 	b       0x230c
    2404:	2f 86 00 18 	cmpwi   cr7,r6,24
    2408:	41 9e fe 64 	beq+    cr7,0x226c
    240c:	2f 86 00 14 	cmpwi   cr7,r6,20
    2410:	41 9e fe 5c 	beq+    cr7,0x226c
    2414:	38 00 00 07 	li      r0,7
    2418:	4b ff fe f4 	b       0x230c
    241c:	f8 21 ff 71 	stdu    r1,-144(r1)
    2420:	7c 08 02 a6 	mflr    r0
    2424:	fb c1 00 80 	std     r30,128(r1)
    2428:	7c 9e 23 78 	mr      r30,r4
    242c:	7c 64 1b 78 	mr      r4,r3
    2430:	7f c3 f3 78 	mr      r3,r30
    2434:	fb a1 00 78 	std     r29,120(r1)
    2438:	fb e1 00 88 	std     r31,136(r1)
    243c:	f8 01 00 a0 	std     r0,160(r1)
    2440:	7c bf 2b 78 	mr      r31,r5
    2444:	7c dd 33 78 	mr      r29,r6
    2448:	48 00 24 51 	bl      0x4898
    244c:	e8 41 00 28 	ld      r2,40(r1)
    2450:	2f 83 00 00 	cmpwi   cr7,r3,0
    2454:	7b e4 00 20 	clrldi  r4,r31,32
    2458:	41 9e 00 24 	beq-    cr7,0x247c
    245c:	e8 01 00 a0 	ld      r0,160(r1)
    2460:	7c 63 07 b4 	extsw   r3,r3
    2464:	eb a1 00 78 	ld      r29,120(r1)
    2468:	eb c1 00 80 	ld      r30,128(r1)
    246c:	7c 08 03 a6 	mtlr    r0
    2470:	eb e1 00 88 	ld      r31,136(r1)
    2474:	38 21 00 90 	addi    r1,r1,144
    2478:	4e 80 00 20 	blr
    247c:	81 62 80 28 	lwz     r11,-32728(r2)
    2480:	7b a3 00 20 	clrldi  r3,r29,32
    2484:	e9 3e 00 00 	ld      r9,0(r30)
    2488:	e8 0b 00 00 	ld      r0,0(r11)
    248c:	e9 4b 00 08 	ld      r10,8(r11)
    2490:	7c 09 48 78 	andc    r9,r0,r9
    2494:	f9 3f 00 00 	std     r9,0(r31)
    2498:	e8 1e 00 08 	ld      r0,8(r30)
    249c:	7d 40 00 78 	andc    r0,r10,r0
    24a0:	f8 1f 00 08 	std     r0,8(r31)
    24a4:	48 00 24 15 	bl      0x48b8
    24a8:	e8 41 00 28 	ld      r2,40(r1)
    24ac:	2f 83 00 00 	cmpwi   cr7,r3,0
    24b0:	40 9e ff ac 	bne+    cr7,0x245c
    24b4:	81 3d 00 00 	lwz     r9,0(r29)
    24b8:	7c 63 07 b4 	extsw   r3,r3
    24bc:	e8 01 00 a0 	ld      r0,160(r1)
    24c0:	39 29 40 00 	addi    r9,r9,16384
    24c4:	eb c1 00 80 	ld      r30,128(r1)
    24c8:	eb e1 00 88 	ld      r31,136(r1)
    24cc:	7c 08 03 a6 	mtlr    r0
    24d0:	91 3d 00 00 	stw     r9,0(r29)
    24d4:	eb a1 00 78 	ld      r29,120(r1)
    24d8:	38 21 00 90 	addi    r1,r1,144
    24dc:	4e 80 00 20 	blr
    24e0:	f8 21 ff 51 	stdu    r1,-176(r1)
    24e4:	7c 08 02 a6 	mflr    r0
    24e8:	fb e1 00 a8 	std     r31,168(r1)
    24ec:	7c 7f 1b 78 	mr      r31,r3
    24f0:	80 62 80 2c 	lwz     r3,-32724(r2)
    24f4:	38 81 00 88 	addi    r4,r1,136
    24f8:	38 a1 00 78 	addi    r5,r1,120
    24fc:	38 c1 00 70 	addi    r6,r1,112
    2500:	f8 01 00 c0 	std     r0,192(r1)
    2504:	4b ff ff 19 	bl      0x241c
    2508:	2f 83 00 00 	cmpwi   cr7,r3,0
    250c:	40 9e 00 18 	bne-    cr7,0x2524
    2510:	81 21 00 70 	lwz     r9,112(r1)
    2514:	38 60 00 00 	li      r3,0
    2518:	3d 29 00 04 	addis   r9,r9,4
    251c:	39 29 37 d5 	addi    r9,r9,14293
    2520:	91 3f 00 00 	stw     r9,0(r31)
    2524:	e8 01 00 c0 	ld      r0,192(r1)
    2528:	7c 63 07 b4 	extsw   r3,r3
    252c:	eb e1 00 a8 	ld      r31,168(r1)
    2530:	38 21 00 b0 	addi    r1,r1,176
    2534:	7c 08 03 a6 	mtlr    r0
    2538:	4e 80 00 20 	blr
    253c:	2c 24 00 00 	cmpdi   r4,0
    2540:	7c 08 02 a6 	mflr    r0
    2544:	f8 21 f9 11 	stdu    r1,-1776(r1)
    2548:	fa c1 06 a0 	std     r22,1696(r1)
    254c:	fa e1 06 a8 	std     r23,1704(r1)
    2550:	fb 81 06 d0 	std     r28,1744(r1)
    2554:	fb a1 06 d8 	std     r29,1752(r1)
    2558:	fb c1 06 e0 	std     r30,1760(r1)
    255c:	fb e1 06 e8 	std     r31,1768(r1)
    2560:	f9 c1 06 60 	std     r14,1632(r1)
    2564:	f9 e1 06 68 	std     r15,1640(r1)
    2568:	fa 01 06 70 	std     r16,1648(r1)
    256c:	fa 21 06 78 	std     r17,1656(r1)
    2570:	fa 41 06 80 	std     r18,1664(r1)
    2574:	fa 61 06 88 	std     r19,1672(r1)
    2578:	fa 81 06 90 	std     r20,1680(r1)
    257c:	fa a1 06 98 	std     r21,1688(r1)
    2580:	fb 01 06 b0 	std     r24,1712(r1)
    2584:	fb 21 06 b8 	std     r25,1720(r1)
    2588:	fb 41 06 c0 	std     r26,1728(r1)
    258c:	fb 61 06 c8 	std     r27,1736(r1)
    2590:	f8 01 07 00 	std     r0,1792(r1)
    2594:	7c 9c 23 78 	mr      r28,r4
    2598:	82 e1 07 74 	lwz     r23,1908(r1)
    259c:	7c 7e 1b 78 	mr      r30,r3
    25a0:	7c df 33 78 	mr      r31,r6
    25a4:	7c bd 2b 78 	mr      r29,r5
    25a8:	7c 76 1b 78 	mr      r22,r3
    25ac:	40 82 00 68 	bne-    0x2614
    25b0:	3f e0 80 61 	lis     r31,-32671
    25b4:	63 ff 20 03 	ori     r31,r31,8195
    25b8:	e8 01 07 00 	ld      r0,1792(r1)
    25bc:	7f e3 07 b4 	extsw   r3,r31
    25c0:	e9 c1 06 60 	ld      r14,1632(r1)
    25c4:	e9 e1 06 68 	ld      r15,1640(r1)
    25c8:	7c 08 03 a6 	mtlr    r0
    25cc:	ea 01 06 70 	ld      r16,1648(r1)
    25d0:	ea 21 06 78 	ld      r17,1656(r1)
    25d4:	ea 41 06 80 	ld      r18,1664(r1)
    25d8:	ea 61 06 88 	ld      r19,1672(r1)
    25dc:	ea 81 06 90 	ld      r20,1680(r1)
    25e0:	ea a1 06 98 	ld      r21,1688(r1)
    25e4:	ea c1 06 a0 	ld      r22,1696(r1)
    25e8:	ea e1 06 a8 	ld      r23,1704(r1)
    25ec:	eb 01 06 b0 	ld      r24,1712(r1)
    25f0:	eb 21 06 b8 	ld      r25,1720(r1)
    25f4:	eb 41 06 c0 	ld      r26,1728(r1)
    25f8:	eb 61 06 c8 	ld      r27,1736(r1)
    25fc:	eb 81 06 d0 	ld      r28,1744(r1)
    2600:	eb a1 06 d8 	ld      r29,1752(r1)
    2604:	eb c1 06 e0 	ld      r30,1760(r1)
    2608:	eb e1 06 e8 	ld      r31,1768(r1)
    260c:	38 21 06 f0 	addi    r1,r1,1776
    2610:	4e 80 00 20 	blr
    2614:	2f 86 00 00 	cmpwi   cr7,r6,0
    2618:	41 9e ff 98 	beq+    cr7,0x25b0
    261c:	2f 88 00 00 	cmpwi   cr7,r8,0
    2620:	41 9e ff 90 	beq+    cr7,0x25b0
    2624:	81 e2 80 2c 	lwz     r15,-32724(r2)
    2628:	3a 40 00 01 	li      r18,1
    262c:	93 be 00 e0 	stw     r29,224(r30)
    2630:	90 fe 00 e8 	stw     r7,232(r30)
    2634:	91 3e 00 f0 	stw     r9,240(r30)
    2638:	80 01 07 64 	lwz     r0,1892(r1)
    263c:	7d e3 7b 78 	mr      r3,r15
    2640:	38 81 00 80 	addi    r4,r1,128
    2644:	38 a1 00 a0 	addi    r5,r1,160
    2648:	38 c1 00 70 	addi    r6,r1,112
    264c:	93 fe 00 e4 	stw     r31,228(r30)
    2650:	93 9e 00 dc 	stw     r28,220(r30)
    2654:	91 1e 00 ec 	stw     r8,236(r30)
    2658:	91 5e 00 f4 	stw     r10,244(r30)
    265c:	90 1e 00 f8 	stw     r0,248(r30)
    2660:	92 5e 00 d8 	stw     r18,216(r30)
    2664:	4b ff fd b9 	bl      0x241c
    2668:	7b ce 00 20 	clrldi  r14,r30,32
    266c:	2f 83 00 00 	cmpwi   cr7,r3,0
    2670:	7c 7f 1b 78 	mr      r31,r3
    2674:	40 9e ff 44 	bne+    cr7,0x25b8
    2678:	39 1e 02 47 	addi    r8,r30,583
    267c:	80 e1 00 70 	lwz     r7,112(r1)
    2680:	82 01 07 6c 	lwz     r16,1900(r1)
    2684:	38 80 00 20 	li      r4,32
    2688:	55 08 00 30 	rlwinm  r8,r8,0,0,24
    268c:	e9 41 00 a8 	ld      r10,168(r1)
    2690:	e8 01 00 a0 	ld      r0,160(r1)
    2694:	3a 88 00 80 	addi    r20,r8,128
    2698:	81 62 80 28 	lwz     r11,-32728(r2)
    269c:	f8 1e 01 b0 	std     r0,432(r30)
    26a0:	3b 14 01 00 	addi    r24,r20,256
    26a4:	80 a2 80 30 	lwz     r5,-32720(r2)
    26a8:	f9 5e 01 b8 	std     r10,440(r30)
    26ac:	3f 78 00 04 	addis   r27,r24,4
    26b0:	90 fe 01 c0 	stw     r7,448(r30)
    26b4:	3b 5b 10 00 	addi    r26,r27,4096
    26b8:	82 b0 00 08 	lwz     r21,8(r16)
    26bc:	39 6b 00 10 	addi    r11,r11,16
    26c0:	3b 3a 19 00 	addi    r25,r26,6400
    26c4:	38 1e 01 8c 	addi    r0,r30,396
    26c8:	7d 39 3a 14 	add     r9,r25,r7
    26cc:	7e a7 fe 70 	srawi   r7,r21,31
    26d0:	39 29 00 7f 	addi    r9,r9,127
    26d4:	7c ea aa 78 	xor     r10,r7,r21
    26d8:	55 29 00 30 	rlwinm  r9,r9,0,0,24
    26dc:	7d 4a 38 50 	subf    r10,r10,r7
    26e0:	3b 89 01 00 	addi    r28,r9,256
    26e4:	78 11 00 20 	clrldi  r17,r0,32
    26e8:	3b bc 00 80 	addi    r29,r28,128
    26ec:	79 73 00 20 	clrldi  r19,r11,32
    26f0:	38 1d 01 00 	addi    r0,r29,256
    26f4:	55 4a 0f fe 	rlwinm  r10,r10,1,31,31
    26f8:	7e 23 8b 78 	mr      r3,r17
    26fc:	7e 66 9b 78 	mr      r6,r19
    2700:	7d c7 73 78 	mr      r7,r14
    2704:	90 1e 01 74 	stw     r0,372(r30)
    2708:	91 1e 01 04 	stw     r8,260(r30)
    270c:	92 9e 01 08 	stw     r20,264(r30)
    2710:	93 1e 01 00 	stw     r24,256(r30)
    2714:	93 7e 01 58 	stw     r27,344(r30)
    2718:	93 5e 01 5c 	stw     r26,348(r30)
    271c:	93 3e 01 64 	stw     r25,356(r30)
    2720:	91 3e 01 68 	stw     r9,360(r30)
    2724:	93 9e 01 6c 	stw     r28,364(r30)
    2728:	93 be 01 70 	stw     r29,368(r30)
    272c:	7e aa a8 50 	subf    r21,r10,r21
    2730:	48 00 20 29 	bl      0x4758
    2734:	e8 41 00 28 	ld      r2,40(r1)
    2738:	2f 97 00 00 	cmpwi   cr7,r23,0
    273c:	9b fe 01 ab 	stb     r31,427(r30)
    2740:	41 9e 04 cc 	beq-    cr7,0x2c0c
    2744:	7a e9 00 20 	clrldi  r9,r23,32
    2748:	92 5e 01 80 	stw     r18,384(r30)
    274c:	38 f7 00 04 	addi    r7,r23,4
    2750:	80 09 00 00 	lwz     r0,0(r9)
    2754:	81 09 00 0c 	lwz     r8,12(r9)
    2758:	90 1e 01 58 	stw     r0,344(r30)
    275c:	38 01 02 60 	addi    r0,r1,608
    2760:	56 86 00 30 	rlwinm  r6,r20,0,0,24
    2764:	78 1d 00 20 	clrldi  r29,r0,32
    2768:	78 e7 00 20 	clrldi  r7,r7,32
    276c:	79 08 00 20 	clrldi  r8,r8,32
    2770:	7f a3 eb 78 	mr      r3,r29
    2774:	38 80 00 01 	li      r4,1
    2778:	3c a0 00 33 	lis     r5,51
    277c:	48 00 20 bd 	bl      0x4838
    2780:	e8 41 00 28 	ld      r2,40(r1)
    2784:	2f 83 00 00 	cmpwi   cr7,r3,0
    2788:	7c 7f 1b 78 	mr      r31,r3
    278c:	40 9e fe 2c 	bne+    cr7,0x25b8
    2790:	7e 24 8b 78 	mr      r4,r17
    2794:	7f a3 eb 78 	mr      r3,r29
    2798:	48 00 20 e1 	bl      0x4878
    279c:	e8 41 00 28 	ld      r2,40(r1)
    27a0:	2f 83 00 00 	cmpwi   cr7,r3,0
    27a4:	7c 7f 1b 78 	mr      r31,r3
    27a8:	40 9e fe 10 	bne+    cr7,0x25b8
    27ac:	7f a5 eb 78 	mr      r5,r29
    27b0:	80 7e 01 58 	lwz     r3,344(r30)
    27b4:	80 9e 01 5c 	lwz     r4,348(r30)
    27b8:	48 00 22 01 	bl      0x49b8
    27bc:	e8 41 00 28 	ld      r2,40(r1)
    27c0:	2f 83 00 00 	cmpwi   cr7,r3,0
    27c4:	7c 7f 1b 78 	mr      r31,r3
    27c8:	40 9e fd f0 	bne+    cr7,0x25b8
    27cc:	38 60 00 00 	li      r3,0
    27d0:	80 9e 01 5c 	lwz     r4,348(r30)
    27d4:	80 be 01 68 	lwz     r5,360(r30)
    27d8:	38 e0 00 80 	li      r7,128
    27dc:	80 de 01 6c 	lwz     r6,364(r30)
    27e0:	39 00 00 01 	li      r8,1
    27e4:	39 20 00 01 	li      r9,1
    27e8:	48 00 20 31 	bl      0x4818
    27ec:	e8 41 00 28 	ld      r2,40(r1)
    27f0:	2f 83 00 00 	cmpwi   cr7,r3,0
    27f4:	7c 7f 1b 78 	mr      r31,r3
    27f8:	40 9e fd c0 	bne+    cr7,0x25b8
    27fc:	80 7e 01 68 	lwz     r3,360(r30)
    2800:	48 00 21 f9 	bl      0x49f8
    2804:	e8 41 00 28 	ld      r2,40(r1)
    2808:	2f 83 00 00 	cmpwi   cr7,r3,0
    280c:	7c 7f 1b 78 	mr      r31,r3
    2810:	40 9e fd a8 	bne+    cr7,0x25b8
    2814:	38 60 00 00 	li      r3,0
    2818:	80 9e 01 5c 	lwz     r4,348(r30)
    281c:	80 be 01 70 	lwz     r5,368(r30)
    2820:	38 e0 00 10 	li      r7,16
    2824:	80 de 01 74 	lwz     r6,372(r30)
    2828:	39 00 00 01 	li      r8,1
    282c:	39 20 00 02 	li      r9,2
    2830:	48 00 1f e9 	bl      0x4818
    2834:	e8 41 00 28 	ld      r2,40(r1)
    2838:	2f 83 00 00 	cmpwi   cr7,r3,0
    283c:	7c 7f 1b 78 	mr      r31,r3
    2840:	40 9e fd 78 	bne+    cr7,0x25b8
    2844:	80 7e 01 70 	lwz     r3,368(r30)
    2848:	48 00 21 b1 	bl      0x49f8
    284c:	e8 41 00 28 	ld      r2,40(r1)
    2850:	2f 83 00 00 	cmpwi   cr7,r3,0
    2854:	7c 7f 1b 78 	mr      r31,r3
    2858:	40 9e fd 60 	bne+    cr7,0x25b8
    285c:	38 01 01 60 	addi    r0,r1,352
    2860:	81 7e 01 64 	lwz     r11,356(r30)
    2864:	81 5e 01 c0 	lwz     r10,448(r30)
    2868:	7d e6 7b 78 	mr      r6,r15
    286c:	78 1c 00 20 	clrldi  r28,r0,32
    2870:	81 3e 01 68 	lwz     r9,360(r30)
    2874:	80 1e 01 70 	lwz     r0,368(r30)
    2878:	3b b6 01 b0 	addi    r29,r22,432
    287c:	7f 83 e3 78 	mr      r3,r28
    2880:	38 80 00 01 	li      r4,1
    2884:	3c a0 00 33 	lis     r5,51
    2888:	38 e1 00 74 	addi    r7,r1,116
    288c:	39 01 00 90 	addi    r8,r1,144
    2890:	f9 21 00 90 	std     r9,144(r1)
    2894:	f8 01 00 98 	std     r0,152(r1)
    2898:	91 61 00 74 	stw     r11,116(r1)
    289c:	91 41 00 78 	stw     r10,120(r1)
    28a0:	93 a1 00 7c 	stw     r29,124(r1)
    28a4:	48 00 20 f5 	bl      0x4998
    28a8:	e8 41 00 28 	ld      r2,40(r1)
    28ac:	2f 83 00 00 	cmpwi   cr7,r3,0
    28b0:	7c 7f 1b 78 	mr      r31,r3
    28b4:	40 9e fd 04 	bne+    cr7,0x25b8
    28b8:	38 96 01 60 	addi    r4,r22,352
    28bc:	80 7e 01 5c 	lwz     r3,348(r30)
    28c0:	7f 85 e3 78 	mr      r5,r28
    28c4:	78 84 00 20 	clrldi  r4,r4,32
    28c8:	48 00 1f 91 	bl      0x4858
    28cc:	e8 41 00 28 	ld      r2,40(r1)
    28d0:	2f 83 00 00 	cmpwi   cr7,r3,0
    28d4:	7c 7f 1b 78 	mr      r31,r3
    28d8:	40 9e fc e0 	bne+    cr7,0x25b8
    28dc:	39 00 00 00 	li      r8,0
    28e0:	81 62 80 40 	lwz     r11,-32704(r2)
    28e4:	38 00 00 ff 	li      r0,255
    28e8:	3b a0 00 00 	li      r29,0
    28ec:	38 c0 00 02 	li      r6,2
    28f0:	38 a0 00 20 	li      r5,32
    28f4:	38 e0 02 00 	li      r7,512
    28f8:	38 80 20 00 	li      r4,8192
    28fc:	90 1e 00 84 	stw     r0,132(r30)
    2900:	91 1e 01 54 	stw     r8,340(r30)
    2904:	91 1e 00 b0 	stw     r8,176(r30)
    2908:	91 1e 00 b4 	stw     r8,180(r30)
    290c:	91 1e 00 b8 	stw     r8,184(r30)
    2910:	90 1e 00 00 	stw     r0,0(r30)
    2914:	90 1e 00 2c 	stw     r0,44(r30)
    2918:	90 1e 00 58 	stw     r0,88(r30)
    291c:	fb a1 00 f0 	std     r29,240(r1)
    2920:	90 c1 00 e0 	stw     r6,224(r1)
    2924:	90 a1 00 e4 	stw     r5,228(r1)
    2928:	90 e1 00 e8 	stw     r7,232(r1)
    292c:	90 81 00 ec 	stw     r4,236(r1)
    2930:	93 a1 00 f8 	stw     r29,248(r1)
    2934:	99 01 01 00 	stb     r8,256(r1)
    2938:	3b 81 00 e0 	addi    r28,r1,224
    293c:	39 21 01 00 	addi    r9,r1,256
    2940:	e8 0b 00 00 	ld      r0,0(r11)
    2944:	f8 09 00 00 	std     r0,0(r9)
    2948:	38 00 00 00 	li      r0,0
    294c:	39 49 00 07 	addi    r10,r9,7
    2950:	98 0a 00 00 	stb     r0,0(r10)
    2954:	90 e1 00 c8 	stw     r7,200(r1)
    2958:	fb a1 00 d0 	std     r29,208(r1)
    295c:	93 a1 00 cc 	stw     r29,204(r1)
    2960:	99 01 00 d8 	stb     r8,216(r1)
    2964:	81 22 80 44 	lwz     r9,-32700(r2)
    2968:	3b 61 00 c8 	addi    r27,r1,200
    296c:	39 41 00 d8 	addi    r10,r1,216
    2970:	e8 09 00 00 	ld      r0,0(r9)
    2974:	f8 0a 00 00 	std     r0,0(r10)
    2978:	38 00 00 00 	li      r0,0
    297c:	39 6a 00 07 	addi    r11,r10,7
    2980:	98 0b 00 00 	stb     r0,0(r11)
    2984:	90 c1 01 08 	stw     r6,264(r1)
    2988:	90 a1 01 0c 	stw     r5,268(r1)
    298c:	90 e1 01 10 	stw     r7,272(r1)
    2990:	90 81 01 14 	stw     r4,276(r1)
    2994:	fb a1 01 18 	std     r29,280(r1)
    2998:	93 a1 01 20 	stw     r29,288(r1)
    299c:	99 01 01 28 	stb     r8,296(r1)
    29a0:	81 62 80 48 	lwz     r11,-32696(r2)
    29a4:	39 21 01 28 	addi    r9,r1,296
    29a8:	e8 0b 00 00 	ld      r0,0(r11)
    29ac:	f8 09 00 00 	std     r0,0(r9)
    29b0:	38 00 00 00 	li      r0,0
    29b4:	38 69 00 07 	addi    r3,r9,7
    29b8:	98 03 00 00 	stb     r0,0(r3)
    29bc:	90 e1 00 b0 	stw     r7,176(r1)
    29c0:	fb a1 00 b8 	std     r29,184(r1)
    29c4:	93 a1 00 b4 	stw     r29,180(r1)
    29c8:	99 01 00 c0 	stb     r8,192(r1)
    29cc:	81 22 80 4c 	lwz     r9,-32692(r2)
    29d0:	e8 09 00 00 	ld      r0,0(r9)
    29d4:	f8 0a 00 00 	std     r0,0(r10)
    29d8:	38 00 00 00 	li      r0,0
    29dc:	39 6a 00 07 	addi    r11,r10,7
    29e0:	98 0b 00 00 	stb     r0,0(r11)
    29e4:	90 c1 01 30 	stw     r6,304(r1)
    29e8:	90 a1 01 34 	stw     r5,308(r1)
    29ec:	90 e1 01 38 	stw     r7,312(r1)
    29f0:	90 81 01 3c 	stw     r4,316(r1)
    29f4:	99 01 01 50 	stb     r8,336(r1)
    29f8:	fb a1 01 40 	std     r29,320(r1)
    29fc:	93 a1 01 48 	stw     r29,328(r1)
    2a00:	81 62 80 50 	lwz     r11,-32688(r2)
    2a04:	39 21 01 50 	addi    r9,r1,336
    2a08:	e8 0b 00 00 	ld      r0,0(r11)
    2a0c:	f8 09 00 00 	std     r0,0(r9)
    2a10:	38 00 00 00 	li      r0,0
    2a14:	39 49 00 07 	addi    r10,r9,7
    2a18:	98 0a 00 00 	stb     r0,0(r10)
    2a1c:	38 76 00 c8 	addi    r3,r22,200
    2a20:	7f 84 e3 78 	mr      r4,r28
    2a24:	78 63 00 20 	clrldi  r3,r3,32
    2a28:	39 60 00 64 	li      r11,100
    2a2c:	44 00 00 02 	sc      
    2a30:	2f 83 00 00 	cmpwi   cr7,r3,0
    2a34:	7c 7f 1b 78 	mr      r31,r3
    2a38:	40 9e fb 80 	bne+    cr7,0x25b8
    2a3c:	38 76 00 cc 	addi    r3,r22,204
    2a40:	80 9e 00 c8 	lwz     r4,200(r30)
    2a44:	7f 65 db 78 	mr      r5,r27
    2a48:	78 63 00 20 	clrldi  r3,r3,32
    2a4c:	39 60 00 69 	li      r11,105
    2a50:	44 00 00 02 	sc      
    2a54:	2f 83 00 00 	cmpwi   cr7,r3,0
    2a58:	7c 7f 1b 78 	mr      r31,r3
    2a5c:	40 9e fb 5c 	bne+    cr7,0x25b8
    2a60:	38 76 00 d0 	addi    r3,r22,208
    2a64:	7f 84 e3 78 	mr      r4,r28
    2a68:	78 63 00 20 	clrldi  r3,r3,32
    2a6c:	39 60 00 64 	li      r11,100
    2a70:	44 00 00 02 	sc      
    2a74:	2f 83 00 00 	cmpwi   cr7,r3,0
    2a78:	7c 7f 1b 78 	mr      r31,r3
    2a7c:	40 9e fb 3c 	bne+    cr7,0x25b8
    2a80:	38 76 00 d4 	addi    r3,r22,212
    2a84:	80 9e 00 d0 	lwz     r4,208(r30)
    2a88:	7f 65 db 78 	mr      r5,r27
    2a8c:	78 63 00 20 	clrldi  r3,r3,32
    2a90:	39 60 00 69 	li      r11,105
    2a94:	44 00 00 02 	sc      
    2a98:	2f 83 00 00 	cmpwi   cr7,r3,0
    2a9c:	7c 7f 1b 78 	mr      r31,r3
    2aa0:	40 9e fb 18 	bne+    cr7,0x25b8
    2aa4:	38 76 01 30 	addi    r3,r22,304
    2aa8:	38 81 01 08 	addi    r4,r1,264
    2aac:	78 63 00 20 	clrldi  r3,r3,32
    2ab0:	39 60 00 64 	li      r11,100
    2ab4:	44 00 00 02 	sc      
    2ab8:	2f 83 00 00 	cmpwi   cr7,r3,0
    2abc:	7c 7f 1b 78 	mr      r31,r3
    2ac0:	40 9e fa f8 	bne+    cr7,0x25b8
    2ac4:	38 76 01 34 	addi    r3,r22,308
    2ac8:	80 9e 01 30 	lwz     r4,304(r30)
    2acc:	38 a1 00 b0 	addi    r5,r1,176
    2ad0:	78 63 00 20 	clrldi  r3,r3,32
    2ad4:	39 60 00 69 	li      r11,105
    2ad8:	44 00 00 02 	sc      
    2adc:	2f 83 00 00 	cmpwi   cr7,r3,0
    2ae0:	7c 7f 1b 78 	mr      r31,r3
    2ae4:	40 9e fa d4 	bne+    cr7,0x25b8
    2ae8:	38 76 01 50 	addi    r3,r22,336
    2aec:	38 81 01 30 	addi    r4,r1,304
    2af0:	78 63 00 20 	clrldi  r3,r3,32
    2af4:	39 60 00 64 	li      r11,100
    2af8:	44 00 00 02 	sc      
    2afc:	2f 83 00 00 	cmpwi   cr7,r3,0
    2b00:	7c 7f 1b 78 	mr      r31,r3
    2b04:	40 9e fa b4 	bne+    cr7,0x25b8
    2b08:	80 7e 01 30 	lwz     r3,304(r30)
    2b0c:	38 80 00 00 	li      r4,0
    2b10:	39 60 00 66 	li      r11,102
    2b14:	44 00 00 02 	sc      
    2b18:	2f 83 00 00 	cmpwi   cr7,r3,0
    2b1c:	7c 7f 1b 78 	mr      r31,r3
    2b20:	40 9e fa 98 	bne+    cr7,0x25b8
    2b24:	93 be 00 fc 	stw     r29,252(r30)
    2b28:	80 7e 01 34 	lwz     r3,308(r30)
    2b2c:	39 60 00 6c 	li      r11,108
    2b30:	44 00 00 02 	sc      
    2b34:	2f 83 00 00 	cmpwi   cr7,r3,0
    2b38:	7c 7f 1b 78 	mr      r31,r3
    2b3c:	40 9e fa 7c 	bne+    cr7,0x25b8
    2b40:	80 7e 01 30 	lwz     r3,304(r30)
    2b44:	39 60 00 68 	li      r11,104
    2b48:	44 00 00 02 	sc      
    2b4c:	2f 83 00 00 	cmpwi   cr7,r3,0
    2b50:	7c 7f 1b 78 	mr      r31,r3
    2b54:	40 9e fa 64 	bne+    cr7,0x25b8
    2b58:	38 76 01 38 	addi    r3,r22,312
    2b5c:	38 80 00 00 	li      r4,0
    2b60:	78 63 00 20 	clrldi  r3,r3,32
    2b64:	48 00 19 e5 	bl      0x4548
    2b68:	60 00 00 00 	nop
    2b6c:	2f 83 00 00 	cmpwi   cr7,r3,0
    2b70:	7c 7f 1b 78 	mr      r31,r3
    2b74:	40 9e fa 44 	bne+    cr7,0x25b8
    2b78:	38 76 01 44 	addi    r3,r22,324
    2b7c:	38 80 00 04 	li      r4,4
    2b80:	78 63 00 20 	clrldi  r3,r3,32
    2b84:	48 00 19 c5 	bl      0x4548
    2b88:	60 00 00 00 	nop
    2b8c:	2f 83 00 00 	cmpwi   cr7,r3,0
    2b90:	7c 7f 1b 78 	mr      r31,r3
    2b94:	40 9e fa 24 	bne+    cr7,0x25b8
    2b98:	80 d0 00 08 	lwz     r6,8(r16)
    2b9c:	38 76 00 c0 	addi    r3,r22,192
    2ba0:	7d c5 73 78 	mr      r5,r14
    2ba4:	80 f0 00 10 	lwz     r7,16(r16)
    2ba8:	78 63 00 20 	clrldi  r3,r3,32
    2bac:	81 22 80 3c 	lwz     r9,-32708(r2)
    2bb0:	7c c6 07 b4 	extsw   r6,r6
    2bb4:	80 82 80 38 	lwz     r4,-32712(r2)
    2bb8:	39 00 00 01 	li      r8,1
    2bbc:	48 00 1b bd 	bl      0x4778
    2bc0:	e8 41 00 28 	ld      r2,40(r1)
    2bc4:	2f 83 00 00 	cmpwi   cr7,r3,0
    2bc8:	7c 7f 1b 78 	mr      r31,r3
    2bcc:	40 9e f9 ec 	bne+    cr7,0x25b8
    2bd0:	38 76 01 78 	addi    r3,r22,376
    2bd4:	7f 84 e3 78 	mr      r4,r28
    2bd8:	78 63 00 20 	clrldi  r3,r3,32
    2bdc:	39 60 00 64 	li      r11,100
    2be0:	44 00 00 02 	sc      
    2be4:	2f 83 00 00 	cmpwi   cr7,r3,0
    2be8:	7c 7f 1b 78 	mr      r31,r3
    2bec:	40 9e f9 cc 	bne+    cr7,0x25b8
    2bf0:	38 76 01 7c 	addi    r3,r22,380
    2bf4:	7f 84 e3 78 	mr      r4,r28
    2bf8:	78 63 00 20 	clrldi  r3,r3,32
    2bfc:	39 60 00 64 	li      r11,100
    2c00:	44 00 00 02 	sc      
    2c04:	7c 7f 1b 78 	mr      r31,r3
    2c08:	4b ff f9 b0 	b       0x25b8
    2c0c:	38 01 04 60 	addi    r0,r1,1120
    2c10:	93 fe 01 80 	stw     r31,384(r30)
    2c14:	78 1d 00 20 	clrldi  r29,r0,32
    2c18:	80 f0 00 0c 	lwz     r7,12(r16)
    2c1c:	7e a8 07 b4 	extsw   r8,r21
    2c20:	7c e7 07 b4 	extsw   r7,r7
    2c24:	7f a3 eb 78 	mr      r3,r29
    2c28:	38 80 00 02 	li      r4,2
    2c2c:	3c a0 00 33 	lis     r5,51
    2c30:	38 c0 00 01 	li      r6,1
    2c34:	39 20 00 01 	li      r9,1
    2c38:	48 00 1c e1 	bl      0x4918
    2c3c:	e8 41 00 28 	ld      r2,40(r1)
    2c40:	2f 83 00 00 	cmpwi   cr7,r3,0
    2c44:	7c 7f 1b 78 	mr      r31,r3
    2c48:	40 9e f9 70 	bne+    cr7,0x25b8
    2c4c:	7e 64 9b 78 	mr      r4,r19
    2c50:	7f a3 eb 78 	mr      r3,r29
    2c54:	38 a0 00 0d 	li      r5,13
    2c58:	48 00 1b a1 	bl      0x47f8
    2c5c:	e8 41 00 28 	ld      r2,40(r1)
    2c60:	2f 83 00 00 	cmpwi   cr7,r3,0
    2c64:	7c 7f 1b 78 	mr      r31,r3
    2c68:	40 9e f9 50 	bne+    cr7,0x25b8
    2c6c:	7f a4 eb 78 	mr      r4,r29
    2c70:	80 7e 01 58 	lwz     r3,344(r30)
    2c74:	48 00 1d 05 	bl      0x4978
    2c78:	e8 41 00 28 	ld      r2,40(r1)
    2c7c:	2f 83 00 00 	cmpwi   cr7,r3,0
    2c80:	7c 7f 1b 78 	mr      r31,r3
    2c84:	40 9e f9 34 	bne+    cr7,0x25b8
    2c88:	80 e2 80 34 	lwz     r7,-32716(r2)
    2c8c:	39 00 00 04 	li      r8,4
    2c90:	4b ff fa cc 	b       0x275c
    2c94:	f8 21 ff 71 	stdu    r1,-144(r1)
    2c98:	7c 08 02 a6 	mflr    r0
    2c9c:	81 61 01 0c 	lwz     r11,268(r1)
    2ca0:	f8 01 00 a0 	std     r0,160(r1)
    2ca4:	80 01 01 04 	lwz     r0,260(r1)
    2ca8:	f9 61 00 78 	std     r11,120(r1)
    2cac:	f8 01 00 70 	std     r0,112(r1)
    2cb0:	38 00 00 00 	li      r0,0
    2cb4:	f8 01 00 80 	std     r0,128(r1)
    2cb8:	4b ff f8 85 	bl      0x253c
    2cbc:	e8 01 00 a0 	ld      r0,160(r1)
    2cc0:	7c 63 07 b4 	extsw   r3,r3
    2cc4:	38 21 00 90 	addi    r1,r1,144
    2cc8:	7c 08 03 a6 	mtlr    r0
    2ccc:	4e 80 00 20 	blr
    2cd0:	f8 21 fe f1 	stdu    r1,-272(r1)
    2cd4:	7c 08 02 a6 	mflr    r0
    2cd8:	f8 81 01 48 	std     r4,328(r1)
    2cdc:	f8 01 01 20 	std     r0,288(r1)
    2ce0:	81 23 01 08 	lwz     r9,264(r3)
    2ce4:	39 60 00 00 	li      r11,0
    2ce8:	f8 a1 01 50 	std     r5,336(r1)
    2cec:	80 01 01 48 	lwz     r0,328(r1)
    2cf0:	38 80 00 00 	li      r4,0
    2cf4:	80 e1 01 54 	lwz     r7,340(r1)
    2cf8:	81 01 01 50 	lwz     r8,336(r1)
    2cfc:	81 41 01 4c 	lwz     r10,332(r1)
    2d00:	90 09 00 00 	stw     r0,0(r9)
    2d04:	91 49 00 04 	stw     r10,4(r9)
    2d08:	91 09 00 08 	stw     r8,8(r9)
    2d0c:	90 e9 00 0c 	stw     r7,12(r9)
    2d10:	80 03 01 84 	lwz     r0,388(r3)
    2d14:	91 69 00 20 	stw     r11,32(r9)
    2d18:	90 09 00 10 	stw     r0,16(r9)
    2d1c:	91 69 00 14 	stw     r11,20(r9)
    2d20:	91 69 00 18 	stw     r11,24(r9)
    2d24:	91 69 00 1c 	stw     r11,28(r9)
    2d28:	38 00 00 03 	li      r0,3
    2d2c:	39 20 00 20 	li      r9,32
    2d30:	90 01 00 70 	stw     r0,112(r1)
    2d34:	91 21 00 74 	stw     r9,116(r1)
    2d38:	fb c1 01 00 	std     r30,256(r1)
    2d3c:	fb e1 01 08 	std     r31,264(r1)
    2d40:	7c 7e 1b 78 	mr      r30,r3
    2d44:	80 63 01 7c 	lwz     r3,380(r3)
    2d48:	39 60 00 66 	li      r11,102
    2d4c:	44 00 00 02 	sc      
    2d50:	2f 83 00 00 	cmpwi   cr7,r3,0
    2d54:	38 a0 00 01 	li      r5,1
    2d58:	38 81 00 70 	addi    r4,r1,112
    2d5c:	7c 7f 1b 78 	mr      r31,r3
    2d60:	41 9e 00 20 	beq-    cr7,0x2d80
    2d64:	e8 01 01 20 	ld      r0,288(r1)
    2d68:	7f e3 07 b4 	extsw   r3,r31
    2d6c:	eb c1 01 00 	ld      r30,256(r1)
    2d70:	eb e1 01 08 	ld      r31,264(r1)
    2d74:	7c 08 03 a6 	mtlr    r0
    2d78:	38 21 01 10 	addi    r1,r1,272
    2d7c:	4e 80 00 20 	blr
    2d80:	80 7e 01 70 	lwz     r3,368(r30)
    2d84:	48 00 1b 75 	bl      0x48f8
    2d88:	e8 41 00 28 	ld      r2,40(r1)
    2d8c:	39 60 00 68 	li      r11,104
    2d90:	2f 83 00 00 	cmpwi   cr7,r3,0
    2d94:	7c 7f 1b 78 	mr      r31,r3
    2d98:	41 9e 00 28 	beq-    cr7,0x2dc0
    2d9c:	80 7e 01 7c 	lwz     r3,380(r30)
    2da0:	44 00 00 02 	sc      
    2da4:	e8 01 01 20 	ld      r0,288(r1)
    2da8:	7f e3 07 b4 	extsw   r3,r31
    2dac:	eb c1 01 00 	ld      r30,256(r1)
    2db0:	eb e1 01 08 	ld      r31,264(r1)
    2db4:	7c 08 03 a6 	mtlr    r0
    2db8:	38 21 01 10 	addi    r1,r1,272
    2dbc:	4e 80 00 20 	blr
    2dc0:	80 7e 01 7c 	lwz     r3,380(r30)
    2dc4:	44 00 00 02 	sc      
    2dc8:	2f 83 00 00 	cmpwi   cr7,r3,0
    2dcc:	7c 7f 1b 78 	mr      r31,r3
    2dd0:	38 80 00 00 	li      r4,0
    2dd4:	39 60 00 66 	li      r11,102
    2dd8:	40 9e ff 8c 	bne+    cr7,0x2d64
    2ddc:	80 7e 01 78 	lwz     r3,376(r30)
    2de0:	44 00 00 02 	sc      
    2de4:	2f 83 00 00 	cmpwi   cr7,r3,0
    2de8:	38 a0 00 00 	li      r5,0
    2dec:	38 81 00 80 	addi    r4,r1,128
    2df0:	38 c0 00 01 	li      r6,1
    2df4:	7c 7f 1b 78 	mr      r31,r3
    2df8:	40 9e ff 6c 	bne+    cr7,0x2d64
    2dfc:	80 7e 01 68 	lwz     r3,360(r30)
    2e00:	48 00 1a d9 	bl      0x48d8
    2e04:	e8 41 00 28 	ld      r2,40(r1)
    2e08:	39 60 00 68 	li      r11,104
    2e0c:	2f 83 00 00 	cmpwi   cr7,r3,0
    2e10:	7c 7f 1b 78 	mr      r31,r3
    2e14:	40 9e 00 20 	bne-    cr7,0x2e34
    2e18:	80 7e 01 78 	lwz     r3,376(r30)
    2e1c:	44 00 00 02 	sc      
    2e20:	2f 83 00 00 	cmpwi   cr7,r3,0
    2e24:	7c 7f 1b 78 	mr      r31,r3
    2e28:	40 9e ff 3c 	bne+    cr7,0x2d64
    2e2c:	83 e1 00 80 	lwz     r31,128(r1)
    2e30:	4b ff ff 34 	b       0x2d64
    2e34:	80 7e 01 78 	lwz     r3,376(r30)
    2e38:	44 00 00 02 	sc      
    2e3c:	4b ff ff 28 	b       0x2d64
    2e40:	2f 85 00 00 	cmpwi   cr7,r5,0
    2e44:	7c 08 02 a6 	mflr    r0
    2e48:	3d 00 80 61 	lis     r8,-32671
    2e4c:	f8 21 ff 91 	stdu    r1,-112(r1)
    2e50:	f8 01 00 80 	std     r0,128(r1)
    2e54:	38 e0 00 00 	li      r7,0
    2e58:	7c a0 2b 78 	mr      r0,r5
    2e5c:	7c 89 23 78 	mr      r9,r4
    2e60:	7c 65 1b 78 	mr      r5,r3
    2e64:	61 08 20 03 	ori     r8,r8,8195
    2e68:	41 9e 00 6c 	beq-    cr7,0x2ed4
    2e6c:	81 65 01 08 	lwz     r11,264(r5)
    2e70:	78 04 00 20 	clrldi  r4,r0,32
    2e74:	81 45 01 04 	lwz     r10,260(r5)
    2e78:	2f 89 00 00 	cmpwi   cr7,r9,0
    2e7c:	79 23 00 20 	clrldi  r3,r9,32
    2e80:	39 00 00 00 	li      r8,0
    2e84:	90 0b 00 04 	stw     r0,4(r11)
    2e88:	90 eb 00 08 	stw     r7,8(r11)
    2e8c:	91 2b 00 0c 	stw     r9,12(r11)
    2e90:	90 eb 00 00 	stw     r7,0(r11)
    2e94:	80 0a 00 0c 	lwz     r0,12(r10)
    2e98:	90 0b 00 10 	stw     r0,16(r11)
    2e9c:	81 2a 00 00 	lwz     r9,0(r10)
    2ea0:	91 2b 00 14 	stw     r9,20(r11)
    2ea4:	80 0a 00 04 	lwz     r0,4(r10)
    2ea8:	90 0b 00 18 	stw     r0,24(r11)
    2eac:	81 2a 00 08 	lwz     r9,8(r10)
    2eb0:	91 2b 00 1c 	stw     r9,28(r11)
    2eb4:	80 0a 00 0c 	lwz     r0,12(r10)
    2eb8:	90 0b 00 20 	stw     r0,32(r11)
    2ebc:	80 a5 01 88 	lwz     r5,392(r5)
    2ec0:	41 9e 00 14 	beq-    cr7,0x2ed4
    2ec4:	78 a5 00 20 	clrldi  r5,r5,32
    2ec8:	48 00 18 d1 	bl      0x4798
    2ecc:	e8 41 00 28 	ld      r2,40(r1)
    2ed0:	39 00 00 00 	li      r8,0
    2ed4:	e8 01 00 80 	ld      r0,128(r1)
    2ed8:	7d 03 07 b4 	extsw   r3,r8
    2edc:	38 21 00 70 	addi    r1,r1,112
    2ee0:	7c 08 03 a6 	mtlr    r0
    2ee4:	4e 80 00 20 	blr
    2ee8:	7d 80 00 26 	mfcr    r12
    2eec:	f8 21 fe 21 	stdu    r1,-480(r1)
    2ef0:	fa 81 01 80 	std     r20,384(r1)
    2ef4:	3e 80 aa aa 	lis     r20,-21846
    2ef8:	fa 61 01 78 	std     r19,376(r1)
    2efc:	fa a1 01 88 	std     r21,392(r1)
    2f00:	fa c1 01 90 	std     r22,400(r1)
    2f04:	fb 21 01 a8 	std     r25,424(r1)
    2f08:	fb 61 01 b8 	std     r27,440(r1)
    2f0c:	fb e1 01 d8 	std     r31,472(r1)
    2f10:	7c 76 1b 78 	mr      r22,r3
    2f14:	7c 7f 1b 78 	mr      r31,r3
    2f18:	62 94 aa ab 	ori     r20,r20,43691
    2f1c:	78 7b 00 20 	clrldi  r27,r3,32
    2f20:	3a a0 00 01 	li      r21,1
    2f24:	3b 20 00 00 	li      r25,0
    2f28:	3a 61 00 70 	addi    r19,r1,112
    2f2c:	fa e1 01 98 	std     r23,408(r1)
    2f30:	fb 01 01 a0 	std     r24,416(r1)
    2f34:	fb 41 01 b0 	std     r26,432(r1)
    2f38:	fb 81 01 c0 	std     r28,448(r1)
    2f3c:	fb a1 01 c8 	std     r29,456(r1)
    2f40:	fb c1 01 d0 	std     r30,464(r1)
    2f44:	91 81 01 e8 	stw     r12,488(r1)
    2f48:	7c 08 02 a6 	mflr    r0
    2f4c:	f8 01 01 f0 	std     r0,496(r1)
    2f50:	80 1f 00 d8 	lwz     r0,216(r31)
    2f54:	2f 80 00 00 	cmpwi   cr7,r0,0
    2f58:	41 9e 03 44 	beq-    cr7,0x329c
    2f5c:	38 76 01 38 	addi    r3,r22,312
    2f60:	78 63 00 20 	clrldi  r3,r3,32
    2f64:	48 00 17 11 	bl      0x4674
    2f68:	60 00 00 00 	nop
    2f6c:	2f 83 00 00 	cmpwi   cr7,r3,0
    2f70:	41 9e 00 08 	beq-    cr7,0x2f78
    2f74:	92 bf 01 54 	stw     r21,340(r31)
    2f78:	80 7f 01 30 	lwz     r3,304(r31)
    2f7c:	38 80 00 00 	li      r4,0
    2f80:	39 60 00 66 	li      r11,102
    2f84:	44 00 00 02 	sc      
    2f88:	2e 03 00 00 	cmpwi   cr4,r3,0
    2f8c:	41 92 00 08 	beq-    cr4,0x2f94
    2f90:	92 bf 01 54 	stw     r21,340(r31)
    2f94:	80 1f 00 fc 	lwz     r0,252(r31)
    2f98:	2f 80 00 00 	cmpwi   cr7,r0,0
    2f9c:	41 9e 00 20 	beq-    cr7,0x2fbc
    2fa0:	80 7f 01 34 	lwz     r3,308(r31)
    2fa4:	38 80 00 00 	li      r4,0
    2fa8:	39 60 00 6b 	li      r11,107
    2fac:	44 00 00 02 	sc      
    2fb0:	83 bf 00 fc 	lwz     r29,252(r31)
    2fb4:	2f 9d 00 00 	cmpwi   cr7,r29,0
    2fb8:	40 9e ff e8 	bne+    cr7,0x2fa0
    2fbc:	80 7f 01 50 	lwz     r3,336(r31)
    2fc0:	38 80 00 00 	li      r4,0
    2fc4:	39 60 00 66 	li      r11,102
    2fc8:	44 00 00 02 	sc      
    2fcc:	80 df 00 b0 	lwz     r6,176(r31)
    2fd0:	1d 26 00 2c 	mulli   r9,r6,44
    2fd4:	7d 29 07 b4 	extsw   r9,r9
    2fd8:	7c 1b 48 2e 	lwzx    r0,r27,r9
    2fdc:	2f 80 00 ff 	cmpwi   cr7,r0,255
    2fe0:	41 9e 03 28 	beq-    cr7,0x3308
    2fe4:	39 60 00 68 	li      r11,104
    2fe8:	1c c6 00 2c 	mulli   r6,r6,44
    2fec:	7c c6 07 b4 	extsw   r6,r6
    2ff0:	7d 3b 32 14 	add     r9,r27,r6
    2ff4:	7c 1b 30 2e 	lwzx    r0,r27,r6
    2ff8:	81 49 00 04 	lwz     r10,4(r9)
    2ffc:	81 09 00 08 	lwz     r8,8(r9)
    3000:	80 e9 00 0c 	lwz     r7,12(r9)
    3004:	90 01 00 90 	stw     r0,144(r1)
    3008:	91 41 00 94 	stw     r10,148(r1)
    300c:	91 01 00 98 	stw     r8,152(r1)
    3010:	90 e1 00 9c 	stw     r7,156(r1)
    3014:	80 09 00 10 	lwz     r0,16(r9)
    3018:	81 49 00 14 	lwz     r10,20(r9)
    301c:	81 09 00 18 	lwz     r8,24(r9)
    3020:	80 e9 00 1c 	lwz     r7,28(r9)
    3024:	90 01 00 a0 	stw     r0,160(r1)
    3028:	91 41 00 a4 	stw     r10,164(r1)
    302c:	91 01 00 a8 	stw     r8,168(r1)
    3030:	90 e1 00 ac 	stw     r7,172(r1)
    3034:	80 09 00 20 	lwz     r0,32(r9)
    3038:	81 49 00 24 	lwz     r10,36(r9)
    303c:	81 09 00 28 	lwz     r8,40(r9)
    3040:	90 01 00 b0 	stw     r0,176(r1)
    3044:	38 00 00 ff 	li      r0,255
    3048:	91 41 00 b4 	stw     r10,180(r1)
    304c:	91 01 00 b8 	stw     r8,184(r1)
    3050:	7c 1b 31 2e 	stwx    r0,r27,r6
    3054:	81 3f 00 b0 	lwz     r9,176(r31)
    3058:	81 5f 00 b8 	lwz     r10,184(r31)
    305c:	39 29 00 01 	addi    r9,r9,1
    3060:	80 7f 01 50 	lwz     r3,336(r31)
    3064:	39 4a ff ff 	addi    r10,r10,-1
    3068:	55 29 07 be 	clrlwi  r9,r9,30
    306c:	91 5f 00 b8 	stw     r10,184(r31)
    3070:	91 3f 00 b0 	stw     r9,176(r31)
    3074:	44 00 00 02 	sc      
    3078:	83 a1 00 b4 	lwz     r29,180(r1)
    307c:	80 01 00 9c 	lwz     r0,156(r1)
    3080:	2f 9d 00 03 	cmpwi   cr7,r29,3
    3084:	83 41 00 90 	lwz     r26,144(r1)
    3088:	83 01 00 94 	lwz     r24,148(r1)
    308c:	83 81 00 98 	lwz     r28,152(r1)
    3090:	81 61 00 a4 	lwz     r11,164(r1)
    3094:	80 81 00 a8 	lwz     r4,168(r1)
    3098:	81 41 00 ac 	lwz     r10,172(r1)
    309c:	80 a1 00 b0 	lwz     r5,176(r1)
    30a0:	90 01 00 c8 	stw     r0,200(r1)
    30a4:	81 21 00 a0 	lwz     r9,160(r1)
    30a8:	80 01 00 b8 	lwz     r0,184(r1)
    30ac:	91 21 00 cc 	stw     r9,204(r1)
    30b0:	90 01 00 e4 	stw     r0,228(r1)
    30b4:	93 41 00 bc 	stw     r26,188(r1)
    30b8:	93 01 00 c0 	stw     r24,192(r1)
    30bc:	93 81 00 c4 	stw     r28,196(r1)
    30c0:	91 61 00 d0 	stw     r11,208(r1)
    30c4:	90 81 00 d4 	stw     r4,212(r1)
    30c8:	91 41 00 d8 	stw     r10,216(r1)
    30cc:	90 a1 00 dc 	stw     r5,220(r1)
    30d0:	93 a1 00 e0 	stw     r29,224(r1)
    30d4:	41 9e 03 b8 	beq-    cr7,0x348c
    30d8:	2f 9d 00 00 	cmpwi   cr7,r29,0
    30dc:	41 9e 02 40 	beq-    cr7,0x331c
    30e0:	2f 9d 00 01 	cmpwi   cr7,r29,1
    30e4:	41 9e 04 1c 	beq-    cr7,0x3500
    30e8:	83 df 01 04 	lwz     r30,260(r31)
    30ec:	82 ff 01 00 	lwz     r23,256(r31)
    30f0:	81 5e 00 08 	lwz     r10,8(r30)
    30f4:	2c 8a 00 01 	cmpwi   cr1,r10,1
    30f8:	41 86 03 8c 	beq-    cr1,0x3484
    30fc:	2f 8a 00 02 	cmpwi   cr7,r10,2
    3100:	41 9e 02 d8 	beq-    cr7,0x33d8
    3104:	2f 8a 00 03 	cmpwi   cr7,r10,3
    3108:	7f 9d e3 78 	mr      r29,r28
    310c:	41 9e 02 cc 	beq-    cr7,0x33d8
    3110:	81 7e 00 00 	lwz     r11,0(r30)
    3114:	2f 0b 00 01 	cmpwi   cr6,r11,1
    3118:	41 9a 02 d8 	beq-    cr6,0x33f0
    311c:	2f 8b 00 05 	cmpwi   cr7,r11,5
    3120:	41 9e 02 48 	beq-    cr7,0x3368
    3124:	2f 8b 00 04 	cmpwi   cr7,r11,4
    3128:	41 9e 02 40 	beq-    cr7,0x3368
    312c:	2f 8b 00 08 	cmpwi   cr7,r11,8
    3130:	41 9e 04 00 	beq-    cr7,0x3530
    3134:	2f 8b 00 0a 	cmpwi   cr7,r11,10
    3138:	41 9e 04 44 	beq-    cr7,0x357c
    313c:	80 1f 01 84 	lwz     r0,388(r31)
    3140:	2f 80 00 01 	cmpwi   cr7,r0,1
    3144:	41 9e 02 3c 	beq-    cr7,0x3380
    3148:	81 3f 01 08 	lwz     r9,264(r31)
    314c:	38 80 00 00 	li      r4,0
    3150:	39 60 00 66 	li      r11,102
    3154:	93 09 00 04 	stw     r24,4(r9)
    3158:	93 89 00 08 	stw     r28,8(r9)
    315c:	93 29 00 00 	stw     r25,0(r9)
    3160:	93 29 00 0c 	stw     r25,12(r9)
    3164:	92 e9 00 10 	stw     r23,16(r9)
    3168:	93 a9 00 14 	stw     r29,20(r9)
    316c:	80 1e 00 00 	lwz     r0,0(r30)
    3170:	90 09 00 18 	stw     r0,24(r9)
    3174:	81 5e 00 04 	lwz     r10,4(r30)
    3178:	91 49 00 1c 	stw     r10,28(r9)
    317c:	80 1e 00 08 	lwz     r0,8(r30)
    3180:	90 09 00 20 	stw     r0,32(r9)
    3184:	81 5e 00 0c 	lwz     r10,12(r30)
    3188:	91 49 00 24 	stw     r10,36(r9)
    318c:	80 1f 01 84 	lwz     r0,388(r31)
    3190:	93 29 00 40 	stw     r25,64(r9)
    3194:	90 09 00 28 	stw     r0,40(r9)
    3198:	93 29 00 2c 	stw     r25,44(r9)
    319c:	93 29 00 30 	stw     r25,48(r9)
    31a0:	93 29 00 34 	stw     r25,52(r9)
    31a4:	93 29 00 38 	stw     r25,56(r9)
    31a8:	93 29 00 3c 	stw     r25,60(r9)
    31ac:	38 00 00 05 	li      r0,5
    31b0:	39 20 00 40 	li      r9,64
    31b4:	90 01 00 80 	stw     r0,128(r1)
    31b8:	91 21 00 84 	stw     r9,132(r1)
    31bc:	80 7f 01 7c 	lwz     r3,380(r31)
    31c0:	44 00 00 02 	sc      
    31c4:	2e 03 00 00 	cmpwi   cr4,r3,0
    31c8:	41 92 02 30 	beq-    cr4,0x33f8
    31cc:	81 3f 01 54 	lwz     r9,340(r31)
    31d0:	80 1e 00 00 	lwz     r0,0(r30)
    31d4:	2f 89 00 01 	cmpwi   cr7,r9,1
    31d8:	90 01 00 74 	stw     r0,116(r1)
    31dc:	80 1e 00 04 	lwz     r0,4(r30)
    31e0:	39 21 00 74 	addi    r9,r1,116
    31e4:	93 a1 00 7c 	stw     r29,124(r1)
    31e8:	90 01 00 78 	stw     r0,120(r1)
    31ec:	91 21 00 70 	stw     r9,112(r1)
    31f0:	41 9e 02 5c 	beq-    cr7,0x344c
    31f4:	81 3f 00 dc 	lwz     r9,220(r31)
    31f8:	2f 89 00 00 	cmpwi   cr7,r9,0
    31fc:	41 9e 00 28 	beq-    cr7,0x3224
    3200:	79 29 00 20 	clrldi  r9,r9,32
    3204:	80 9f 00 e0 	lwz     r4,224(r31)
    3208:	7b 43 00 20 	clrldi  r3,r26,32
    320c:	80 09 00 00 	lwz     r0,0(r9)
    3210:	f8 41 00 28 	std     r2,40(r1)
    3214:	7c 09 03 a6 	mtctr   r0
    3218:	80 49 00 04 	lwz     r2,4(r9)
    321c:	4e 80 04 21 	bctrl
    3220:	e8 41 00 28 	ld      r2,40(r1)
    3224:	3b c0 00 01 	li      r30,1
    3228:	80 7f 01 30 	lwz     r3,304(r31)
    322c:	39 60 00 68 	li      r11,104
    3230:	93 df 00 fc 	stw     r30,252(r31)
    3234:	44 00 00 02 	sc      
    3238:	2e 03 00 00 	cmpwi   cr4,r3,0
    323c:	41 92 00 b8 	beq-    cr4,0x32f4
    3240:	93 df 01 54 	stw     r30,340(r31)
    3244:	3d 20 80 61 	lis     r9,-32671
    3248:	61 29 00 01 	ori     r9,r9,1
    324c:	81 7f 00 e4 	lwz     r11,228(r31)
    3250:	2f 8b 00 00 	cmpwi   cr7,r11,0
    3254:	41 9e fc fc 	beq+    cr7,0x2f50
    3258:	79 6b 00 20 	clrldi  r11,r11,32
    325c:	7b 43 00 20 	clrldi  r3,r26,32
    3260:	7a e4 00 20 	clrldi  r4,r23,32
    3264:	7b a5 00 20 	clrldi  r5,r29,32
    3268:	7d 29 07 b4 	extsw   r9,r9
    326c:	80 0b 00 00 	lwz     r0,0(r11)
    3270:	7a 67 00 20 	clrldi  r7,r19,32
    3274:	f8 41 00 28 	std     r2,40(r1)
    3278:	7c 09 03 a6 	mtctr   r0
    327c:	80 df 00 e8 	lwz     r6,232(r31)
    3280:	39 00 00 00 	li      r8,0
    3284:	80 4b 00 04 	lwz     r2,4(r11)
    3288:	4e 80 04 21 	bctrl
    328c:	e8 41 00 28 	ld      r2,40(r1)
    3290:	80 1f 00 d8 	lwz     r0,216(r31)
    3294:	2f 80 00 00 	cmpwi   cr7,r0,0
    3298:	40 9e fc c4 	bne+    cr7,0x2f5c
    329c:	38 60 00 00 	li      r3,0
    32a0:	48 00 15 19 	bl      0x47b8
    32a4:	e8 41 00 28 	ld      r2,40(r1)
    32a8:	e8 01 01 f0 	ld      r0,496(r1)
    32ac:	81 81 01 e8 	lwz     r12,488(r1)
    32b0:	ea 61 01 78 	ld      r19,376(r1)
    32b4:	7c 08 03 a6 	mtlr    r0
    32b8:	ea 81 01 80 	ld      r20,384(r1)
    32bc:	7d 90 81 20 	mtocrf  8,r12
    32c0:	ea a1 01 88 	ld      r21,392(r1)
    32c4:	ea c1 01 90 	ld      r22,400(r1)
    32c8:	ea e1 01 98 	ld      r23,408(r1)
    32cc:	eb 01 01 a0 	ld      r24,416(r1)
    32d0:	eb 21 01 a8 	ld      r25,424(r1)
    32d4:	eb 41 01 b0 	ld      r26,432(r1)
    32d8:	eb 61 01 b8 	ld      r27,440(r1)
    32dc:	eb 81 01 c0 	ld      r28,448(r1)
    32e0:	eb a1 01 c8 	ld      r29,456(r1)
    32e4:	eb c1 01 d0 	ld      r30,464(r1)
    32e8:	eb e1 01 d8 	ld      r31,472(r1)
    32ec:	38 21 01 e0 	addi    r1,r1,480
    32f0:	4e 80 00 20 	blr
    32f4:	80 1f 01 54 	lwz     r0,340(r31)
    32f8:	39 20 00 00 	li      r9,0
    32fc:	2f 80 00 01 	cmpwi   cr7,r0,1
    3300:	40 9e ff 4c 	bne+    cr7,0x324c
    3304:	4b ff ff 40 	b       0x3244
    3308:	80 7f 01 50 	lwz     r3,336(r31)
    330c:	39 60 00 68 	li      r11,104
    3310:	44 00 00 02 	sc      
    3314:	80 df 00 b0 	lwz     r6,176(r31)
    3318:	4b ff fc cc 	b       0x2fe4
    331c:	79 69 07 c6 	rldicr  r9,r11,32,31
    3320:	79 40 07 c6 	rldicr  r0,r10,32,31
    3324:	78 84 00 20 	clrldi  r4,r4,32
    3328:	78 a5 00 20 	clrldi  r5,r5,32
    332c:	7c 84 4b 78 	or      r4,r4,r9
    3330:	7c a5 03 78 	or      r5,r5,r0
    3334:	7f 63 db 78 	mr      r3,r27
    3338:	4b ff f9 99 	bl      0x2cd0
    333c:	2f 83 00 00 	cmpwi   cr7,r3,0
    3340:	41 9e 00 08 	beq-    cr7,0x3348
    3344:	92 bf 01 54 	stw     r21,340(r31)
    3348:	93 bf 00 fc 	stw     r29,252(r31)
    334c:	80 7f 01 30 	lwz     r3,304(r31)
    3350:	39 60 00 68 	li      r11,104
    3354:	44 00 00 02 	sc      
    3358:	2e 03 00 00 	cmpwi   cr4,r3,0
    335c:	41 92 fb f4 	beq+    cr4,0x2f50
    3360:	92 bf 01 54 	stw     r21,340(r31)
    3364:	4b ff fb ec 	b       0x2f50
    3368:	57 a0 08 3c 	rlwinm  r0,r29,1,0,30
    336c:	7c 00 ea 14 	add     r0,r0,r29
    3370:	54 1d f0 be 	rlwinm  r29,r0,30,2,31
    3374:	80 1f 01 84 	lwz     r0,388(r31)
    3378:	2f 80 00 01 	cmpwi   cr7,r0,1
    337c:	40 9e fd cc 	bne+    cr7,0x3148
    3380:	41 86 01 c4 	beq-    cr1,0x3544
    3384:	2f 8a 00 02 	cmpwi   cr7,r10,2
    3388:	41 9e 02 04 	beq-    cr7,0x358c
    338c:	2f 8a 00 03 	cmpwi   cr7,r10,3
    3390:	41 9e 01 dc 	beq-    cr7,0x356c
    3394:	41 9a fd b4 	beq+    cr6,0x3148
    3398:	2f 8b 00 03 	cmpwi   cr7,r11,3
    339c:	41 9e fd ac 	beq+    cr7,0x3148
    33a0:	2f 8b 00 04 	cmpwi   cr7,r11,4
    33a4:	41 9e 02 00 	beq-    cr7,0x35a4
    33a8:	2f 8b 00 05 	cmpwi   cr7,r11,5
    33ac:	41 9e 02 08 	beq-    cr7,0x35b4
    33b0:	2f 8b 00 06 	cmpwi   cr7,r11,6
    33b4:	41 9e 02 2c 	beq-    cr7,0x35e0
    33b8:	2f 8b 00 07 	cmpwi   cr7,r11,7
    33bc:	41 9e 02 3c 	beq-    cr7,0x35f8
    33c0:	2f 8b 00 08 	cmpwi   cr7,r11,8
    33c4:	41 9e 01 f8 	beq-    cr7,0x35bc
    33c8:	2f 8b 00 09 	cmpwi   cr7,r11,9
    33cc:	40 9e fd 7c 	bne+    cr7,0x3148
    33d0:	57 bd f0 be 	rlwinm  r29,r29,30,2,31
    33d4:	4b ff fd 74 	b       0x3148
    33d8:	57 80 10 3a 	rlwinm  r0,r28,2,0,29
    33dc:	81 7e 00 00 	lwz     r11,0(r30)
    33e0:	2f 0b 00 01 	cmpwi   cr6,r11,1
    33e4:	7c 00 a0 16 	mulhwu  r0,r0,r20
    33e8:	54 1d f8 7e 	rlwinm  r29,r0,31,1,31
    33ec:	40 9a fd 30 	bne+    cr6,0x311c
    33f0:	57 bd f8 7e 	rlwinm  r29,r29,31,1,31
    33f4:	4b ff fd 48 	b       0x313c
    33f8:	38 81 00 80 	addi    r4,r1,128
    33fc:	80 7f 01 70 	lwz     r3,368(r31)
    3400:	38 a0 00 01 	li      r5,1
    3404:	78 84 00 20 	clrldi  r4,r4,32
    3408:	48 00 14 f1 	bl      0x48f8
    340c:	e8 41 00 28 	ld      r2,40(r1)
    3410:	2f 83 00 00 	cmpwi   cr7,r3,0
    3414:	41 9e 00 94 	beq-    cr7,0x34a8
    3418:	80 7f 01 7c 	lwz     r3,380(r31)
    341c:	39 60 00 68 	li      r11,104
    3420:	44 00 00 02 	sc      
    3424:	81 3f 01 54 	lwz     r9,340(r31)
    3428:	80 1e 00 00 	lwz     r0,0(r30)
    342c:	2f 89 00 01 	cmpwi   cr7,r9,1
    3430:	90 01 00 74 	stw     r0,116(r1)
    3434:	80 1e 00 04 	lwz     r0,4(r30)
    3438:	39 21 00 74 	addi    r9,r1,116
    343c:	93 a1 00 7c 	stw     r29,124(r1)
    3440:	90 01 00 78 	stw     r0,120(r1)
    3444:	91 21 00 70 	stw     r9,112(r1)
    3448:	40 9e fd ac 	bne+    cr7,0x31f4
    344c:	81 3f 00 ec 	lwz     r9,236(r31)
    3450:	2f 89 00 00 	cmpwi   cr7,r9,0
    3454:	41 9e fd a0 	beq+    cr7,0x31f4
    3458:	79 29 00 20 	clrldi  r9,r9,32
    345c:	80 9f 00 f0 	lwz     r4,240(r31)
    3460:	3c 60 80 61 	lis     r3,-32671
    3464:	60 63 00 01 	ori     r3,r3,1
    3468:	80 09 00 00 	lwz     r0,0(r9)
    346c:	f8 41 00 28 	std     r2,40(r1)
    3470:	7c 09 03 a6 	mtctr   r0
    3474:	80 49 00 04 	lwz     r2,4(r9)
    3478:	4e 80 04 21 	bctrl
    347c:	e8 41 00 28 	ld      r2,40(r1)
    3480:	4b ff fd 74 	b       0x31f4
    3484:	57 9d 08 3c 	rlwinm  r29,r28,1,0,30
    3488:	4b ff fc 88 	b       0x3110
    348c:	80 7f 01 30 	lwz     r3,304(r31)
    3490:	39 60 00 68 	li      r11,104
    3494:	44 00 00 02 	sc      
    3498:	38 60 00 00 	li      r3,0
    349c:	48 00 13 1d 	bl      0x47b8
    34a0:	e8 41 00 28 	ld      r2,40(r1)
    34a4:	4b ff fc 44 	b       0x30e8
    34a8:	80 7f 01 7c 	lwz     r3,380(r31)
    34ac:	39 60 00 68 	li      r11,104
    34b0:	44 00 00 02 	sc      
    34b4:	2e 03 00 00 	cmpwi   cr4,r3,0
    34b8:	40 92 fd 14 	bne+    cr4,0x31cc
    34bc:	80 7f 01 78 	lwz     r3,376(r31)
    34c0:	38 80 00 00 	li      r4,0
    34c4:	39 60 00 66 	li      r11,102
    34c8:	44 00 00 02 	sc      
    34cc:	2e 03 00 00 	cmpwi   cr4,r3,0
    34d0:	40 92 fc fc 	bne+    cr4,0x31cc
    34d4:	38 81 00 f0 	addi    r4,r1,240
    34d8:	80 7f 01 68 	lwz     r3,360(r31)
    34dc:	38 a0 00 00 	li      r5,0
    34e0:	78 84 00 20 	clrldi  r4,r4,32
    34e4:	38 c0 00 01 	li      r6,1
    34e8:	48 00 13 f1 	bl      0x48d8
    34ec:	e8 41 00 28 	ld      r2,40(r1)
    34f0:	80 7f 01 78 	lwz     r3,376(r31)
    34f4:	39 60 00 68 	li      r11,104
    34f8:	44 00 00 02 	sc      
    34fc:	4b ff fc d0 	b       0x31cc
    3500:	7f 63 db 78 	mr      r3,r27
    3504:	4b ff eb 11 	bl      0x2014
    3508:	2f 83 00 00 	cmpwi   cr7,r3,0
    350c:	40 9e 00 40 	bne-    cr7,0x354c
    3510:	93 3f 00 fc 	stw     r25,252(r31)
    3514:	80 7f 01 30 	lwz     r3,304(r31)
    3518:	39 60 00 68 	li      r11,104
    351c:	44 00 00 02 	sc      
    3520:	2e 03 00 00 	cmpwi   cr4,r3,0
    3524:	41 92 fa 2c 	beq+    cr4,0x2f50
    3528:	93 bf 01 54 	stw     r29,340(r31)
    352c:	4b ff fa 24 	b       0x2f50
    3530:	57 a0 10 3a 	rlwinm  r0,r29,2,0,29
    3534:	7c 00 ea 14 	add     r0,r0,r29
    3538:	7c 00 a0 16 	mulhwu  r0,r0,r20
    353c:	54 1d f0 be 	rlwinm  r29,r0,30,2,31
    3540:	4b ff fb fc 	b       0x313c
    3544:	57 9d 08 3c 	rlwinm  r29,r28,1,0,30
    3548:	4b ff fe 4c 	b       0x3394
    354c:	93 bf 01 54 	stw     r29,340(r31)
    3550:	93 3f 00 fc 	stw     r25,252(r31)
    3554:	80 7f 01 30 	lwz     r3,304(r31)
    3558:	39 60 00 68 	li      r11,104
    355c:	44 00 00 02 	sc      
    3560:	2e 03 00 00 	cmpwi   cr4,r3,0
    3564:	41 92 f9 ec 	beq+    cr4,0x2f50
    3568:	4b ff ff c0 	b       0x3528
    356c:	57 80 10 3a 	rlwinm  r0,r28,2,0,29
    3570:	7c 00 a0 16 	mulhwu  r0,r0,r20
    3574:	54 1d f8 7e 	rlwinm  r29,r0,31,1,31
    3578:	4b ff fe 1c 	b       0x3394
    357c:	57 a0 18 38 	rlwinm  r0,r29,3,0,28
    3580:	7c 1d 00 50 	subf    r0,r29,r0
    3584:	54 1d e8 fe 	rlwinm  r29,r0,29,3,31
    3588:	4b ff fb b4 	b       0x313c
    358c:	3c 00 cc cc 	lis     r0,-13108
    3590:	57 89 18 38 	rlwinm  r9,r28,3,0,28
    3594:	60 00 cc cd 	ori     r0,r0,52429
    3598:	7d 29 00 16 	mulhwu  r9,r9,r0
    359c:	55 3d f0 be 	rlwinm  r29,r9,30,2,31
    35a0:	4b ff fd f4 	b       0x3394
    35a4:	57 a0 08 3c 	rlwinm  r0,r29,1,0,30
    35a8:	7c 00 a0 16 	mulhwu  r0,r0,r20
    35ac:	54 1d f8 7e 	rlwinm  r29,r0,31,1,31
    35b0:	4b ff fb 98 	b       0x3148
    35b4:	57 bd f8 7e 	rlwinm  r29,r29,31,1,31
    35b8:	4b ff fb 90 	b       0x3148
    35bc:	3c 00 24 92 	lis     r0,9362
    35c0:	57 a9 08 3c 	rlwinm  r9,r29,1,0,30
    35c4:	60 00 49 25 	ori     r0,r0,18725
    35c8:	7c 09 00 16 	mulhwu  r0,r9,r0
    35cc:	7d 20 48 50 	subf    r9,r0,r9
    35d0:	55 29 f8 7e 	rlwinm  r9,r9,31,1,31
    35d4:	7c 00 4a 14 	add     r0,r0,r9
    35d8:	54 1d f0 be 	rlwinm  r29,r0,30,2,31
    35dc:	4b ff fb 6c 	b       0x3148
    35e0:	3c 00 cc cc 	lis     r0,-13108
    35e4:	57 a9 08 3c 	rlwinm  r9,r29,1,0,30
    35e8:	60 00 cc cd 	ori     r0,r0,52429
    35ec:	7d 29 00 16 	mulhwu  r9,r9,r0
    35f0:	55 3d f0 be 	rlwinm  r29,r9,30,2,31
    35f4:	4b ff fb 54 	b       0x3148
    35f8:	7c 1d a0 16 	mulhwu  r0,r29,r20
    35fc:	54 1d f8 7e 	rlwinm  r29,r0,31,1,31
    3600:	4b ff fb 48 	b       0x3148
    3604:	f8 21 fe a1 	stdu    r1,-352(r1)
    3608:	7c 08 02 a6 	mflr    r0
    360c:	39 20 00 00 	li      r9,0
    3610:	f8 01 01 70 	std     r0,368(r1)
    3614:	38 00 00 01 	li      r0,1
    3618:	91 21 00 74 	stw     r9,116(r1)
    361c:	90 01 00 70 	stw     r0,112(r1)
    3620:	fb 61 01 38 	std     r27,312(r1)
    3624:	fb a1 01 48 	std     r29,328(r1)
    3628:	fb c1 01 50 	std     r30,336(r1)
    362c:	7c 9d 23 78 	mr      r29,r4
    3630:	7c 7e 1b 78 	mr      r30,r3
    3634:	78 7b 00 20 	clrldi  r27,r3,32
    3638:	80 63 01 7c 	lwz     r3,380(r3)
    363c:	fb 41 01 30 	std     r26,304(r1)
    3640:	fb 81 01 40 	std     r28,320(r1)
    3644:	fb e1 01 58 	std     r31,344(r1)
    3648:	38 80 00 00 	li      r4,0
    364c:	39 60 00 66 	li      r11,102
    3650:	44 00 00 02 	sc      
    3654:	2f 83 00 00 	cmpwi   cr7,r3,0
    3658:	7c 7f 1b 78 	mr      r31,r3
    365c:	41 9e 00 30 	beq-    cr7,0x368c
    3660:	e8 01 01 70 	ld      r0,368(r1)
    3664:	7f e3 07 b4 	extsw   r3,r31
    3668:	eb 41 01 30 	ld      r26,304(r1)
    366c:	eb 61 01 38 	ld      r27,312(r1)
    3670:	7c 08 03 a6 	mtlr    r0
    3674:	eb 81 01 40 	ld      r28,320(r1)
    3678:	eb a1 01 48 	ld      r29,328(r1)
    367c:	eb c1 01 50 	ld      r30,336(r1)
    3680:	eb e1 01 58 	ld      r31,344(r1)
    3684:	38 21 01 60 	addi    r1,r1,352
    3688:	4e 80 00 20 	blr
    368c:	80 7e 01 70 	lwz     r3,368(r30)
    3690:	38 81 00 70 	addi    r4,r1,112
    3694:	38 a0 00 01 	li      r5,1
    3698:	48 00 12 61 	bl      0x48f8
    369c:	e8 41 00 28 	ld      r2,40(r1)
    36a0:	2f 83 00 00 	cmpwi   cr7,r3,0
    36a4:	7c 7f 1b 78 	mr      r31,r3
    36a8:	40 9e 00 70 	bne-    cr7,0x3718
    36ac:	80 7e 01 7c 	lwz     r3,380(r30)
    36b0:	39 60 00 68 	li      r11,104
    36b4:	44 00 00 02 	sc      
    36b8:	2f 83 00 00 	cmpwi   cr7,r3,0
    36bc:	7c 7f 1b 78 	mr      r31,r3
    36c0:	40 9e ff a0 	bne+    cr7,0x3660
    36c4:	80 7e 01 78 	lwz     r3,376(r30)
    36c8:	38 80 00 00 	li      r4,0
    36cc:	39 60 00 66 	li      r11,102
    36d0:	44 00 00 02 	sc      
    36d4:	2f 83 00 00 	cmpwi   cr7,r3,0
    36d8:	7c 7f 1b 78 	mr      r31,r3
    36dc:	40 9e ff 84 	bne+    cr7,0x3660
    36e0:	80 7e 01 68 	lwz     r3,360(r30)
    36e4:	38 81 00 b0 	addi    r4,r1,176
    36e8:	38 a0 00 00 	li      r5,0
    36ec:	38 c0 00 01 	li      r6,1
    36f0:	48 00 11 e9 	bl      0x48d8
    36f4:	e8 41 00 28 	ld      r2,40(r1)
    36f8:	2f 83 00 00 	cmpwi   cr7,r3,0
    36fc:	7c 7a 1b 78 	mr      r26,r3
    3700:	7c 7f 1b 78 	mr      r31,r3
    3704:	41 9e 00 4c 	beq-    cr7,0x3750
    3708:	80 7e 01 78 	lwz     r3,376(r30)
    370c:	39 60 00 68 	li      r11,104
    3710:	44 00 00 02 	sc      
    3714:	4b ff ff 4c 	b       0x3660
    3718:	80 7e 01 7c 	lwz     r3,380(r30)
    371c:	39 60 00 68 	li      r11,104
    3720:	44 00 00 02 	sc      
    3724:	e8 01 01 70 	ld      r0,368(r1)
    3728:	7f e3 07 b4 	extsw   r3,r31
    372c:	eb 41 01 30 	ld      r26,304(r1)
    3730:	eb 61 01 38 	ld      r27,312(r1)
    3734:	7c 08 03 a6 	mtlr    r0
    3738:	eb 81 01 40 	ld      r28,320(r1)
    373c:	eb a1 01 48 	ld      r29,328(r1)
    3740:	eb c1 01 50 	ld      r30,336(r1)
    3744:	eb e1 01 58 	ld      r31,344(r1)
    3748:	38 21 01 60 	addi    r1,r1,352
    374c:	4e 80 00 20 	blr
    3750:	80 7e 01 78 	lwz     r3,376(r30)
    3754:	39 60 00 68 	li      r11,104
    3758:	44 00 00 02 	sc      
    375c:	2f 83 00 00 	cmpwi   cr7,r3,0
    3760:	7c 7f 1b 78 	mr      r31,r3
    3764:	40 9e fe fc 	bne+    cr7,0x3660
    3768:	83 e1 00 b0 	lwz     r31,176(r1)
    376c:	2f 9f 00 00 	cmpwi   cr7,r31,0
    3770:	40 9e fe f0 	bne+    cr7,0x3660
    3774:	80 1d 00 00 	lwz     r0,0(r29)
    3778:	2b 80 00 1f 	cmplwi  cr7,r0,31
    377c:	40 9d 00 10 	ble-    cr7,0x378c
    3780:	3f e0 80 61 	lis     r31,-32671
    3784:	63 ff 20 03 	ori     r31,r31,8195
    3788:	4b ff fe d8 	b       0x3660
    378c:	80 1d 00 04 	lwz     r0,4(r29)
    3790:	2b 80 00 1f 	cmplwi  cr7,r0,31
    3794:	41 9d ff ec 	bgt+    cr7,0x3780
    3798:	80 1d 00 08 	lwz     r0,8(r29)
    379c:	2b 80 00 1f 	cmplwi  cr7,r0,31
    37a0:	41 9d ff e0 	bgt+    cr7,0x3780
    37a4:	80 1d 00 0c 	lwz     r0,12(r29)
    37a8:	2f 80 00 00 	cmpwi   cr7,r0,0
    37ac:	41 9e ff d4 	beq+    cr7,0x3780
    37b0:	80 7e 00 c8 	lwz     r3,200(r30)
    37b4:	38 80 00 00 	li      r4,0
    37b8:	39 60 00 66 	li      r11,102
    37bc:	44 00 00 02 	sc      
    37c0:	2f 83 00 00 	cmpwi   cr7,r3,0
    37c4:	7c 7f 1b 78 	mr      r31,r3
    37c8:	40 9e fe 98 	bne+    cr7,0x3660
    37cc:	80 1e 00 b8 	lwz     r0,184(r30)
    37d0:	2f 80 00 03 	cmpwi   cr7,r0,3
    37d4:	40 9d 00 1c 	ble-    cr7,0x37f0
    37d8:	80 7e 00 c8 	lwz     r3,200(r30)
    37dc:	39 60 00 68 	li      r11,104
    37e0:	44 00 00 02 	sc      
    37e4:	3f e0 80 61 	lis     r31,-32671
    37e8:	63 ff 00 04 	ori     r31,r31,4
    37ec:	4b ff fe 74 	b       0x3660
    37f0:	81 3e 01 04 	lwz     r9,260(r30)
    37f4:	7f 63 db 78 	mr      r3,r27
    37f8:	80 1d 00 0c 	lwz     r0,12(r29)
    37fc:	38 81 00 80 	addi    r4,r1,128
    3800:	81 7d 00 00 	lwz     r11,0(r29)
    3804:	3f e0 80 61 	lis     r31,-32671
    3808:	81 5d 00 04 	lwz     r10,4(r29)
    380c:	81 1d 00 08 	lwz     r8,8(r29)
    3810:	63 ff 00 01 	ori     r31,r31,1
    3814:	90 09 00 0c 	stw     r0,12(r9)
    3818:	91 69 00 00 	stw     r11,0(r9)
    381c:	91 49 00 04 	stw     r10,4(r9)
    3820:	91 09 00 08 	stw     r8,8(r9)
    3824:	91 61 00 94 	stw     r11,148(r1)
    3828:	91 41 00 98 	stw     r10,152(r1)
    382c:	91 01 00 9c 	stw     r8,156(r1)
    3830:	90 01 00 a0 	stw     r0,160(r1)
    3834:	93 41 00 a4 	stw     r26,164(r1)
    3838:	4b ff e6 9d 	bl      0x1ed4
    383c:	2f 83 00 00 	cmpwi   cr7,r3,0
    3840:	40 9e fe 20 	bne+    cr7,0x3660
    3844:	38 7e 01 38 	addi    r3,r30,312
    3848:	78 63 00 20 	clrldi  r3,r3,32
    384c:	48 00 0e a5 	bl      0x46f0
    3850:	60 00 00 00 	nop
    3854:	2f 83 00 00 	cmpwi   cr7,r3,0
    3858:	7c 7f 1b 78 	mr      r31,r3
    385c:	41 9e 00 14 	beq-    cr7,0x3870
    3860:	80 7e 00 c8 	lwz     r3,200(r30)
    3864:	39 60 00 68 	li      r11,104
    3868:	44 00 00 02 	sc      
    386c:	4b ff fd f4 	b       0x3660
    3870:	80 7e 00 c8 	lwz     r3,200(r30)
    3874:	39 60 00 68 	li      r11,104
    3878:	44 00 00 02 	sc      
    387c:	7c 7f 1b 78 	mr      r31,r3
    3880:	4b ff fd e0 	b       0x3660
    3884:	f8 21 ff 41 	stdu    r1,-192(r1)
    3888:	7c 08 02 a6 	mflr    r0
    388c:	fb a1 00 a8 	std     r29,168(r1)
    3890:	f8 01 00 d0 	std     r0,208(r1)
    3894:	fb c1 00 b0 	std     r30,176(r1)
    3898:	78 7d 00 20 	clrldi  r29,r3,32
    389c:	7c 7e 1b 78 	mr      r30,r3
    38a0:	80 63 00 c8 	lwz     r3,200(r3)
    38a4:	fb 81 00 a0 	std     r28,160(r1)
    38a8:	fb e1 00 b8 	std     r31,184(r1)
    38ac:	38 80 00 00 	li      r4,0
    38b0:	39 60 00 66 	li      r11,102
    38b4:	44 00 00 02 	sc      
    38b8:	2f 83 00 00 	cmpwi   cr7,r3,0
    38bc:	7c 7f 1b 78 	mr      r31,r3
    38c0:	40 9e 00 3c 	bne-    cr7,0x38fc
    38c4:	80 1e 00 b8 	lwz     r0,184(r30)
    38c8:	7f a3 eb 78 	mr      r3,r29
    38cc:	38 81 00 70 	addi    r4,r1,112
    38d0:	2f 80 00 03 	cmpwi   cr7,r0,3
    38d4:	39 60 00 68 	li      r11,104
    38d8:	41 9d 00 c0 	bgt-    cr7,0x3998
    38dc:	38 00 00 01 	li      r0,1
    38e0:	90 01 00 94 	stw     r0,148(r1)
    38e4:	4b ff e5 f1 	bl      0x1ed4
    38e8:	7c 7f 1b 78 	mr      r31,r3
    38ec:	38 7e 01 38 	addi    r3,r30,312
    38f0:	2f 9f 00 00 	cmpwi   cr7,r31,0
    38f4:	78 63 00 20 	clrldi  r3,r3,32
    38f8:	41 9e 00 28 	beq-    cr7,0x3920
    38fc:	e8 01 00 d0 	ld      r0,208(r1)
    3900:	7f e3 07 b4 	extsw   r3,r31
    3904:	eb 81 00 a0 	ld      r28,160(r1)
    3908:	eb a1 00 a8 	ld      r29,168(r1)
    390c:	7c 08 03 a6 	mtlr    r0
    3910:	eb c1 00 b0 	ld      r30,176(r1)
    3914:	eb e1 00 b8 	ld      r31,184(r1)
    3918:	38 21 00 c0 	addi    r1,r1,192
    391c:	4e 80 00 20 	blr
    3920:	48 00 0d d1 	bl      0x46f0
    3924:	60 00 00 00 	nop
    3928:	39 60 00 68 	li      r11,104
    392c:	2f 83 00 00 	cmpwi   cr7,r3,0
    3930:	7c 7f 1b 78 	mr      r31,r3
    3934:	40 9e 00 38 	bne-    cr7,0x396c
    3938:	80 7e 00 c8 	lwz     r3,200(r30)
    393c:	39 60 00 68 	li      r11,104
    3940:	44 00 00 02 	sc      
    3944:	7c 7f 1b 78 	mr      r31,r3
    3948:	e8 01 00 d0 	ld      r0,208(r1)
    394c:	eb 81 00 a0 	ld      r28,160(r1)
    3950:	7f e3 07 b4 	extsw   r3,r31
    3954:	eb a1 00 a8 	ld      r29,168(r1)
    3958:	eb c1 00 b0 	ld      r30,176(r1)
    395c:	7c 08 03 a6 	mtlr    r0
    3960:	eb e1 00 b8 	ld      r31,184(r1)
    3964:	38 21 00 c0 	addi    r1,r1,192
    3968:	4e 80 00 20 	blr
    396c:	80 7e 00 c8 	lwz     r3,200(r30)
    3970:	44 00 00 02 	sc      
    3974:	e8 01 00 d0 	ld      r0,208(r1)
    3978:	7f e3 07 b4 	extsw   r3,r31
    397c:	eb 81 00 a0 	ld      r28,160(r1)
    3980:	eb a1 00 a8 	ld      r29,168(r1)
    3984:	7c 08 03 a6 	mtlr    r0
    3988:	eb c1 00 b0 	ld      r30,176(r1)
    398c:	eb e1 00 b8 	ld      r31,184(r1)
    3990:	38 21 00 c0 	addi    r1,r1,192
    3994:	4e 80 00 20 	blr
    3998:	80 7e 00 c8 	lwz     r3,200(r30)
    399c:	44 00 00 02 	sc      
    39a0:	3f e0 80 61 	lis     r31,-32671
    39a4:	63 ff 00 04 	ori     r31,r31,4
    39a8:	4b ff ff 54 	b       0x38fc
    39ac:	f8 21 ff 31 	stdu    r1,-208(r1)
    39b0:	7c 08 02 a6 	mflr    r0
    39b4:	fb 41 00 a0 	std     r26,160(r1)
    39b8:	f8 01 00 e0 	std     r0,224(r1)
    39bc:	fb 81 00 b0 	std     r28,176(r1)
    39c0:	fb a1 00 b8 	std     r29,184(r1)
    39c4:	fb c1 00 c0 	std     r30,192(r1)
    39c8:	7c 9a 23 78 	mr      r26,r4
    39cc:	7c 7e 1b 78 	mr      r30,r3
    39d0:	78 7d 00 20 	clrldi  r29,r3,32
    39d4:	80 63 00 c8 	lwz     r3,200(r3)
    39d8:	fb 61 00 a8 	std     r27,168(r1)
    39dc:	fb e1 00 c8 	std     r31,200(r1)
    39e0:	7c bc 2b 78 	mr      r28,r5
    39e4:	38 80 00 00 	li      r4,0
    39e8:	39 60 00 66 	li      r11,102
    39ec:	44 00 00 02 	sc      
    39f0:	2f 83 00 00 	cmpwi   cr7,r3,0
    39f4:	7c 7f 1b 78 	mr      r31,r3
    39f8:	40 9e 00 50 	bne-    cr7,0x3a48
    39fc:	80 1e 00 b8 	lwz     r0,184(r30)
    3a00:	7f a3 eb 78 	mr      r3,r29
    3a04:	38 81 00 70 	addi    r4,r1,112
    3a08:	2f 80 00 03 	cmpwi   cr7,r0,3
    3a0c:	39 60 00 68 	li      r11,104
    3a10:	41 9d 00 ec 	bgt-    cr7,0x3afc
    3a14:	81 7c 00 04 	lwz     r11,4(r28)
    3a18:	38 00 00 02 	li      r0,2
    3a1c:	81 3c 00 00 	lwz     r9,0(r28)
    3a20:	93 41 00 70 	stw     r26,112(r1)
    3a24:	90 01 00 94 	stw     r0,148(r1)
    3a28:	91 21 00 74 	stw     r9,116(r1)
    3a2c:	91 61 00 78 	stw     r11,120(r1)
    3a30:	4b ff e4 a5 	bl      0x1ed4
    3a34:	7c 7f 1b 78 	mr      r31,r3
    3a38:	38 7e 01 38 	addi    r3,r30,312
    3a3c:	2f 9f 00 00 	cmpwi   cr7,r31,0
    3a40:	78 63 00 20 	clrldi  r3,r3,32
    3a44:	41 9e 00 30 	beq-    cr7,0x3a74
    3a48:	e8 01 00 e0 	ld      r0,224(r1)
    3a4c:	7f e3 07 b4 	extsw   r3,r31
    3a50:	eb 41 00 a0 	ld      r26,160(r1)
    3a54:	eb 61 00 a8 	ld      r27,168(r1)
    3a58:	7c 08 03 a6 	mtlr    r0
    3a5c:	eb 81 00 b0 	ld      r28,176(r1)
    3a60:	eb a1 00 b8 	ld      r29,184(r1)
    3a64:	eb c1 00 c0 	ld      r30,192(r1)
    3a68:	eb e1 00 c8 	ld      r31,200(r1)
    3a6c:	38 21 00 d0 	addi    r1,r1,208
    3a70:	4e 80 00 20 	blr
    3a74:	48 00 0c 7d 	bl      0x46f0
    3a78:	60 00 00 00 	nop
    3a7c:	39 60 00 68 	li      r11,104
    3a80:	2f 83 00 00 	cmpwi   cr7,r3,0
    3a84:	7c 7f 1b 78 	mr      r31,r3
    3a88:	40 9e 00 40 	bne-    cr7,0x3ac8
    3a8c:	80 7e 00 c8 	lwz     r3,200(r30)
    3a90:	39 60 00 68 	li      r11,104
    3a94:	44 00 00 02 	sc      
    3a98:	7c 7f 1b 78 	mr      r31,r3
    3a9c:	e8 01 00 e0 	ld      r0,224(r1)
    3aa0:	eb 41 00 a0 	ld      r26,160(r1)
    3aa4:	7f e3 07 b4 	extsw   r3,r31
    3aa8:	eb 61 00 a8 	ld      r27,168(r1)
    3aac:	eb 81 00 b0 	ld      r28,176(r1)
    3ab0:	7c 08 03 a6 	mtlr    r0
    3ab4:	eb a1 00 b8 	ld      r29,184(r1)
    3ab8:	eb c1 00 c0 	ld      r30,192(r1)
    3abc:	eb e1 00 c8 	ld      r31,200(r1)
    3ac0:	38 21 00 d0 	addi    r1,r1,208
    3ac4:	4e 80 00 20 	blr
    3ac8:	80 7e 00 c8 	lwz     r3,200(r30)
    3acc:	44 00 00 02 	sc      
    3ad0:	e8 01 00 e0 	ld      r0,224(r1)
    3ad4:	7f e3 07 b4 	extsw   r3,r31
    3ad8:	eb 41 00 a0 	ld      r26,160(r1)
    3adc:	eb 61 00 a8 	ld      r27,168(r1)
    3ae0:	7c 08 03 a6 	mtlr    r0
    3ae4:	eb 81 00 b0 	ld      r28,176(r1)
    3ae8:	eb a1 00 b8 	ld      r29,184(r1)
    3aec:	eb c1 00 c0 	ld      r30,192(r1)
    3af0:	eb e1 00 c8 	ld      r31,200(r1)
    3af4:	38 21 00 d0 	addi    r1,r1,208
    3af8:	4e 80 00 20 	blr
    3afc:	80 7e 00 c8 	lwz     r3,200(r30)
    3b00:	44 00 00 02 	sc      
    3b04:	3f e0 80 61 	lis     r31,-32671
    3b08:	63 ff 00 04 	ori     r31,r31,4
    3b0c:	4b ff ff 3c 	b       0x3a48
    3b10:	f8 21 ff 61 	stdu    r1,-160(r1)
    3b14:	7c 08 02 a6 	mflr    r0
    3b18:	fb 81 00 80 	std     r28,128(r1)
    3b1c:	f8 01 00 b0 	std     r0,176(r1)
    3b20:	38 00 00 00 	li      r0,0
    3b24:	fb a1 00 88 	std     r29,136(r1)
    3b28:	fb c1 00 90 	std     r30,144(r1)
    3b2c:	7c 7c 1b 78 	mr      r28,r3
    3b30:	7c 7e 1b 78 	mr      r30,r3
    3b34:	78 7d 00 20 	clrldi  r29,r3,32
    3b38:	90 03 00 d8 	stw     r0,216(r3)
    3b3c:	fb e1 00 98 	std     r31,152(r1)
    3b40:	38 80 00 00 	li      r4,0
    3b44:	80 63 00 c8 	lwz     r3,200(r3)
    3b48:	39 60 00 66 	li      r11,102
    3b4c:	44 00 00 02 	sc      
    3b50:	2f 83 00 00 	cmpwi   cr7,r3,0
    3b54:	7c 7f 1b 78 	mr      r31,r3
    3b58:	40 9e 02 84 	bne-    cr7,0x3ddc
    3b5c:	80 7e 01 50 	lwz     r3,336(r30)
    3b60:	38 80 00 00 	li      r4,0
    3b64:	39 60 00 66 	li      r11,102
    3b68:	44 00 00 02 	sc      
    3b6c:	2f 83 00 00 	cmpwi   cr7,r3,0
    3b70:	7c 7f 1b 78 	mr      r31,r3
    3b74:	40 9e 02 68 	bne-    cr7,0x3ddc
    3b78:	80 1e 00 b8 	lwz     r0,184(r30)
    3b7c:	2f 80 00 00 	cmpwi   cr7,r0,0
    3b80:	40 9d 02 80 	ble-    cr7,0x3e00
    3b84:	81 3e 00 b0 	lwz     r9,176(r30)
    3b88:	38 00 00 03 	li      r0,3
    3b8c:	39 60 00 68 	li      r11,104
    3b90:	1d 29 00 2c 	mulli   r9,r9,44
    3b94:	39 29 00 20 	addi    r9,r9,32
    3b98:	7d 29 07 b4 	extsw   r9,r9
    3b9c:	7d 3d 4a 14 	add     r9,r29,r9
    3ba0:	90 09 00 04 	stw     r0,4(r9)
    3ba4:	80 7e 01 50 	lwz     r3,336(r30)
    3ba8:	90 1e 00 a8 	stw     r0,168(r30)
    3bac:	90 1e 00 24 	stw     r0,36(r30)
    3bb0:	90 1e 00 50 	stw     r0,80(r30)
    3bb4:	90 1e 00 7c 	stw     r0,124(r30)
    3bb8:	44 00 00 02 	sc      
    3bbc:	2f 83 00 00 	cmpwi   cr7,r3,0
    3bc0:	7c 7f 1b 78 	mr      r31,r3
    3bc4:	40 9e 02 18 	bne-    cr7,0x3ddc
    3bc8:	80 7e 00 c8 	lwz     r3,200(r30)
    3bcc:	39 60 00 68 	li      r11,104
    3bd0:	44 00 00 02 	sc      
    3bd4:	2f 83 00 00 	cmpwi   cr7,r3,0
    3bd8:	7c 7d 1b 78 	mr      r29,r3
    3bdc:	7c 7f 1b 78 	mr      r31,r3
    3be0:	40 9e 01 fc 	bne-    cr7,0x3ddc
    3be4:	80 7e 01 30 	lwz     r3,304(r30)
    3be8:	38 80 00 00 	li      r4,0
    3bec:	39 60 00 66 	li      r11,102
    3bf0:	44 00 00 02 	sc      
    3bf4:	2f 83 00 00 	cmpwi   cr7,r3,0
    3bf8:	7c 7f 1b 78 	mr      r31,r3
    3bfc:	40 9e 01 e0 	bne-    cr7,0x3ddc
    3c00:	93 be 00 fc 	stw     r29,252(r30)
    3c04:	80 7e 01 34 	lwz     r3,308(r30)
    3c08:	39 60 00 6c 	li      r11,108
    3c0c:	44 00 00 02 	sc      
    3c10:	2f 83 00 00 	cmpwi   cr7,r3,0
    3c14:	7c 7f 1b 78 	mr      r31,r3
    3c18:	40 9e 01 c4 	bne-    cr7,0x3ddc
    3c1c:	80 7e 01 30 	lwz     r3,304(r30)
    3c20:	39 60 00 68 	li      r11,104
    3c24:	44 00 00 02 	sc      
    3c28:	2f 83 00 00 	cmpwi   cr7,r3,0
    3c2c:	7c 7f 1b 78 	mr      r31,r3
    3c30:	40 9e 01 ac 	bne-    cr7,0x3ddc
    3c34:	e8 7e 00 c0 	ld      r3,192(r30)
    3c38:	38 81 00 70 	addi    r4,r1,112
    3c3c:	39 60 00 2c 	li      r11,44
    3c40:	44 00 00 02 	sc      
    3c44:	2f 83 00 00 	cmpwi   cr7,r3,0
    3c48:	7c 7f 1b 78 	mr      r31,r3
    3c4c:	40 9e 01 90 	bne-    cr7,0x3ddc
    3c50:	80 7e 00 cc 	lwz     r3,204(r30)
    3c54:	39 60 00 6a 	li      r11,106
    3c58:	44 00 00 02 	sc      
    3c5c:	2f 83 00 00 	cmpwi   cr7,r3,0
    3c60:	7c 7f 1b 78 	mr      r31,r3
    3c64:	40 9e 01 78 	bne-    cr7,0x3ddc
    3c68:	80 7e 00 d4 	lwz     r3,212(r30)
    3c6c:	39 60 00 6a 	li      r11,106
    3c70:	44 00 00 02 	sc      
    3c74:	2f 83 00 00 	cmpwi   cr7,r3,0
    3c78:	7c 7f 1b 78 	mr      r31,r3
    3c7c:	40 9e 01 60 	bne-    cr7,0x3ddc
    3c80:	80 7e 01 34 	lwz     r3,308(r30)
    3c84:	39 60 00 6a 	li      r11,106
    3c88:	44 00 00 02 	sc      
    3c8c:	2f 83 00 00 	cmpwi   cr7,r3,0
    3c90:	7c 7f 1b 78 	mr      r31,r3
    3c94:	40 9e 01 48 	bne-    cr7,0x3ddc
    3c98:	80 7e 01 50 	lwz     r3,336(r30)
    3c9c:	39 60 00 65 	li      r11,101
    3ca0:	44 00 00 02 	sc      
    3ca4:	2f 83 00 00 	cmpwi   cr7,r3,0
    3ca8:	7c 7f 1b 78 	mr      r31,r3
    3cac:	40 9e 01 30 	bne-    cr7,0x3ddc
    3cb0:	80 7e 00 c8 	lwz     r3,200(r30)
    3cb4:	39 60 00 65 	li      r11,101
    3cb8:	44 00 00 02 	sc      
    3cbc:	2f 83 00 00 	cmpwi   cr7,r3,0
    3cc0:	7c 7f 1b 78 	mr      r31,r3
    3cc4:	40 9e 01 18 	bne-    cr7,0x3ddc
    3cc8:	80 7e 00 d0 	lwz     r3,208(r30)
    3ccc:	39 60 00 65 	li      r11,101
    3cd0:	44 00 00 02 	sc      
    3cd4:	2f 83 00 00 	cmpwi   cr7,r3,0
    3cd8:	7c 7f 1b 78 	mr      r31,r3
    3cdc:	40 9e 01 00 	bne-    cr7,0x3ddc
    3ce0:	80 7e 01 30 	lwz     r3,304(r30)
    3ce4:	39 60 00 65 	li      r11,101
    3ce8:	44 00 00 02 	sc      
    3cec:	2f 83 00 00 	cmpwi   cr7,r3,0
    3cf0:	7c 7f 1b 78 	mr      r31,r3
    3cf4:	40 9e 00 e8 	bne-    cr7,0x3ddc
    3cf8:	38 7c 01 38 	addi    r3,r28,312
    3cfc:	78 63 00 20 	clrldi  r3,r3,32
    3d00:	48 00 09 31 	bl      0x4630
    3d04:	60 00 00 00 	nop
    3d08:	2f 83 00 00 	cmpwi   cr7,r3,0
    3d0c:	7c 7f 1b 78 	mr      r31,r3
    3d10:	40 9e 00 cc 	bne-    cr7,0x3ddc
    3d14:	38 7c 01 44 	addi    r3,r28,324
    3d18:	78 63 00 20 	clrldi  r3,r3,32
    3d1c:	48 00 09 15 	bl      0x4630
    3d20:	60 00 00 00 	nop
    3d24:	2f 83 00 00 	cmpwi   cr7,r3,0
    3d28:	7c 7f 1b 78 	mr      r31,r3
    3d2c:	40 9e 00 b0 	bne-    cr7,0x3ddc
    3d30:	80 7e 01 68 	lwz     r3,360(r30)
    3d34:	48 00 0a a5 	bl      0x47d8
    3d38:	e8 41 00 28 	ld      r2,40(r1)
    3d3c:	2f 83 00 00 	cmpwi   cr7,r3,0
    3d40:	7c 7f 1b 78 	mr      r31,r3
    3d44:	40 9e 00 98 	bne-    cr7,0x3ddc
    3d48:	80 7e 01 70 	lwz     r3,368(r30)
    3d4c:	48 00 0a 8d 	bl      0x47d8
    3d50:	e8 41 00 28 	ld      r2,40(r1)
    3d54:	2f 83 00 00 	cmpwi   cr7,r3,0
    3d58:	7c 7f 1b 78 	mr      r31,r3
    3d5c:	40 9e 00 80 	bne-    cr7,0x3ddc
    3d60:	80 7e 01 78 	lwz     r3,376(r30)
    3d64:	39 60 00 65 	li      r11,101
    3d68:	44 00 00 02 	sc      
    3d6c:	2f 83 00 00 	cmpwi   cr7,r3,0
    3d70:	7c 7f 1b 78 	mr      r31,r3
    3d74:	40 9e 00 68 	bne-    cr7,0x3ddc
    3d78:	80 7e 01 7c 	lwz     r3,380(r30)
    3d7c:	39 60 00 65 	li      r11,101
    3d80:	44 00 00 02 	sc      
    3d84:	2f 83 00 00 	cmpwi   cr7,r3,0
    3d88:	7c 7f 1b 78 	mr      r31,r3
    3d8c:	40 9e 00 50 	bne-    cr7,0x3ddc
    3d90:	80 7e 01 5c 	lwz     r3,348(r30)
    3d94:	48 00 0b c5 	bl      0x4958
    3d98:	e8 41 00 28 	ld      r2,40(r1)
    3d9c:	2f 83 00 00 	cmpwi   cr7,r3,0
    3da0:	7c 7f 1b 78 	mr      r31,r3
    3da4:	40 9e 00 38 	bne-    cr7,0x3ddc
    3da8:	80 7e 01 5c 	lwz     r3,348(r30)
    3dac:	48 00 0b 8d 	bl      0x4938
    3db0:	e8 41 00 28 	ld      r2,40(r1)
    3db4:	2f 83 00 00 	cmpwi   cr7,r3,0
    3db8:	7c 7f 1b 78 	mr      r31,r3
    3dbc:	40 9e 00 20 	bne-    cr7,0x3ddc
    3dc0:	80 1e 01 80 	lwz     r0,384(r30)
    3dc4:	2f 80 00 00 	cmpwi   cr7,r0,0
    3dc8:	40 9e 00 14 	bne-    cr7,0x3ddc
    3dcc:	80 7e 01 58 	lwz     r3,344(r30)
    3dd0:	48 00 0c 09 	bl      0x49d8
    3dd4:	e8 41 00 28 	ld      r2,40(r1)
    3dd8:	7c 7f 1b 78 	mr      r31,r3
    3ddc:	e8 01 00 b0 	ld      r0,176(r1)
    3de0:	7f e3 07 b4 	extsw   r3,r31
    3de4:	eb 81 00 80 	ld      r28,128(r1)
    3de8:	eb a1 00 88 	ld      r29,136(r1)
    3dec:	7c 08 03 a6 	mtlr    r0
    3df0:	eb c1 00 90 	ld      r30,144(r1)
    3df4:	eb e1 00 98 	ld      r31,152(r1)
    3df8:	38 21 00 a0 	addi    r1,r1,160
    3dfc:	4e 80 00 20 	blr
    3e00:	81 3e 00 b4 	lwz     r9,180(r30)
    3e04:	38 00 00 03 	li      r0,3
    3e08:	39 60 00 68 	li      r11,104
    3e0c:	1d 29 00 2c 	mulli   r9,r9,44
    3e10:	39 29 00 20 	addi    r9,r9,32
    3e14:	7d 29 07 b4 	extsw   r9,r9
    3e18:	7d 3d 4a 14 	add     r9,r29,r9
    3e1c:	90 09 00 04 	stw     r0,4(r9)
    3e20:	81 5e 00 b4 	lwz     r10,180(r30)
    3e24:	81 3e 00 b8 	lwz     r9,184(r30)
    3e28:	39 4a 00 01 	addi    r10,r10,1
    3e2c:	80 7e 01 50 	lwz     r3,336(r30)
    3e30:	39 29 00 01 	addi    r9,r9,1
    3e34:	55 4a 07 be 	clrlwi  r10,r10,30
    3e38:	91 3e 00 b8 	stw     r9,184(r30)
    3e3c:	91 5e 00 b4 	stw     r10,180(r30)
    3e40:	44 00 00 02 	sc      
    3e44:	2f 83 00 00 	cmpwi   cr7,r3,0
    3e48:	7c 7f 1b 78 	mr      r31,r3
    3e4c:	40 9e ff 90 	bne+    cr7,0x3ddc
    3e50:	38 7e 01 38 	addi    r3,r30,312
    3e54:	78 63 00 20 	clrldi  r3,r3,32
    3e58:	48 00 08 99 	bl      0x46f0
    3e5c:	60 00 00 00 	nop
    3e60:	2f 83 00 00 	cmpwi   cr7,r3,0
    3e64:	7c 7f 1b 78 	mr      r31,r3
    3e68:	41 9e fd 60 	beq+    cr7,0x3bc8
    3e6c:	80 7e 00 c8 	lwz     r3,200(r30)
    3e70:	39 60 00 68 	li      r11,104
    3e74:	44 00 00 02 	sc      
    3e78:	4b ff ff 64 	b       0x3ddc
    3e7c:	39 40 00 00 	li      r10,0
    3e80:	7c 08 02 a6 	mflr    r0
    3e84:	39 00 00 00 	li      r8,0
    3e88:	81 62 80 54 	lwz     r11,-32684(r2)
    3e8c:	f8 01 00 10 	std     r0,16(r1)
    3e90:	38 00 00 02 	li      r0,2
    3e94:	38 e0 02 00 	li      r7,512
    3e98:	90 01 ff b8 	stw     r0,-72(r1)
    3e9c:	39 20 00 20 	li      r9,32
    3ea0:	38 00 20 00 	li      r0,8192
    3ea4:	91 21 ff bc 	stw     r9,-68(r1)
    3ea8:	90 01 ff c4 	stw     r0,-60(r1)
    3eac:	fb a1 ff e8 	std     r29,-24(r1)
    3eb0:	91 43 00 40 	stw     r10,64(r3)
    3eb4:	91 43 00 44 	stw     r10,68(r3)
    3eb8:	91 43 00 48 	stw     r10,72(r3)
    3ebc:	fb e1 ff f8 	std     r31,-8(r1)
    3ec0:	7c 7d 1b 78 	mr      r29,r3
    3ec4:	90 e1 ff c0 	stw     r7,-64(r1)
    3ec8:	f9 01 ff c8 	std     r8,-56(r1)
    3ecc:	91 01 ff d0 	stw     r8,-48(r1)
    3ed0:	99 41 ff d8 	stb     r10,-40(r1)
    3ed4:	7c 7f 1b 78 	mr      r31,r3
    3ed8:	39 21 ff d8 	addi    r9,r1,-40
    3edc:	e8 0b 00 00 	ld      r0,0(r11)
    3ee0:	f8 09 00 00 	std     r0,0(r9)
    3ee4:	38 00 00 00 	li      r0,0
    3ee8:	38 c9 00 07 	addi    r6,r9,7
    3eec:	98 06 00 00 	stb     r0,0(r6)
    3ef0:	90 e1 ff a0 	stw     r7,-96(r1)
    3ef4:	91 01 ff a4 	stw     r8,-92(r1)
    3ef8:	99 41 ff b0 	stb     r10,-80(r1)
    3efc:	f9 01 ff a8 	std     r8,-88(r1)
    3f00:	81 62 80 58 	lwz     r11,-32680(r2)
    3f04:	39 21 ff b0 	addi    r9,r1,-80
    3f08:	e8 0b 00 00 	ld      r0,0(r11)
    3f0c:	f8 09 00 00 	std     r0,0(r9)
    3f10:	38 00 00 00 	li      r0,0
    3f14:	39 49 00 07 	addi    r10,r9,7
    3f18:	98 0a 00 00 	stb     r0,0(r10)
    3f1c:	38 63 00 4c 	addi    r3,r3,76
    3f20:	38 81 ff b8 	addi    r4,r1,-72
    3f24:	78 63 00 20 	clrldi  r3,r3,32
    3f28:	39 60 00 64 	li      r11,100
    3f2c:	44 00 00 02 	sc      
    3f30:	38 7d 00 50 	addi    r3,r29,80
    3f34:	80 9d 00 4c 	lwz     r4,76(r29)
    3f38:	38 a1 ff a0 	addi    r5,r1,-96
    3f3c:	78 63 00 20 	clrldi  r3,r3,32
    3f40:	39 60 00 69 	li      r11,105
    3f44:	44 00 00 02 	sc      
    3f48:	39 20 00 04 	li      r9,4
    3f4c:	39 40 00 00 	li      r10,0
    3f50:	39 60 00 00 	li      r11,0
    3f54:	7d 29 03 a6 	mtctr   r9
    3f58:	38 e0 00 ff 	li      r7,255
    3f5c:	39 00 00 00 	li      r8,0
    3f60:	38 00 ff ff 	li      r0,-1
    3f64:	7d 2b fa 14 	add     r9,r11,r31
    3f68:	39 6b 00 10 	addi    r11,r11,16
    3f6c:	79 29 00 20 	clrldi  r9,r9,32
    3f70:	91 49 00 00 	stw     r10,0(r9)
    3f74:	90 09 00 0c 	stw     r0,12(r9)
    3f78:	90 e9 00 04 	stw     r7,4(r9)
    3f7c:	91 09 00 08 	stw     r8,8(r9)
    3f80:	39 4a 00 01 	addi    r10,r10,1
    3f84:	42 00 ff e0 	bdnz+   0x3f64
    3f88:	e8 01 00 10 	ld      r0,16(r1)
    3f8c:	eb a1 ff e8 	ld      r29,-24(r1)
    3f90:	7c 08 03 a6 	mtlr    r0
    3f94:	eb e1 ff f8 	ld      r31,-8(r1)
    3f98:	4e 80 00 20 	blr
    3f9c:	fb e1 ff f8 	std     r31,-8(r1)
    3fa0:	7c 08 02 a6 	mflr    r0
    3fa4:	7c 7f 1b 78 	mr      r31,r3
    3fa8:	f8 01 00 10 	std     r0,16(r1)
    3fac:	39 60 00 6a 	li      r11,106
    3fb0:	80 63 00 50 	lwz     r3,80(r3)
    3fb4:	44 00 00 02 	sc      
    3fb8:	2f 83 00 00 	cmpwi   cr7,r3,0
    3fbc:	39 60 00 65 	li      r11,101
    3fc0:	40 9e 00 0c 	bne-    cr7,0x3fcc
    3fc4:	80 7f 00 4c 	lwz     r3,76(r31)
    3fc8:	44 00 00 02 	sc      
    3fcc:	e8 01 00 10 	ld      r0,16(r1)
    3fd0:	7c 63 07 b4 	extsw   r3,r3
    3fd4:	eb e1 ff f8 	ld      r31,-8(r1)
    3fd8:	7c 08 03 a6 	mtlr    r0
    3fdc:	4e 80 00 20 	blr
    3fe0:	4e 80 00 20 	blr
    3fe4:	fb c1 ff f0 	std     r30,-16(r1)
    3fe8:	7c 08 02 a6 	mflr    r0
    3fec:	fb e1 ff f8 	std     r31,-8(r1)
    3ff0:	f8 01 00 10 	std     r0,16(r1)
    3ff4:	7c 7f 1b 78 	mr      r31,r3
    3ff8:	80 63 00 4c 	lwz     r3,76(r3)
    3ffc:	7c 9e 23 78 	mr      r30,r4
    4000:	fb 61 ff d8 	std     r27,-40(r1)
    4004:	fb 81 ff e0 	std     r28,-32(r1)
    4008:	fb a1 ff e8 	std     r29,-24(r1)
    400c:	38 80 00 00 	li      r4,0
    4010:	39 60 00 66 	li      r11,102
    4014:	44 00 00 02 	sc      
    4018:	83 bf 00 44 	lwz     r29,68(r31)
    401c:	3b 60 00 01 	li      r27,1
    4020:	39 60 00 68 	li      r11,104
    4024:	57 bd 20 36 	rlwinm  r29,r29,4,0,27
    4028:	7f bd 07 b4 	extsw   r29,r29
    402c:	7d 3f ea 14 	add     r9,r31,r29
    4030:	80 09 00 04 	lwz     r0,4(r9)
    4034:	2f 80 00 ff 	cmpwi   cr7,r0,255
    4038:	40 9e 00 4c 	bne-    cr7,0x4084
    403c:	80 1e 00 04 	lwz     r0,4(r30)
    4040:	3b 60 00 00 	li      r27,0
    4044:	81 1e 00 0c 	lwz     r8,12(r30)
    4048:	90 09 00 04 	stw     r0,4(r9)
    404c:	81 3f 00 44 	lwz     r9,68(r31)
    4050:	80 1e 00 08 	lwz     r0,8(r30)
    4054:	55 29 20 36 	rlwinm  r9,r9,4,0,27
    4058:	7d 29 07 b4 	extsw   r9,r9
    405c:	7d 3f 4a 14 	add     r9,r31,r9
    4060:	91 09 00 0c 	stw     r8,12(r9)
    4064:	81 5f 00 44 	lwz     r10,68(r31)
    4068:	81 1f 00 48 	lwz     r8,72(r31)
    406c:	39 4a 00 01 	addi    r10,r10,1
    4070:	39 08 00 01 	addi    r8,r8,1
    4074:	55 4a 07 be 	clrlwi  r10,r10,30
    4078:	90 09 00 08 	stw     r0,8(r9)
    407c:	91 5f 00 44 	stw     r10,68(r31)
    4080:	91 1f 00 48 	stw     r8,72(r31)
    4084:	80 7f 00 4c 	lwz     r3,76(r31)
    4088:	44 00 00 02 	sc      
    408c:	e8 01 00 10 	ld      r0,16(r1)
    4090:	7f 63 07 b4 	extsw   r3,r27
    4094:	eb 81 ff e0 	ld      r28,-32(r1)
    4098:	7c 08 03 a6 	mtlr    r0
    409c:	eb 61 ff d8 	ld      r27,-40(r1)
    40a0:	eb a1 ff e8 	ld      r29,-24(r1)
    40a4:	eb c1 ff f0 	ld      r30,-16(r1)
    40a8:	eb e1 ff f8 	ld      r31,-8(r1)
    40ac:	4e 80 00 20 	blr
    40b0:	fb 41 ff d0 	std     r26,-48(r1)
    40b4:	7c 08 02 a6 	mflr    r0
    40b8:	fb 81 ff e0 	std     r28,-32(r1)
    40bc:	f8 01 00 10 	std     r0,16(r1)
    40c0:	fb e1 ff f8 	std     r31,-8(r1)
    40c4:	7c 9a 23 78 	mr      r26,r4
    40c8:	7c 7f 1b 78 	mr      r31,r3
    40cc:	78 7c 00 20 	clrldi  r28,r3,32
    40d0:	80 63 00 4c 	lwz     r3,76(r3)
    40d4:	fb 61 ff d8 	std     r27,-40(r1)
    40d8:	fb a1 ff e8 	std     r29,-24(r1)
    40dc:	fb c1 ff f0 	std     r30,-16(r1)
    40e0:	38 80 00 00 	li      r4,0
    40e4:	39 60 00 66 	li      r11,102
    40e8:	44 00 00 02 	sc      
    40ec:	83 bf 00 40 	lwz     r29,64(r31)
    40f0:	3b c0 00 01 	li      r30,1
    40f4:	39 60 00 68 	li      r11,104
    40f8:	57 bd 20 36 	rlwinm  r29,r29,4,0,27
    40fc:	7f a9 07 b4 	extsw   r9,r29
    4100:	7f 7f ea 14 	add     r27,r31,r29
    4104:	7f 9c 4a 14 	add     r28,r28,r9
    4108:	80 1c 00 04 	lwz     r0,4(r28)
    410c:	2f 80 00 ff 	cmpwi   cr7,r0,255
    4110:	41 9e 00 0c 	beq-    cr7,0x411c
    4114:	3b c0 00 00 	li      r30,0
    4118:	93 7a 00 00 	stw     r27,0(r26)
    411c:	80 7f 00 4c 	lwz     r3,76(r31)
    4120:	44 00 00 02 	sc      
    4124:	e8 01 00 10 	ld      r0,16(r1)
    4128:	7b c3 07 e0 	clrldi  r3,r30,63
    412c:	eb 41 ff d0 	ld      r26,-48(r1)
    4130:	7c 08 03 a6 	mtlr    r0
    4134:	eb 61 ff d8 	ld      r27,-40(r1)
    4138:	eb 81 ff e0 	ld      r28,-32(r1)
    413c:	eb a1 ff e8 	ld      r29,-24(r1)
    4140:	eb c1 ff f0 	ld      r30,-16(r1)
    4144:	eb e1 ff f8 	ld      r31,-8(r1)
    4148:	4e 80 00 20 	blr
    414c:	fb 41 ff d0 	std     r26,-48(r1)
    4150:	7c 08 02 a6 	mflr    r0
    4154:	fb 81 ff e0 	std     r28,-32(r1)
    4158:	f8 01 00 10 	std     r0,16(r1)
    415c:	7c 7c 1b 78 	mr      r28,r3
    4160:	80 63 00 4c 	lwz     r3,76(r3)
    4164:	7c 9a 23 78 	mr      r26,r4
    4168:	fb 61 ff d8 	std     r27,-40(r1)
    416c:	fb a1 ff e8 	std     r29,-24(r1)
    4170:	38 80 00 00 	li      r4,0
    4174:	39 60 00 66 	li      r11,102
    4178:	44 00 00 02 	sc      
    417c:	83 bc 00 40 	lwz     r29,64(r28)
    4180:	39 60 00 68 	li      r11,104
    4184:	80 7c 00 4c 	lwz     r3,76(r28)
    4188:	57 bd 20 36 	rlwinm  r29,r29,4,0,27
    418c:	7f 7c ea 14 	add     r27,r28,r29
    4190:	93 7a 00 00 	stw     r27,0(r26)
    4194:	44 00 00 02 	sc      
    4198:	e8 01 00 10 	ld      r0,16(r1)
    419c:	38 60 00 00 	li      r3,0
    41a0:	eb 41 ff d0 	ld      r26,-48(r1)
    41a4:	7c 08 03 a6 	mtlr    r0
    41a8:	eb 61 ff d8 	ld      r27,-40(r1)
    41ac:	eb 81 ff e0 	ld      r28,-32(r1)
    41b0:	eb a1 ff e8 	ld      r29,-24(r1)
    41b4:	4e 80 00 20 	blr
    41b8:	fb 81 ff e0 	std     r28,-32(r1)
    41bc:	7c 08 02 a6 	mflr    r0
    41c0:	fb e1 ff f8 	std     r31,-8(r1)
    41c4:	f8 01 00 10 	std     r0,16(r1)
    41c8:	7c 7f 1b 78 	mr      r31,r3
    41cc:	78 7c 00 20 	clrldi  r28,r3,32
    41d0:	80 63 00 4c 	lwz     r3,76(r3)
    41d4:	fb 61 ff d8 	std     r27,-40(r1)
    41d8:	fb a1 ff e8 	std     r29,-24(r1)
    41dc:	fb c1 ff f0 	std     r30,-16(r1)
    41e0:	38 80 00 00 	li      r4,0
    41e4:	39 60 00 66 	li      r11,102
    41e8:	44 00 00 02 	sc      
    41ec:	83 bf 00 40 	lwz     r29,64(r31)
    41f0:	3b 60 00 00 	li      r27,0
    41f4:	39 60 00 68 	li      r11,104
    41f8:	57 bd 20 36 	rlwinm  r29,r29,4,0,27
    41fc:	7f a9 07 b4 	extsw   r9,r29
    4200:	7d 3c 4a 14 	add     r9,r28,r9
    4204:	80 09 00 04 	lwz     r0,4(r9)
    4208:	2f 80 00 ff 	cmpwi   cr7,r0,255
    420c:	41 9e 00 44 	beq-    cr7,0x4250
    4210:	38 00 00 ff 	li      r0,255
    4214:	7f 7f ea 14 	add     r27,r31,r29
    4218:	90 09 00 04 	stw     r0,4(r9)
    421c:	81 3f 00 40 	lwz     r9,64(r31)
    4220:	38 00 ff ff 	li      r0,-1
    4224:	55 29 20 36 	rlwinm  r9,r9,4,0,27
    4228:	7d 29 07 b4 	extsw   r9,r9
    422c:	7d 3c 4a 14 	add     r9,r28,r9
    4230:	90 09 00 0c 	stw     r0,12(r9)
    4234:	81 5f 00 40 	lwz     r10,64(r31)
    4238:	81 3f 00 48 	lwz     r9,72(r31)
    423c:	39 4a 00 01 	addi    r10,r10,1
    4240:	39 29 ff ff 	addi    r9,r9,-1
    4244:	55 4a 07 be 	clrlwi  r10,r10,30
    4248:	91 3f 00 48 	stw     r9,72(r31)
    424c:	91 5f 00 40 	stw     r10,64(r31)
    4250:	80 7f 00 4c 	lwz     r3,76(r31)
    4254:	44 00 00 02 	sc      
    4258:	e8 01 00 10 	ld      r0,16(r1)
    425c:	7b 63 00 20 	clrldi  r3,r27,32
    4260:	eb 81 ff e0 	ld      r28,-32(r1)
    4264:	7c 08 03 a6 	mtlr    r0
    4268:	eb 61 ff d8 	ld      r27,-40(r1)
    426c:	eb a1 ff e8 	ld      r29,-24(r1)
    4270:	eb c1 ff f0 	ld      r30,-16(r1)
    4274:	eb e1 ff f8 	ld      r31,-8(r1)
    4278:	4e 80 00 20 	blr
    427c:	fb e1 ff f8 	std     r31,-8(r1)
    4280:	7c 08 02 a6 	mflr    r0
    4284:	7c 7f 1b 78 	mr      r31,r3
    4288:	f8 01 00 10 	std     r0,16(r1)
    428c:	fb 81 ff e0 	std     r28,-32(r1)
    4290:	fb a1 ff e8 	std     r29,-24(r1)
    4294:	38 80 00 00 	li      r4,0
    4298:	80 63 00 4c 	lwz     r3,76(r3)
    429c:	39 60 00 66 	li      r11,102
    42a0:	44 00 00 02 	sc      
    42a4:	83 bf 00 40 	lwz     r29,64(r31)
    42a8:	39 60 00 68 	li      r11,104
    42ac:	57 bd 20 36 	rlwinm  r29,r29,4,0,27
    42b0:	7f bd 07 b4 	extsw   r29,r29
    42b4:	7f 9f ea 14 	add     r28,r31,r29
    42b8:	80 1c 00 04 	lwz     r0,4(r28)
    42bc:	2f 80 00 ff 	cmpwi   cr7,r0,255
    42c0:	41 9e 00 30 	beq-    cr7,0x42f0
    42c4:	80 7f 00 4c 	lwz     r3,76(r31)
    42c8:	39 60 00 68 	li      r11,104
    42cc:	44 00 00 02 	sc      
    42d0:	38 60 00 00 	li      r3,0
    42d4:	e8 01 00 10 	ld      r0,16(r1)
    42d8:	eb 81 ff e0 	ld      r28,-32(r1)
    42dc:	7c 63 07 b4 	extsw   r3,r3
    42e0:	7c 08 03 a6 	mtlr    r0
    42e4:	eb a1 ff e8 	ld      r29,-24(r1)
    42e8:	eb e1 ff f8 	ld      r31,-8(r1)
    42ec:	4e 80 00 20 	blr
    42f0:	80 7f 00 4c 	lwz     r3,76(r31)
    42f4:	44 00 00 02 	sc      
    42f8:	38 60 00 01 	li      r3,1
    42fc:	e8 01 00 10 	ld      r0,16(r1)
    4300:	eb 81 ff e0 	ld      r28,-32(r1)
    4304:	7c 63 07 b4 	extsw   r3,r3
    4308:	7c 08 03 a6 	mtlr    r0
    430c:	eb a1 ff e8 	ld      r29,-24(r1)
    4310:	eb e1 ff f8 	ld      r31,-8(r1)
    4314:	4e 80 00 20 	blr
    4318:	54 87 00 3c 	rlwinm  r7,r4,0,0,30
    431c:	7c 08 02 a6 	mflr    r0
    4320:	fb e1 ff f8 	std     r31,-8(r1)
    4324:	2f 87 00 00 	cmpwi   cr7,r7,0
    4328:	f8 01 00 10 	std     r0,16(r1)
    432c:	3c 00 80 01 	lis     r0,-32767
    4330:	fb c1 ff f0 	std     r30,-16(r1)
    4334:	39 00 00 00 	li      r8,0
    4338:	38 c0 02 00 	li      r6,512
    433c:	39 61 ff e8 	addi    r11,r1,-24
    4340:	7c 7f 1b 78 	mr      r31,r3
    4344:	54 8a f8 00 	rlwinm  r10,r4,31,0,0
    4348:	60 00 00 02 	ori     r0,r0,2
    434c:	40 9e 00 bc 	bne-    cr7,0x4408
    4350:	81 23 00 00 	lwz     r9,0(r3)
    4354:	38 00 00 02 	li      r0,2
    4358:	55 29 00 7e 	clrlwi  r9,r9,1
    435c:	90 01 ff c8 	stw     r0,-56(r1)
    4360:	38 00 00 20 	li      r0,32
    4364:	7d 29 53 78 	or      r9,r9,r10
    4368:	90 01 ff cc 	stw     r0,-52(r1)
    436c:	38 00 20 00 	li      r0,8192
    4370:	90 01 ff d4 	stw     r0,-44(r1)
    4374:	91 23 00 00 	stw     r9,0(r3)
    4378:	90 c1 ff d0 	stw     r6,-48(r1)
    437c:	f9 01 ff d8 	std     r8,-40(r1)
    4380:	91 01 ff e0 	stw     r8,-32(r1)
    4384:	98 e1 ff e8 	stb     r7,-24(r1)
    4388:	81 22 80 5c 	lwz     r9,-32676(r2)
    438c:	e8 09 00 00 	ld      r0,0(r9)
    4390:	f8 0b 00 00 	std     r0,0(r11)
    4394:	38 00 00 00 	li      r0,0
    4398:	39 4b 00 07 	addi    r10,r11,7
    439c:	98 0a 00 00 	stb     r0,0(r10)
    43a0:	90 c1 ff b0 	stw     r6,-80(r1)
    43a4:	91 01 ff b4 	stw     r8,-76(r1)
    43a8:	98 e1 ff c0 	stb     r7,-64(r1)
    43ac:	f9 01 ff b8 	std     r8,-72(r1)
    43b0:	81 62 80 60 	lwz     r11,-32672(r2)
    43b4:	39 21 ff c0 	addi    r9,r1,-64
    43b8:	e8 0b 00 00 	ld      r0,0(r11)
    43bc:	f8 09 00 00 	std     r0,0(r9)
    43c0:	38 00 00 00 	li      r0,0
    43c4:	39 49 00 07 	addi    r10,r9,7
    43c8:	98 0a 00 00 	stb     r0,0(r10)
    43cc:	38 63 00 04 	addi    r3,r3,4
    43d0:	38 81 ff c8 	addi    r4,r1,-56
    43d4:	78 63 00 20 	clrldi  r3,r3,32
    43d8:	39 60 00 64 	li      r11,100
    43dc:	44 00 00 02 	sc      
    43e0:	7c 60 1b 78 	mr      r0,r3
    43e4:	38 7f 00 08 	addi    r3,r31,8
    43e8:	2f 80 00 00 	cmpwi   cr7,r0,0
    43ec:	78 63 00 20 	clrldi  r3,r3,32
    43f0:	38 a1 ff b0 	addi    r5,r1,-80
    43f4:	40 9e 00 14 	bne-    cr7,0x4408
    43f8:	80 9f 00 04 	lwz     r4,4(r31)
    43fc:	39 60 00 69 	li      r11,105
    4400:	44 00 00 02 	sc      
    4404:	7c 60 1b 78 	mr      r0,r3
    4408:	7c 03 07 b4 	extsw   r3,r0
    440c:	e8 01 00 10 	ld      r0,16(r1)
    4410:	eb c1 ff f0 	ld      r30,-16(r1)
    4414:	7c 08 03 a6 	mtlr    r0
    4418:	eb e1 ff f8 	ld      r31,-8(r1)
    441c:	4e 80 00 20 	blr
    4420:	fb e1 ff f8 	std     r31,-8(r1)
    4424:	7c 08 02 a6 	mflr    r0
    4428:	7c 7f 1b 78 	mr      r31,r3
    442c:	f8 01 00 10 	std     r0,16(r1)
    4430:	39 60 00 6a 	li      r11,106
    4434:	80 63 00 08 	lwz     r3,8(r3)
    4438:	44 00 00 02 	sc      
    443c:	2f 83 00 00 	cmpwi   cr7,r3,0
    4440:	39 60 00 65 	li      r11,101
    4444:	40 9e 00 0c 	bne-    cr7,0x4450
    4448:	80 7f 00 04 	lwz     r3,4(r31)
    444c:	44 00 00 02 	sc      
    4450:	e8 01 00 10 	ld      r0,16(r1)
    4454:	7c 63 07 b4 	extsw   r3,r3
    4458:	eb e1 ff f8 	ld      r31,-8(r1)
    445c:	7c 08 03 a6 	mtlr    r0
    4460:	4e 80 00 20 	blr
    4464:	fb e1 ff f8 	std     r31,-8(r1)
    4468:	7c 08 02 a6 	mflr    r0
    446c:	7c 7f 1b 78 	mr      r31,r3
    4470:	f8 01 00 10 	std     r0,16(r1)
    4474:	38 80 00 00 	li      r4,0
    4478:	80 63 00 04 	lwz     r3,4(r3)
    447c:	39 60 00 66 	li      r11,102
    4480:	44 00 00 02 	sc      
    4484:	2f 83 00 00 	cmpwi   cr7,r3,0
    4488:	39 60 00 68 	li      r11,104
    448c:	40 9e 00 2c 	bne-    cr7,0x44b8
    4490:	81 3f 00 00 	lwz     r9,0(r31)
    4494:	80 7f 00 04 	lwz     r3,4(r31)
    4498:	65 29 80 00 	oris    r9,r9,32768
    449c:	91 3f 00 00 	stw     r9,0(r31)
    44a0:	44 00 00 02 	sc      
    44a4:	2f 83 00 00 	cmpwi   cr7,r3,0
    44a8:	39 60 00 6c 	li      r11,108
    44ac:	40 9e 00 0c 	bne-    cr7,0x44b8
    44b0:	80 7f 00 08 	lwz     r3,8(r31)
    44b4:	44 00 00 02 	sc      
    44b8:	e8 01 00 10 	ld      r0,16(r1)
    44bc:	7c 63 07 b4 	extsw   r3,r3
    44c0:	eb e1 ff f8 	ld      r31,-8(r1)
    44c4:	7c 08 03 a6 	mtlr    r0
    44c8:	4e 80 00 20 	blr
    44cc:	fb e1 ff f8 	std     r31,-8(r1)
    44d0:	7c 08 02 a6 	mflr    r0
    44d4:	7c 7f 1b 78 	mr      r31,r3
    44d8:	f8 01 00 10 	std     r0,16(r1)
    44dc:	38 80 00 00 	li      r4,0
    44e0:	80 63 00 04 	lwz     r3,4(r3)
    44e4:	39 60 00 66 	li      r11,102
    44e8:	44 00 00 02 	sc      
    44ec:	2f 83 00 00 	cmpwi   cr7,r3,0
    44f0:	40 9e 00 2c 	bne-    cr7,0x451c
    44f4:	81 3f 00 00 	lwz     r9,0(r31)
    44f8:	38 80 00 00 	li      r4,0
    44fc:	39 60 00 6b 	li      r11,107
    4500:	2f 89 00 00 	cmpwi   cr7,r9,0
    4504:	40 9c 00 2c 	bge-    cr7,0x4530
    4508:	55 29 00 7e 	clrlwi  r9,r9,1
    450c:	80 7f 00 04 	lwz     r3,4(r31)
    4510:	39 60 00 68 	li      r11,104
    4514:	91 3f 00 00 	stw     r9,0(r31)
    4518:	44 00 00 02 	sc      
    451c:	e8 01 00 10 	ld      r0,16(r1)
    4520:	7c 63 07 b4 	extsw   r3,r3
    4524:	eb e1 ff f8 	ld      r31,-8(r1)
    4528:	7c 08 03 a6 	mtlr    r0
    452c:	4e 80 00 20 	blr
    4530:	80 7f 00 08 	lwz     r3,8(r31)
    4534:	44 00 00 02 	sc      
    4538:	2f 83 00 00 	cmpwi   cr7,r3,0
    453c:	40 9e ff e0 	bne+    cr7,0x451c
    4540:	81 3f 00 00 	lwz     r9,0(r31)
    4544:	4b ff ff c4 	b       0x4508
    4548:	39 40 00 00 	li      r10,0
    454c:	7c 08 02 a6 	mflr    r0
    4550:	39 00 02 00 	li      r8,512
    4554:	81 62 80 64 	lwz     r11,-32668(r2)
    4558:	f8 01 00 10 	std     r0,16(r1)
    455c:	38 00 00 02 	li      r0,2
    4560:	90 83 00 00 	stw     r4,0(r3)
    4564:	38 e0 00 00 	li      r7,0
    4568:	90 01 ff b8 	stw     r0,-72(r1)
    456c:	39 20 00 20 	li      r9,32
    4570:	38 00 20 00 	li      r0,8192
    4574:	fb e1 ff f8 	std     r31,-8(r1)
    4578:	91 21 ff bc 	stw     r9,-68(r1)
    457c:	fb a1 ff e8 	std     r29,-24(r1)
    4580:	7c 7f 1b 78 	mr      r31,r3
    4584:	90 01 ff c4 	stw     r0,-60(r1)
    4588:	91 01 ff c0 	stw     r8,-64(r1)
    458c:	f9 41 ff c8 	std     r10,-56(r1)
    4590:	91 41 ff d0 	stw     r10,-48(r1)
    4594:	98 e1 ff d8 	stb     r7,-40(r1)
    4598:	39 21 ff d8 	addi    r9,r1,-40
    459c:	e8 0b 00 00 	ld      r0,0(r11)
    45a0:	f8 09 00 00 	std     r0,0(r9)
    45a4:	38 00 00 00 	li      r0,0
    45a8:	38 c9 00 07 	addi    r6,r9,7
    45ac:	98 06 00 00 	stb     r0,0(r6)
    45b0:	91 01 ff a0 	stw     r8,-96(r1)
    45b4:	91 41 ff a4 	stw     r10,-92(r1)
    45b8:	98 e1 ff b0 	stb     r7,-80(r1)
    45bc:	f9 41 ff a8 	std     r10,-88(r1)
    45c0:	81 62 80 68 	lwz     r11,-32664(r2)
    45c4:	39 21 ff b0 	addi    r9,r1,-80
    45c8:	e8 0b 00 00 	ld      r0,0(r11)
    45cc:	f8 09 00 00 	std     r0,0(r9)
    45d0:	38 00 00 00 	li      r0,0
    45d4:	39 49 00 07 	addi    r10,r9,7
    45d8:	98 0a 00 00 	stb     r0,0(r10)
    45dc:	38 63 00 04 	addi    r3,r3,4
    45e0:	38 81 ff b8 	addi    r4,r1,-72
    45e4:	78 63 00 20 	clrldi  r3,r3,32
    45e8:	39 60 00 64 	li      r11,100
    45ec:	44 00 00 02 	sc      
    45f0:	7c 60 1b 78 	mr      r0,r3
    45f4:	38 7f 00 08 	addi    r3,r31,8
    45f8:	2f 80 00 00 	cmpwi   cr7,r0,0
    45fc:	78 63 00 20 	clrldi  r3,r3,32
    4600:	38 a1 ff a0 	addi    r5,r1,-96
    4604:	40 9e 00 14 	bne-    cr7,0x4618
    4608:	80 9f 00 04 	lwz     r4,4(r31)
    460c:	39 60 00 69 	li      r11,105
    4610:	44 00 00 02 	sc      
    4614:	7c 60 1b 78 	mr      r0,r3
    4618:	7c 03 07 b4 	extsw   r3,r0
    461c:	e8 01 00 10 	ld      r0,16(r1)
    4620:	eb a1 ff e8 	ld      r29,-24(r1)
    4624:	7c 08 03 a6 	mtlr    r0
    4628:	eb e1 ff f8 	ld      r31,-8(r1)
    462c:	4e 80 00 20 	blr
    4630:	fb e1 ff f8 	std     r31,-8(r1)
    4634:	7c 08 02 a6 	mflr    r0
    4638:	7c 7f 1b 78 	mr      r31,r3
    463c:	f8 01 00 10 	std     r0,16(r1)
    4640:	39 60 00 6a 	li      r11,106
    4644:	80 63 00 08 	lwz     r3,8(r3)
    4648:	44 00 00 02 	sc      
    464c:	2f 83 00 00 	cmpwi   cr7,r3,0
    4650:	39 60 00 65 	li      r11,101
    4654:	40 9e 00 0c 	bne-    cr7,0x4660
    4658:	80 7f 00 04 	lwz     r3,4(r31)
    465c:	44 00 00 02 	sc      
    4660:	e8 01 00 10 	ld      r0,16(r1)
    4664:	7c 63 07 b4 	extsw   r3,r3
    4668:	eb e1 ff f8 	ld      r31,-8(r1)
    466c:	7c 08 03 a6 	mtlr    r0
    4670:	4e 80 00 20 	blr
    4674:	fb e1 ff f8 	std     r31,-8(r1)
    4678:	7c 08 02 a6 	mflr    r0
    467c:	7c 7f 1b 78 	mr      r31,r3
    4680:	f8 01 00 10 	std     r0,16(r1)
    4684:	38 80 00 00 	li      r4,0
    4688:	80 63 00 04 	lwz     r3,4(r3)
    468c:	39 60 00 66 	li      r11,102
    4690:	44 00 00 02 	sc      
    4694:	2f 83 00 00 	cmpwi   cr7,r3,0
    4698:	40 9e 00 2c 	bne-    cr7,0x46c4
    469c:	81 3f 00 00 	lwz     r9,0(r31)
    46a0:	38 80 00 00 	li      r4,0
    46a4:	39 60 00 6b 	li      r11,107
    46a8:	2f 89 00 00 	cmpwi   cr7,r9,0
    46ac:	41 9e 00 2c 	beq-    cr7,0x46d8
    46b0:	39 29 ff ff 	addi    r9,r9,-1
    46b4:	80 7f 00 04 	lwz     r3,4(r31)
    46b8:	39 60 00 68 	li      r11,104
    46bc:	91 3f 00 00 	stw     r9,0(r31)
    46c0:	44 00 00 02 	sc      
    46c4:	e8 01 00 10 	ld      r0,16(r1)
    46c8:	7c 63 07 b4 	extsw   r3,r3
    46cc:	eb e1 ff f8 	ld      r31,-8(r1)
    46d0:	7c 08 03 a6 	mtlr    r0
    46d4:	4e 80 00 20 	blr
    46d8:	80 7f 00 08 	lwz     r3,8(r31)
    46dc:	44 00 00 02 	sc      
    46e0:	2f 83 00 00 	cmpwi   cr7,r3,0
    46e4:	40 9e ff e0 	bne+    cr7,0x46c4
    46e8:	81 3f 00 00 	lwz     r9,0(r31)
    46ec:	4b ff ff c4 	b       0x46b0
    46f0:	fb e1 ff f8 	std     r31,-8(r1)
    46f4:	7c 08 02 a6 	mflr    r0
    46f8:	7c 7f 1b 78 	mr      r31,r3
    46fc:	f8 01 00 10 	std     r0,16(r1)
    4700:	38 80 00 00 	li      r4,0
    4704:	80 63 00 04 	lwz     r3,4(r3)
    4708:	39 60 00 66 	li      r11,102
    470c:	44 00 00 02 	sc      
    4710:	2f 83 00 00 	cmpwi   cr7,r3,0
    4714:	39 60 00 6c 	li      r11,108
    4718:	40 9e 00 2c 	bne-    cr7,0x4744
    471c:	81 3f 00 00 	lwz     r9,0(r31)
    4720:	80 7f 00 08 	lwz     r3,8(r31)
    4724:	39 29 00 01 	addi    r9,r9,1
    4728:	91 3f 00 00 	stw     r9,0(r31)
    472c:	44 00 00 02 	sc      
    4730:	2f 83 00 00 	cmpwi   cr7,r3,0
    4734:	39 60 00 68 	li      r11,104
    4738:	40 9e 00 0c 	bne-    cr7,0x4744
    473c:	80 7f 00 04 	lwz     r3,4(r31)
    4740:	44 00 00 02 	sc      
    4744:	e8 01 00 10 	ld      r0,16(r1)
    4748:	7c 63 07 b4 	extsw   r3,r3
    474c:	eb e1 ff f8 	ld      r31,-8(r1)
    4750:	7c 08 03 a6 	mtlr    r0
    4754:	4e 80 00 20 	blr

Disassembly of section :

0000000000004758 <>:
    4758:	39 80 00 00 	li      r12,0
    475c:	65 8c 00 01 	oris    r12,r12,1
    4760:	81 8c c3 90 	lwz     r12,-15472(r12)
    4764:	f8 41 00 28 	std     r2,40(r1)
    4768:	80 0c 00 00 	lwz     r0,0(r12)
    476c:	80 4c 00 04 	lwz     r2,4(r12)
    4770:	7c 09 03 a6 	mtctr   r0
    4774:	4e 80 04 20 	bctr
    4778:	39 80 00 00 	li      r12,0
    477c:	65 8c 00 01 	oris    r12,r12,1
    4780:	81 8c c3 94 	lwz     r12,-15468(r12)
    4784:	f8 41 00 28 	std     r2,40(r1)
    4788:	80 0c 00 00 	lwz     r0,0(r12)
    478c:	80 4c 00 04 	lwz     r2,4(r12)
    4790:	7c 09 03 a6 	mtctr   r0
    4794:	4e 80 04 20 	bctr
    4798:	39 80 00 00 	li      r12,0
    479c:	65 8c 00 01 	oris    r12,r12,1
    47a0:	81 8c c3 98 	lwz     r12,-15464(r12)
    47a4:	f8 41 00 28 	std     r2,40(r1)
    47a8:	80 0c 00 00 	lwz     r0,0(r12)
    47ac:	80 4c 00 04 	lwz     r2,4(r12)
    47b0:	7c 09 03 a6 	mtctr   r0
    47b4:	4e 80 04 20 	bctr
    47b8:	39 80 00 00 	li      r12,0
    47bc:	65 8c 00 01 	oris    r12,r12,1
    47c0:	81 8c c3 9c 	lwz     r12,-15460(r12)
    47c4:	f8 41 00 28 	std     r2,40(r1)
    47c8:	80 0c 00 00 	lwz     r0,0(r12)
    47cc:	80 4c 00 04 	lwz     r2,4(r12)
    47d0:	7c 09 03 a6 	mtctr   r0
    47d4:	4e 80 04 20 	bctr
    47d8:	39 80 00 00 	li      r12,0
    47dc:	65 8c 00 01 	oris    r12,r12,1
    47e0:	81 8c c3 38 	lwz     r12,-15560(r12)
    47e4:	f8 41 00 28 	std     r2,40(r1)
    47e8:	80 0c 00 00 	lwz     r0,0(r12)
    47ec:	80 4c 00 04 	lwz     r2,4(r12)
    47f0:	7c 09 03 a6 	mtctr   r0
    47f4:	4e 80 04 20 	bctr
    47f8:	39 80 00 00 	li      r12,0
    47fc:	65 8c 00 01 	oris    r12,r12,1
    4800:	81 8c c3 3c 	lwz     r12,-15556(r12)
    4804:	f8 41 00 28 	std     r2,40(r1)
    4808:	80 0c 00 00 	lwz     r0,0(r12)
    480c:	80 4c 00 04 	lwz     r2,4(r12)
    4810:	7c 09 03 a6 	mtctr   r0
    4814:	4e 80 04 20 	bctr
    4818:	39 80 00 00 	li      r12,0
    481c:	65 8c 00 01 	oris    r12,r12,1
    4820:	81 8c c3 40 	lwz     r12,-15552(r12)
    4824:	f8 41 00 28 	std     r2,40(r1)
    4828:	80 0c 00 00 	lwz     r0,0(r12)
    482c:	80 4c 00 04 	lwz     r2,4(r12)
    4830:	7c 09 03 a6 	mtctr   r0
    4834:	4e 80 04 20 	bctr
    4838:	39 80 00 00 	li      r12,0
    483c:	65 8c 00 01 	oris    r12,r12,1
    4840:	81 8c c3 44 	lwz     r12,-15548(r12)
    4844:	f8 41 00 28 	std     r2,40(r1)
    4848:	80 0c 00 00 	lwz     r0,0(r12)
    484c:	80 4c 00 04 	lwz     r2,4(r12)
    4850:	7c 09 03 a6 	mtctr   r0
    4854:	4e 80 04 20 	bctr
    4858:	39 80 00 00 	li      r12,0
    485c:	65 8c 00 01 	oris    r12,r12,1
    4860:	81 8c c3 48 	lwz     r12,-15544(r12)
    4864:	f8 41 00 28 	std     r2,40(r1)
    4868:	80 0c 00 00 	lwz     r0,0(r12)
    486c:	80 4c 00 04 	lwz     r2,4(r12)
    4870:	7c 09 03 a6 	mtctr   r0
    4874:	4e 80 04 20 	bctr
    4878:	39 80 00 00 	li      r12,0
    487c:	65 8c 00 01 	oris    r12,r12,1
    4880:	81 8c c3 4c 	lwz     r12,-15540(r12)
    4884:	f8 41 00 28 	std     r2,40(r1)
    4888:	80 0c 00 00 	lwz     r0,0(r12)
    488c:	80 4c 00 04 	lwz     r2,4(r12)
    4890:	7c 09 03 a6 	mtctr   r0
    4894:	4e 80 04 20 	bctr
    4898:	39 80 00 00 	li      r12,0
    489c:	65 8c 00 01 	oris    r12,r12,1
    48a0:	81 8c c3 50 	lwz     r12,-15536(r12)
    48a4:	f8 41 00 28 	std     r2,40(r1)
    48a8:	80 0c 00 00 	lwz     r0,0(r12)
    48ac:	80 4c 00 04 	lwz     r2,4(r12)
    48b0:	7c 09 03 a6 	mtctr   r0
    48b4:	4e 80 04 20 	bctr
    48b8:	39 80 00 00 	li      r12,0
    48bc:	65 8c 00 01 	oris    r12,r12,1
    48c0:	81 8c c3 54 	lwz     r12,-15532(r12)
    48c4:	f8 41 00 28 	std     r2,40(r1)
    48c8:	80 0c 00 00 	lwz     r0,0(r12)
    48cc:	80 4c 00 04 	lwz     r2,4(r12)
    48d0:	7c 09 03 a6 	mtctr   r0
    48d4:	4e 80 04 20 	bctr
    48d8:	39 80 00 00 	li      r12,0
    48dc:	65 8c 00 01 	oris    r12,r12,1
    48e0:	81 8c c3 58 	lwz     r12,-15528(r12)
    48e4:	f8 41 00 28 	std     r2,40(r1)
    48e8:	80 0c 00 00 	lwz     r0,0(r12)
    48ec:	80 4c 00 04 	lwz     r2,4(r12)
    48f0:	7c 09 03 a6 	mtctr   r0
    48f4:	4e 80 04 20 	bctr
    48f8:	39 80 00 00 	li      r12,0
    48fc:	65 8c 00 01 	oris    r12,r12,1
    4900:	81 8c c3 5c 	lwz     r12,-15524(r12)
    4904:	f8 41 00 28 	std     r2,40(r1)
    4908:	80 0c 00 00 	lwz     r0,0(r12)
    490c:	80 4c 00 04 	lwz     r2,4(r12)
    4910:	7c 09 03 a6 	mtctr   r0
    4914:	4e 80 04 20 	bctr
    4918:	39 80 00 00 	li      r12,0
    491c:	65 8c 00 01 	oris    r12,r12,1
    4920:	81 8c c3 60 	lwz     r12,-15520(r12)
    4924:	f8 41 00 28 	std     r2,40(r1)
    4928:	80 0c 00 00 	lwz     r0,0(r12)
    492c:	80 4c 00 04 	lwz     r2,4(r12)
    4930:	7c 09 03 a6 	mtctr   r0
    4934:	4e 80 04 20 	bctr
    4938:	39 80 00 00 	li      r12,0
    493c:	65 8c 00 01 	oris    r12,r12,1
    4940:	81 8c c3 64 	lwz     r12,-15516(r12)
    4944:	f8 41 00 28 	std     r2,40(r1)
    4948:	80 0c 00 00 	lwz     r0,0(r12)
    494c:	80 4c 00 04 	lwz     r2,4(r12)
    4950:	7c 09 03 a6 	mtctr   r0
    4954:	4e 80 04 20 	bctr
    4958:	39 80 00 00 	li      r12,0
    495c:	65 8c 00 01 	oris    r12,r12,1
    4960:	81 8c c3 68 	lwz     r12,-15512(r12)
    4964:	f8 41 00 28 	std     r2,40(r1)
    4968:	80 0c 00 00 	lwz     r0,0(r12)
    496c:	80 4c 00 04 	lwz     r2,4(r12)
    4970:	7c 09 03 a6 	mtctr   r0
    4974:	4e 80 04 20 	bctr
    4978:	39 80 00 00 	li      r12,0
    497c:	65 8c 00 01 	oris    r12,r12,1
    4980:	81 8c c3 6c 	lwz     r12,-15508(r12)
    4984:	f8 41 00 28 	std     r2,40(r1)
    4988:	80 0c 00 00 	lwz     r0,0(r12)
    498c:	80 4c 00 04 	lwz     r2,4(r12)
    4990:	7c 09 03 a6 	mtctr   r0
    4994:	4e 80 04 20 	bctr
    4998:	39 80 00 00 	li      r12,0
    499c:	65 8c 00 01 	oris    r12,r12,1
    49a0:	81 8c c3 70 	lwz     r12,-15504(r12)
    49a4:	f8 41 00 28 	std     r2,40(r1)
    49a8:	80 0c 00 00 	lwz     r0,0(r12)
    49ac:	80 4c 00 04 	lwz     r2,4(r12)
    49b0:	7c 09 03 a6 	mtctr   r0
    49b4:	4e 80 04 20 	bctr
    49b8:	39 80 00 00 	li      r12,0
    49bc:	65 8c 00 01 	oris    r12,r12,1
    49c0:	81 8c c3 74 	lwz     r12,-15500(r12)
    49c4:	f8 41 00 28 	std     r2,40(r1)
    49c8:	80 0c 00 00 	lwz     r0,0(r12)
    49cc:	80 4c 00 04 	lwz     r2,4(r12)
    49d0:	7c 09 03 a6 	mtctr   r0
    49d4:	4e 80 04 20 	bctr
    49d8:	39 80 00 00 	li      r12,0
    49dc:	65 8c 00 01 	oris    r12,r12,1
    49e0:	81 8c c3 78 	lwz     r12,-15496(r12)
    49e4:	f8 41 00 28 	std     r2,40(r1)
    49e8:	80 0c 00 00 	lwz     r0,0(r12)
    49ec:	80 4c 00 04 	lwz     r2,4(r12)
    49f0:	7c 09 03 a6 	mtctr   r0
    49f4:	4e 80 04 20 	bctr
    49f8:	39 80 00 00 	li      r12,0
    49fc:	65 8c 00 01 	oris    r12,r12,1
    4a00:	81 8c c3 7c 	lwz     r12,-15492(r12)
    4a04:	f8 41 00 28 	std     r2,40(r1)
    4a08:	80 0c 00 00 	lwz     r0,0(r12)
    4a0c:	80 4c 00 04 	lwz     r2,4(r12)
    4a10:	7c 09 03 a6 	mtctr   r0
    4a14:	4e 80 04 20 	bctr
    4a18:	39 80 00 00 	li      r12,0
    4a1c:	65 8c 00 01 	oris    r12,r12,1
    4a20:	81 8c c3 04 	lwz     r12,-15612(r12)
    4a24:	f8 41 00 28 	std     r2,40(r1)
    4a28:	80 0c 00 00 	lwz     r0,0(r12)
    4a2c:	80 4c 00 04 	lwz     r2,4(r12)
    4a30:	7c 09 03 a6 	mtctr   r0
    4a34:	4e 80 04 20 	bctr
    4a38:	39 80 00 00 	li      r12,0
    4a3c:	65 8c 00 01 	oris    r12,r12,1
    4a40:	81 8c c3 18 	lwz     r12,-15592(r12)
    4a44:	f8 41 00 28 	std     r2,40(r1)
    4a48:	80 0c 00 00 	lwz     r0,0(r12)
    4a4c:	80 4c 00 04 	lwz     r2,4(r12)
    4a50:	7c 09 03 a6 	mtctr   r0
    4a54:	4e 80 04 20 	bctr
    4a58:	39 80 00 00 	li      r12,0
    4a5c:	65 8c 00 01 	oris    r12,r12,1
    4a60:	81 8c c3 1c 	lwz     r12,-15588(r12)
    4a64:	f8 41 00 28 	std     r2,40(r1)
    4a68:	80 0c 00 00 	lwz     r0,0(r12)
    4a6c:	80 4c 00 04 	lwz     r2,4(r12)
    4a70:	7c 09 03 a6 	mtctr   r0
    4a74:	4e 80 04 20 	bctr
    4a78:	39 80 00 00 	li      r12,0
    4a7c:	65 8c 00 01 	oris    r12,r12,1
    4a80:	81 8c c3 20 	lwz     r12,-15584(r12)
    4a84:	f8 41 00 28 	std     r2,40(r1)
    4a88:	80 0c 00 00 	lwz     r0,0(r12)
    4a8c:	80 4c 00 04 	lwz     r2,4(r12)
    4a90:	7c 09 03 a6 	mtctr   r0
    4a94:	4e 80 04 20 	bctr
    4a98:	39 80 00 00 	li      r12,0
    4a9c:	65 8c 00 01 	oris    r12,r12,1
    4aa0:	81 8c c3 24 	lwz     r12,-15580(r12)
    4aa4:	f8 41 00 28 	std     r2,40(r1)
    4aa8:	80 0c 00 00 	lwz     r0,0(r12)
    4aac:	80 4c 00 04 	lwz     r2,4(r12)
    4ab0:	7c 09 03 a6 	mtctr   r0
    4ab4:	4e 80 04 20 	bctr
    4ab8:	39 80 00 00 	li      r12,0
    4abc:	65 8c 00 01 	oris    r12,r12,1
    4ac0:	81 8c c3 80 	lwz     r12,-15488(r12)
    4ac4:	f8 41 00 28 	std     r2,40(r1)
    4ac8:	80 0c 00 00 	lwz     r0,0(r12)
    4acc:	80 4c 00 04 	lwz     r2,4(r12)
    4ad0:	7c 09 03 a6 	mtctr   r0
    4ad4:	4e 80 04 20 	bctr
    4ad8:	39 80 00 00 	li      r12,0
    4adc:	65 8c 00 01 	oris    r12,r12,1
    4ae0:	81 8c c3 8c 	lwz     r12,-15476(r12)
    4ae4:	f8 41 00 28 	std     r2,40(r1)
    4ae8:	80 0c 00 00 	lwz     r0,0(r12)
    4aec:	80 4c 00 04 	lwz     r2,4(r12)
    4af0:	7c 09 03 a6 	mtctr   r0
    4af4:	4e 80 04 20 	bctr
    4af8:	39 80 00 00 	li      r12,0
    4afc:	65 8c 00 01 	oris    r12,r12,1
    4b00:	81 8c c3 14 	lwz     r12,-15596(r12)
    4b04:	f8 41 00 28 	std     r2,40(r1)
    4b08:	80 0c 00 00 	lwz     r0,0(r12)
    4b0c:	80 4c 00 04 	lwz     r2,4(r12)
    4b10:	7c 09 03 a6 	mtctr   r0
    4b14:	4e 80 04 20 	bctr
    4b18:	39 80 00 00 	li      r12,0
    4b1c:	65 8c 00 01 	oris    r12,r12,1
    4b20:	81 8c c3 08 	lwz     r12,-15608(r12)
    4b24:	f8 41 00 28 	std     r2,40(r1)
    4b28:	80 0c 00 00 	lwz     r0,0(r12)
    4b2c:	80 4c 00 04 	lwz     r2,4(r12)
    4b30:	7c 09 03 a6 	mtctr   r0
    4b34:	4e 80 04 20 	bctr
    4b38:	39 80 00 00 	li      r12,0
    4b3c:	65 8c 00 01 	oris    r12,r12,1
    4b40:	81 8c c3 28 	lwz     r12,-15576(r12)
    4b44:	f8 41 00 28 	std     r2,40(r1)
    4b48:	80 0c 00 00 	lwz     r0,0(r12)
    4b4c:	80 4c 00 04 	lwz     r2,4(r12)
    4b50:	7c 09 03 a6 	mtctr   r0
    4b54:	4e 80 04 20 	bctr
    4b58:	39 80 00 00 	li      r12,0
    4b5c:	65 8c 00 01 	oris    r12,r12,1
    4b60:	81 8c c3 10 	lwz     r12,-15600(r12)
    4b64:	f8 41 00 28 	std     r2,40(r1)
    4b68:	80 0c 00 00 	lwz     r0,0(r12)
    4b6c:	80 4c 00 04 	lwz     r2,4(r12)
    4b70:	7c 09 03 a6 	mtctr   r0
    4b74:	4e 80 04 20 	bctr
    4b78:	39 80 00 00 	li      r12,0
    4b7c:	65 8c 00 01 	oris    r12,r12,1
    4b80:	81 8c c3 34 	lwz     r12,-15564(r12)
    4b84:	f8 41 00 28 	std     r2,40(r1)
    4b88:	80 0c 00 00 	lwz     r0,0(r12)
    4b8c:	80 4c 00 04 	lwz     r2,4(r12)
    4b90:	7c 09 03 a6 	mtctr   r0
    4b94:	4e 80 04 20 	bctr
    4b98:	39 80 00 00 	li      r12,0
    4b9c:	65 8c 00 01 	oris    r12,r12,1
    4ba0:	81 8c c3 30 	lwz     r12,-15568(r12)
    4ba4:	f8 41 00 28 	std     r2,40(r1)
    4ba8:	80 0c 00 00 	lwz     r0,0(r12)
    4bac:	80 4c 00 04 	lwz     r2,4(r12)
    4bb0:	7c 09 03 a6 	mtctr   r0
    4bb4:	4e 80 04 20 	bctr
    4bb8:	39 80 00 00 	li      r12,0
    4bbc:	65 8c 00 01 	oris    r12,r12,1
    4bc0:	81 8c c3 2c 	lwz     r12,-15572(r12)
    4bc4:	f8 41 00 28 	std     r2,40(r1)
    4bc8:	80 0c 00 00 	lwz     r0,0(r12)
    4bcc:	80 4c 00 04 	lwz     r2,4(r12)
    4bd0:	7c 09 03 a6 	mtctr   r0
    4bd4:	4e 80 04 20 	bctr
    4bd8:	39 80 00 00 	li      r12,0
    4bdc:	65 8c 00 01 	oris    r12,r12,1
    4be0:	81 8c c3 00 	lwz     r12,-15616(r12)
    4be4:	f8 41 00 28 	std     r2,40(r1)
    4be8:	80 0c 00 00 	lwz     r0,0(r12)
    4bec:	80 4c 00 04 	lwz     r2,4(r12)
    4bf0:	7c 09 03 a6 	mtctr   r0
    4bf4:	4e 80 04 20 	bctr
    4bf8:	39 80 00 00 	li      r12,0
    4bfc:	65 8c 00 01 	oris    r12,r12,1
    4c00:	81 8c c3 88 	lwz     r12,-15480(r12)
    4c04:	f8 41 00 28 	std     r2,40(r1)
    4c08:	80 0c 00 00 	lwz     r0,0(r12)
    4c0c:	80 4c 00 04 	lwz     r2,4(r12)
    4c10:	7c 09 03 a6 	mtctr   r0
    4c14:	4e 80 04 20 	bctr
    4c18:	39 80 00 00 	li      r12,0
    4c1c:	65 8c 00 01 	oris    r12,r12,1
    4c20:	81 8c c3 84 	lwz     r12,-15484(r12)
    4c24:	f8 41 00 28 	std     r2,40(r1)
    4c28:	80 0c 00 00 	lwz     r0,0(r12)
    4c2c:	80 4c 00 04 	lwz     r2,4(r12)
    4c30:	7c 09 03 a6 	mtctr   r0
    4c34:	4e 80 04 20 	bctr
    4c38:	39 80 00 00 	li      r12,0
    4c3c:	65 8c 00 01 	oris    r12,r12,1
    4c40:	81 8c c3 0c 	lwz     r12,-15604(r12)
    4c44:	f8 41 00 28 	std     r2,40(r1)
    4c48:	80 0c 00 00 	lwz     r0,0(r12)
    4c4c:	80 4c 00 04 	lwz     r2,4(r12)
    4c50:	7c 09 03 a6 	mtctr   r0
    4c54:	4e 80 04 20 	bctr
