
./update_files/CORE_OS_PACKAGE/hdd_copy.self.elf:     file format elf64-powerpc


Disassembly of section p.∑ë£oJÇè—w˝¨YEJ0¬µ√E‰ò∏â√„Œ™<£Á!ãœ≠:ÂCÄYÄB∆Ü4áÖê…∑ê!òk^ºí¨™‘Ω<.¥É¬Ô£—÷´S√u<ìs≥|ãS$˝∑u‰⁄®FÔs^˙ˇ¯:

00000000000101c8 <p.∑ë£oJÇè—w˝¨YEJ0¬µ√E‰ò∏â√„Œ™<£Á!ãœ≠:ÂCÄYÄB∆Ü4áÖê…∑ê!òk^ºí¨™‘Ω<.¥É¬Ô£—÷´S√u<ìs≥|ãS$˝∑u‰⁄®FÔs^˙ˇ¯>:
   101c8:	f8 21 ff 91 	stdu    r1,-112(r1)
   101cc:	7c 08 02 a6 	mflr    r0
   101d0:	f8 01 00 80 	std     r0,128(r1)
   101d4:	48 00 03 9d 	bl      0x10570
   101d8:	60 00 00 00 	nop
   101dc:	48 00 13 75 	bl      0x11550
   101e0:	60 00 00 00 	nop
   101e4:	e8 01 00 80 	ld      r0,128(r1)
   101e8:	7c 08 03 a6 	mtlr    r0
   101ec:	38 21 00 70 	addi    r1,r1,112
   101f0:	4e 80 00 20 	blr

Disassembly of section oJÇè—w˝¨YEJ0¬µ√E‰ò∏â√„Œ™<£Á!ãœ≠:ÂCÄYÄB∆Ü4áÖê…∑ê!òk^ºí¨™‘Ω<.¥É¬Ô£—÷´S√u<ìs≥|ãS$˝∑u‰⁄®FÔs^˙ˇ¯:

00000000000101f8 <oJÇè—w˝¨YEJ0¬µ√E‰ò∏â√„Œ™<£Á!ãœ≠:ÂCÄYÄB∆Ü4áÖê…∑ê!òk^ºí¨™‘Ω<.¥É¬Ô£—÷´S√u<ìs≥|ãS$˝∑u‰⁄®FÔs^˙ˇ¯>:
   101f8:	38 40 00 00 	li      r2,0
   101fc:	64 42 00 09 	oris    r2,r2,9
   10200:	60 42 12 c0 	ori     r2,r2,4800
   10204:	80 42 00 04 	lwz     r2,4(r2)
   10208:	f8 21 ff 91 	stdu    r1,-112(r1)
   1020c:	39 c0 00 00 	li      r14,0
   10210:	f9 c1 00 00 	std     r14,0(r1)
   10214:	48 00 00 ed 	bl      0x10300
   10218:	60 00 00 00 	nop
   1021c:	38 60 00 00 	li      r3,0
   10220:	7c 08 02 a6 	mflr    r0
   10224:	f8 21 ff 91 	stdu    r1,-112(r1)
   10228:	f8 01 00 80 	std     r0,128(r1)
   1022c:	48 04 f2 3d 	bl      0x5f468
   10230:	60 00 00 00 	nop
   10234:	e8 01 00 80 	ld      r0,128(r1)
   10238:	38 21 00 70 	addi    r1,r1,112
   1023c:	7c 08 03 a6 	mtlr    r0
   10240:	4e 80 00 20 	blr
   10244:	f8 21 ff 91 	stdu    r1,-112(r1)
   10248:	7c 08 02 a6 	mflr    r0
   1024c:	f8 01 00 80 	std     r0,128(r1)
   10250:	60 00 00 00 	nop
   10254:	60 00 00 00 	nop
   10258:	48 01 04 c1 	bl      0x20718
   1025c:	60 00 00 00 	nop
   10260:	48 01 48 5d 	bl      0x24abc
   10264:	60 00 00 00 	nop
   10268:	48 01 27 25 	bl      0x2298c
   1026c:	60 00 00 00 	nop
   10270:	48 01 4b 99 	bl      0x24e08
   10274:	60 00 00 00 	nop
   10278:	48 01 83 05 	bl      0x2857c
   1027c:	60 00 00 00 	nop
   10280:	e8 01 00 80 	ld      r0,128(r1)
   10284:	38 21 00 70 	addi    r1,r1,112
   10288:	7c 08 03 a6 	mtlr    r0
   1028c:	4e 80 00 20 	blr
   10290:	f8 21 ff 81 	stdu    r1,-128(r1)
   10294:	7c 08 02 a6 	mflr    r0
   10298:	fb e1 00 78 	std     r31,120(r1)
   1029c:	f8 01 00 90 	std     r0,144(r1)
   102a0:	4b ff ff 7d 	bl      0x1021c
   102a4:	48 00 ff 0d 	bl      0x201b0
   102a8:	60 00 00 00 	nop
   102ac:	48 06 2d 29 	bl      0x72fd4
   102b0:	60 00 00 00 	nop
   102b4:	e8 01 00 90 	ld      r0,144(r1)
   102b8:	eb e1 00 78 	ld      r31,120(r1)
   102bc:	38 21 00 80 	addi    r1,r1,128
   102c0:	7c 08 03 a6 	mtlr    r0
   102c4:	4b ff ff 80 	b       0x10244
   102c8:	f8 21 ff 71 	stdu    r1,-144(r1)
   102cc:	7c 08 02 a6 	mflr    r0
   102d0:	fb a1 00 78 	std     r29,120(r1)
   102d4:	7c 7d 1b 78 	mr      r29,r3
   102d8:	f8 01 00 a0 	std     r0,160(r1)
   102dc:	4b ff ff 69 	bl      0x10244
   102e0:	7f a3 07 b4 	extsw   r3,r29
   102e4:	48 04 af 75 	bl      0x5b258
   102e8:	60 00 00 00 	nop
   102ec:	e8 01 00 a0 	ld      r0,160(r1)
   102f0:	eb a1 00 78 	ld      r29,120(r1)
   102f4:	7c 08 03 a6 	mtlr    r0
   102f8:	38 21 00 90 	addi    r1,r1,144
   102fc:	4e 80 00 20 	blr
   10300:	f8 21 ff 61 	stdu    r1,-160(r1)
   10304:	7c 08 02 a6 	mflr    r0
   10308:	fb 41 00 70 	std     r26,112(r1)
   1030c:	fb 81 00 80 	std     r28,128(r1)
   10310:	fb c1 00 90 	std     r30,144(r1)
   10314:	fb e1 00 98 	std     r31,152(r1)
   10318:	fb 61 00 78 	std     r27,120(r1)
   1031c:	fb a1 00 88 	std     r29,136(r1)
   10320:	f8 01 00 b0 	std     r0,176(r1)
   10324:	7c 7f 1b 78 	mr      r31,r3
   10328:	7c 9c 23 78 	mr      r28,r4
   1032c:	7c ba 2b 78 	mr      r26,r5
   10330:	7c de 33 78 	mr      r30,r6
   10334:	7d 9d 63 78 	mr      r29,r12
   10338:	81 62 80 04 	lwz     r11,-32764(r2)
   1033c:	79 04 00 20 	clrldi  r4,r8,32
   10340:	79 46 00 20 	clrldi  r6,r10,32
   10344:	7c e3 3b 78 	mr      r3,r7
   10348:	79 25 00 20 	clrldi  r5,r9,32
   1034c:	7f 9b e3 78 	mr      r27,r28
   10350:	93 ab 00 00 	stw     r29,0(r11)
   10354:	48 04 b6 ed 	bl      0x5ba40
   10358:	60 00 00 00 	nop
   1035c:	39 5c 00 04 	addi    r10,r28,4
   10360:	39 00 00 00 	li      r8,0
   10364:	79 49 00 20 	clrldi  r9,r10,32
   10368:	7b 8b 00 20 	clrldi  r11,r28,32
   1036c:	39 08 00 01 	addi    r8,r8,1
   10370:	39 4a 00 08 	addi    r10,r10,8
   10374:	7f bf 40 40 	cmpld   cr7,r31,r8
   10378:	80 09 00 00 	lwz     r0,0(r9)
   1037c:	3b 9c 00 04 	addi    r28,r28,4
   10380:	90 0b 00 00 	stw     r0,0(r11)
   10384:	40 9c ff e0 	bge+    cr7,0x10364
   10388:	81 22 80 00 	lwz     r9,-32768(r2)
   1038c:	7f 5d d3 78 	mr      r29,r26
   10390:	7f 45 d3 78 	mr      r5,r26
   10394:	7f fc fb 78 	mr      r28,r31
   10398:	39 5a 00 04 	addi    r10,r26,4
   1039c:	39 00 00 00 	li      r8,0
   103a0:	93 e9 00 00 	stw     r31,0(r9)
   103a4:	93 69 00 04 	stw     r27,4(r9)
   103a8:	79 49 00 20 	clrldi  r9,r10,32
   103ac:	78 ab 00 20 	clrldi  r11,r5,32
   103b0:	39 08 00 01 	addi    r8,r8,1
   103b4:	39 4a 00 08 	addi    r10,r10,8
   103b8:	7f be 40 40 	cmpld   cr7,r30,r8
   103bc:	80 09 00 00 	lwz     r0,0(r9)
   103c0:	38 a5 00 04 	addi    r5,r5,4
   103c4:	90 0b 00 00 	stw     r0,0(r11)
   103c8:	40 9c ff e0 	bge+    cr7,0x103a8
   103cc:	48 01 81 d5 	bl      0x285a0
   103d0:	60 00 00 00 	nop
   103d4:	80 62 80 08 	lwz     r3,-32760(r2)
   103d8:	80 82 80 0c 	lwz     r4,-32756(r2)
   103dc:	60 00 00 00 	nop
   103e0:	60 00 00 00 	nop
   103e4:	48 01 4a a1 	bl      0x24e84
   103e8:	60 00 00 00 	nop
   103ec:	48 01 24 a9 	bl      0x22894
   103f0:	60 00 00 00 	nop
   103f4:	48 01 46 65 	bl      0x24a58
   103f8:	60 00 00 00 	nop
   103fc:	80 82 80 14 	lwz     r4,-32748(r2)
   10400:	80 62 80 10 	lwz     r3,-32752(r2)
   10404:	60 00 00 00 	nop
   10408:	60 00 00 00 	nop
   1040c:	48 04 c4 a1 	bl      0x5c8ac
   10410:	60 00 00 00 	nop
   10414:	81 22 80 18 	lwz     r9,-32744(r2)
   10418:	f8 69 00 00 	std     r3,0(r9)
   1041c:	4b ff fd ad 	bl      0x101c8
   10420:	60 00 00 00 	nop
   10424:	80 62 80 1c 	lwz     r3,-32740(r2)
   10428:	80 03 00 00 	lwz     r0,0(r3)
   1042c:	2f 80 00 00 	cmpwi   cr7,r0,0
   10430:	40 9e 00 98 	bne-    cr7,0x104c8
   10434:	80 62 80 20 	lwz     r3,-32736(r2)
   10438:	80 03 00 00 	lwz     r0,0(r3)
   1043c:	2f 80 00 00 	cmpwi   cr7,r0,0
   10440:	40 9e 00 7c 	bne-    cr7,0x104bc
   10444:	80 62 80 24 	lwz     r3,-32732(r2)
   10448:	80 03 00 00 	lwz     r0,0(r3)
   1044c:	2f 80 00 00 	cmpwi   cr7,r0,0
   10450:	41 9e 00 0c 	beq-    cr7,0x1045c
   10454:	48 04 ec 95 	bl      0x5f0e8
   10458:	60 00 00 00 	nop
   1045c:	80 62 80 28 	lwz     r3,-32728(r2)
   10460:	48 04 ae 05 	bl      0x5b264
   10464:	60 00 00 00 	nop
   10468:	80 62 80 2c 	lwz     r3,-32724(r2)
   1046c:	48 04 ae 11 	bl      0x5b27c
   10470:	60 00 00 00 	nop
   10474:	7b 64 00 20 	clrldi  r4,r27,32
   10478:	7b a5 00 20 	clrldi  r5,r29,32
   1047c:	7f 83 07 b4 	extsw   r3,r28
   10480:	48 02 46 65 	bl      0x34ae4
   10484:	60 00 00 00 	nop
   10488:	7c 63 07 b4 	extsw   r3,r3
   1048c:	48 01 00 f9 	bl      0x20584
   10490:	60 00 00 00 	nop
   10494:	e8 01 00 b0 	ld      r0,176(r1)
   10498:	eb 41 00 70 	ld      r26,112(r1)
   1049c:	eb 61 00 78 	ld      r27,120(r1)
   104a0:	7c 08 03 a6 	mtlr    r0
   104a4:	eb 81 00 80 	ld      r28,128(r1)
   104a8:	eb a1 00 88 	ld      r29,136(r1)
   104ac:	eb c1 00 90 	ld      r30,144(r1)
   104b0:	eb e1 00 98 	ld      r31,152(r1)
   104b4:	38 21 00 a0 	addi    r1,r1,160
   104b8:	4e 80 00 20 	blr
   104bc:	48 04 ec 2d 	bl      0x5f0e8
   104c0:	60 00 00 00 	nop
   104c4:	4b ff ff 80 	b       0x10444
   104c8:	48 04 ec 21 	bl      0x5f0e8
   104cc:	60 00 00 00 	nop
   104d0:	4b ff ff 64 	b       0x10434
   104d4:	f8 21 ff 81 	stdu    r1,-128(r1)
   104d8:	7c 08 02 a6 	mflr    r0
   104dc:	fb c1 00 70 	std     r30,112(r1)
   104e0:	83 c2 80 30 	lwz     r30,-32720(r2)
   104e4:	f8 01 00 90 	std     r0,144(r1)
   104e8:	fb e1 00 78 	std     r31,120(r1)
   104ec:	88 1e 00 00 	lbz     r0,0(r30)
   104f0:	2f 80 00 00 	cmpwi   cr7,r0,0
   104f4:	40 de 00 64 	bne-    cr7,0x10558
   104f8:	83 e2 80 34 	lwz     r31,-32716(r2)
   104fc:	48 00 00 28 	b       0x10524
   10500:	79 29 00 20 	clrldi  r9,r9,32
   10504:	38 0b 00 04 	addi    r0,r11,4
   10508:	90 1f 00 00 	stw     r0,0(r31)
   1050c:	80 09 00 00 	lwz     r0,0(r9)
   10510:	f8 41 00 28 	std     r2,40(r1)
   10514:	7c 09 03 a6 	mtctr   r0
   10518:	80 49 00 04 	lwz     r2,4(r9)
   1051c:	4e 80 04 21 	bctrl
   10520:	e8 41 00 28 	ld      r2,40(r1)
   10524:	81 7f 00 00 	lwz     r11,0(r31)
   10528:	79 69 00 20 	clrldi  r9,r11,32
   1052c:	81 29 00 00 	lwz     r9,0(r9)
   10530:	2f 89 00 00 	cmpwi   cr7,r9,0
   10534:	40 9e ff cc 	bne+    cr7,0x10500
   10538:	80 02 80 38 	lwz     r0,-32712(r2)
   1053c:	2f 80 00 00 	cmpwi   cr7,r0,0
   10540:	41 de 00 10 	beq-    cr7,0x10550
   10544:	80 62 80 3c 	lwz     r3,-32708(r2)
   10548:	48 01 ff 15 	bl      0x3045c
   1054c:	60 00 00 00 	nop
   10550:	38 00 00 01 	li      r0,1
   10554:	98 1e 00 00 	stb     r0,0(r30)
   10558:	e8 01 00 90 	ld      r0,144(r1)
   1055c:	eb c1 00 70 	ld      r30,112(r1)
   10560:	eb e1 00 78 	ld      r31,120(r1)
   10564:	7c 08 03 a6 	mtlr    r0
   10568:	38 21 00 80 	addi    r1,r1,128
   1056c:	4e 80 00 20 	blr
   10570:	f8 21 ff 91 	stdu    r1,-112(r1)
   10574:	7c 08 02 a6 	mflr    r0
   10578:	f8 01 00 80 	std     r0,128(r1)
   1057c:	80 02 80 40 	lwz     r0,-32704(r2)
   10580:	2f 80 00 00 	cmpwi   cr7,r0,0
   10584:	41 de 00 14 	beq-    cr7,0x10598
   10588:	80 62 80 3c 	lwz     r3,-32708(r2)
   1058c:	80 82 80 44 	lwz     r4,-32700(r2)
   10590:	48 01 fc d5 	bl      0x30264
   10594:	60 00 00 00 	nop
   10598:	80 62 80 48 	lwz     r3,-32696(r2)
   1059c:	80 03 00 00 	lwz     r0,0(r3)
   105a0:	2f 80 00 00 	cmpwi   cr7,r0,0
   105a4:	41 9e 00 2c 	beq-    cr7,0x105d0
   105a8:	80 02 80 4c 	lwz     r0,-32692(r2)
   105ac:	2f 80 00 00 	cmpwi   cr7,r0,0
   105b0:	78 09 00 20 	clrldi  r9,r0,32
   105b4:	41 9e 00 1c 	beq-    cr7,0x105d0
   105b8:	80 09 00 00 	lwz     r0,0(r9)
   105bc:	f8 41 00 28 	std     r2,40(r1)
   105c0:	7c 09 03 a6 	mtctr   r0
   105c4:	80 49 00 04 	lwz     r2,4(r9)
   105c8:	4e 80 04 21 	bctrl
   105cc:	e8 41 00 28 	ld      r2,40(r1)
   105d0:	e8 01 00 80 	ld      r0,128(r1)
   105d4:	38 21 00 70 	addi    r1,r1,112
   105d8:	7c 08 03 a6 	mtlr    r0
   105dc:	4e 80 00 20 	blr
   105e0:	88 03 00 00 	lbz     r0,0(r3)
   105e4:	7c 69 1b 78 	mr      r9,r3
   105e8:	7c 86 23 78 	mr      r6,r4
   105ec:	2f 80 00 00 	cmpwi   cr7,r0,0
   105f0:	38 60 00 00 	li      r3,0
   105f4:	78 0b 06 20 	clrldi  r11,r0,56
   105f8:	41 9e 00 fc 	beq-    cr7,0x106f4
   105fc:	2b ab 00 7f 	cmpldi  cr7,r11,127
   10600:	38 60 00 01 	li      r3,1
   10604:	40 9d 00 f0 	ble-    cr7,0x106f4
   10608:	39 09 00 01 	addi    r8,r9,1
   1060c:	38 e0 00 01 	li      r7,1
   10610:	55 60 06 72 	rlwinm  r0,r11,0,25,25
   10614:	2f a0 00 00 	cmpdi   cr7,r0,0
   10618:	40 9e 00 40 	bne-    cr7,0x10658
   1061c:	89 68 00 00 	lbz     r11,0(r8)
   10620:	2b ab 00 7f 	cmpldi  cr7,r11,127
   10624:	40 9d 00 cc 	ble-    cr7,0x106f0
   10628:	55 60 06 72 	rlwinm  r0,r11,0,25,25
   1062c:	2f a0 00 00 	cmpdi   cr7,r0,0
   10630:	40 9e ff e4 	bne+    cr7,0x10614
   10634:	8d 68 00 01 	lbzu    r11,1(r8)
   10638:	38 e7 00 01 	addi    r7,r7,1
   1063c:	2b ab 00 7f 	cmpldi  cr7,r11,127
   10640:	55 60 06 72 	rlwinm  r0,r11,0,25,25
   10644:	2f 20 00 00 	cmpdi   cr6,r0,0
   10648:	40 9d 00 a8 	ble-    cr7,0x106f0
   1064c:	41 9a ff e8 	beq+    cr6,0x10634
   10650:	2f a0 00 00 	cmpdi   cr7,r0,0
   10654:	41 9e ff c8 	beq+    cr7,0x1061c
   10658:	55 60 06 b4 	rlwinm  r0,r11,0,26,26
   1065c:	39 20 00 20 	li      r9,32
   10660:	2f a0 00 00 	cmpdi   cr7,r0,0
   10664:	39 40 00 02 	li      r10,2
   10668:	41 9e 00 b4 	beq-    cr7,0x1071c
   1066c:	79 29 f8 42 	rldicl  r9,r9,63,1
   10670:	39 4a 00 01 	addi    r10,r10,1
   10674:	7d 60 48 38 	and     r0,r11,r9
   10678:	2f a0 00 00 	cmpdi   cr7,r0,0
   1067c:	40 9e ff f0 	bne+    cr7,0x1066c
   10680:	34 09 ff ff 	addic.  r0,r9,-1
   10684:	40 82 00 10 	bne-    0x10694
   10688:	38 60 00 00 	li      r3,0
   1068c:	90 04 00 00 	stw     r0,0(r4)
   10690:	4e 80 00 20 	blr
   10694:	79 43 00 20 	clrldi  r3,r10,32
   10698:	7d 47 53 78 	mr      r7,r10
   1069c:	2b a3 00 01 	cmpldi  cr7,r3,1
   106a0:	7d 6b 00 38 	and     r11,r11,r0
   106a4:	7c 6a 1b 78 	mr      r10,r3
   106a8:	40 9d 00 4c 	ble-    cr7,0x106f4
   106ac:	89 28 00 00 	lbz     r9,0(r8)
   106b0:	39 4a ff ff 	addi    r10,r10,-1
   106b4:	55 20 06 32 	rlwinm  r0,r9,0,24,25
   106b8:	7d 49 03 a6 	mtctr   r10
   106bc:	39 40 00 01 	li      r10,1
   106c0:	2f a0 00 80 	cmpdi   cr7,r0,128
   106c4:	41 9e 00 18 	beq-    cr7,0x106dc
   106c8:	48 00 00 64 	b       0x1072c
   106cc:	8d 28 00 01 	lbzu    r9,1(r8)
   106d0:	55 20 06 32 	rlwinm  r0,r9,0,24,25
   106d4:	2f a0 00 80 	cmpdi   cr7,r0,128
   106d8:	40 9e 00 2c 	bne-    cr7,0x10704
   106dc:	79 29 06 a0 	clrldi  r9,r9,58
   106e0:	79 60 36 64 	rldicr  r0,r11,6,57
   106e4:	39 4a 00 01 	addi    r10,r10,1
   106e8:	7c 0b 4b 78 	or      r11,r0,r9
   106ec:	42 00 ff e0 	bdnz+   0x106cc
   106f0:	78 e3 00 20 	clrldi  r3,r7,32
   106f4:	2f 86 00 00 	cmpwi   cr7,r6,0
   106f8:	4d 9e 00 20 	beqlr   cr7
   106fc:	91 64 00 00 	stw     r11,0(r4)
   10700:	4e 80 00 20 	blr
   10704:	7d 47 53 78 	mr      r7,r10
   10708:	2f 86 00 00 	cmpwi   cr7,r6,0
   1070c:	78 e3 00 20 	clrldi  r3,r7,32
   10710:	4d 9e 00 20 	beqlr   cr7
   10714:	90 a4 00 00 	stw     r5,0(r4)
   10718:	4e 80 00 20 	blr
   1071c:	79 6b 06 e0 	clrldi  r11,r11,59
   10720:	38 e0 00 02 	li      r7,2
   10724:	39 40 00 02 	li      r10,2
   10728:	4b ff ff 84 	b       0x106ac
   1072c:	38 e0 00 01 	li      r7,1
   10730:	4b ff ff d8 	b       0x10708
   10734:	39 20 00 00 	li      r9,0
   10738:	d0 23 00 20 	stfs    f1,32(r3)
   1073c:	38 00 00 00 	li      r0,0
   10740:	d0 43 00 2c 	stfs    f2,44(r3)
   10744:	91 23 00 38 	stw     r9,56(r3)
   10748:	90 03 00 28 	stw     r0,40(r3)
   1074c:	91 23 00 0c 	stw     r9,12(r3)
   10750:	90 03 00 10 	stw     r0,16(r3)
   10754:	90 03 00 14 	stw     r0,20(r3)
   10758:	90 03 00 18 	stw     r0,24(r3)
   1075c:	90 03 00 1c 	stw     r0,28(r3)
   10760:	90 03 00 24 	stw     r0,36(r3)
   10764:	b1 23 00 30 	sth     r9,48(r3)
   10768:	b1 23 00 32 	sth     r9,50(r3)
   1076c:	b1 23 00 34 	sth     r9,52(r3)
   10770:	b1 23 00 36 	sth     r9,54(r3)
   10774:	4e 80 00 20 	blr
   10778:	2c 24 00 00 	cmpdi   r4,0
   1077c:	7c a0 2b 78 	mr      r0,r5
   10780:	41 82 00 34 	beq-    0x107b4
   10784:	80 63 00 00 	lwz     r3,0(r3)
   10788:	78 69 00 20 	clrldi  r9,r3,32
   1078c:	c0 09 00 10 	lfs     f0,16(r9)
   10790:	d0 04 00 00 	stfs    f0,0(r4)
   10794:	2f 80 00 00 	cmpwi   cr7,r0,0
   10798:	78 6b 00 20 	clrldi  r11,r3,32
   1079c:	7d 63 5b 78 	mr      r3,r11
   107a0:	41 9e 00 0c 	beq-    cr7,0x107ac
   107a4:	c0 0b 00 14 	lfs     f0,20(r11)
   107a8:	d0 05 00 00 	stfs    f0,0(r5)
   107ac:	c0 23 00 04 	lfs     f1,4(r3)
   107b0:	4e 80 00 20 	blr
   107b4:	80 63 00 00 	lwz     r3,0(r3)
   107b8:	4b ff ff dc 	b       0x10794
   107bc:	2b 84 00 1f 	cmplwi  cr7,r4,31
   107c0:	7c 66 1b 78 	mr      r6,r3
   107c4:	40 9d 00 ac 	ble-    cr7,0x10870
   107c8:	6c 80 ff ff 	xoris   r0,r4,65535
   107cc:	2f 80 ff ef 	cmpwi   cr7,r0,-17
   107d0:	41 9e 00 a0 	beq-    cr7,0x10870
   107d4:	2b 84 ff fd 	cmplwi  cr7,r4,65533
   107d8:	41 9d 00 98 	bgt-    cr7,0x10870
   107dc:	81 23 00 04 	lwz     r9,4(r3)
   107e0:	80 e3 00 08 	lwz     r7,8(r3)
   107e4:	39 49 ff ff 	addi    r10,r9,-1
   107e8:	7d 4b 0e 70 	srawi   r11,r10,1
   107ec:	7d 6b 01 94 	addze   r11,r11
   107f0:	55 69 20 36 	rlwinm  r9,r11,4,0,27
   107f4:	55 60 30 32 	rlwinm  r0,r11,6,0,25
   107f8:	7c 09 00 50 	subf    r0,r9,r0
   107fc:	7c 07 02 14 	add     r0,r7,r0
   10800:	78 03 00 20 	clrldi  r3,r0,32
   10804:	80 03 00 00 	lwz     r0,0(r3)
   10808:	7f 84 00 00 	cmpw    cr7,r4,r0
   1080c:	4d 9e 00 20 	beqlr   cr7
   10810:	39 00 00 00 	li      r8,0
   10814:	48 00 00 3c 	b       0x10850
   10818:	39 4b ff ff 	addi    r10,r11,-1
   1081c:	7f 8a 40 00 	cmpw    cr7,r10,r8
   10820:	41 9c 00 44 	blt-    cr7,0x10864
   10824:	7c 08 52 14 	add     r0,r8,r10
   10828:	7c 0b 0e 70 	srawi   r11,r0,1
   1082c:	7d 6b 01 94 	addze   r11,r11
   10830:	55 69 20 36 	rlwinm  r9,r11,4,0,27
   10834:	55 60 30 32 	rlwinm  r0,r11,6,0,25
   10838:	7c 09 00 50 	subf    r0,r9,r0
   1083c:	7c 00 3a 14 	add     r0,r0,r7
   10840:	78 03 00 20 	clrldi  r3,r0,32
   10844:	80 03 00 00 	lwz     r0,0(r3)
   10848:	7f 84 00 00 	cmpw    cr7,r4,r0
   1084c:	4d 9e 00 20 	beqlr   cr7
   10850:	7f 84 00 40 	cmplw   cr7,r4,r0
   10854:	41 9c ff c4 	blt+    cr7,0x10818
   10858:	39 0b 00 01 	addi    r8,r11,1
   1085c:	7f 88 50 00 	cmpw    cr7,r8,r10
   10860:	40 9d ff c4 	ble+    cr7,0x10824
   10864:	38 06 00 0c 	addi    r0,r6,12
   10868:	78 03 00 20 	clrldi  r3,r0,32
   1086c:	4e 80 00 20 	blr
   10870:	38 06 00 3c 	addi    r0,r6,60
   10874:	90 83 00 3c 	stw     r4,60(r3)
   10878:	78 03 00 20 	clrldi  r3,r0,32
   1087c:	4e 80 00 20 	blr
   10880:	f8 21 ff 81 	stdu    r1,-128(r1)
   10884:	7c 08 02 a6 	mflr    r0
   10888:	fb c1 00 70 	std     r30,112(r1)
   1088c:	f8 01 00 90 	std     r0,144(r1)
   10890:	7c 80 23 78 	mr      r0,r4
   10894:	7c 7e 1b 78 	mr      r30,r3
   10898:	2f 80 00 00 	cmpwi   cr7,r0,0
   1089c:	fb e1 00 78 	std     r31,120(r1)
   108a0:	78 84 04 20 	clrldi  r4,r4,48
   108a4:	78 63 00 20 	clrldi  r3,r3,32
   108a8:	40 9e 00 38 	bne-    cr7,0x108e0
   108ac:	81 3e 00 00 	lwz     r9,0(r30)
   108b0:	7b c3 00 20 	clrldi  r3,r30,32
   108b4:	c0 49 00 04 	lfs     f2,4(r9)
   108b8:	c0 29 00 00 	lfs     f1,0(r9)
   108bc:	4b ff fe 79 	bl      0x10734
   108c0:	38 7e 00 0c 	addi    r3,r30,12
   108c4:	e8 01 00 90 	ld      r0,144(r1)
   108c8:	78 63 00 20 	clrldi  r3,r3,32
   108cc:	eb c1 00 70 	ld      r30,112(r1)
   108d0:	eb e1 00 78 	ld      r31,120(r1)
   108d4:	7c 08 03 a6 	mtlr    r0
   108d8:	38 21 00 80 	addi    r1,r1,128
   108dc:	4e 80 00 20 	blr
   108e0:	4b ff fe dd 	bl      0x107bc
   108e4:	2f 83 00 00 	cmpwi   cr7,r3,0
   108e8:	41 9e ff dc 	beq+    cr7,0x108c4
   108ec:	80 03 00 00 	lwz     r0,0(r3)
   108f0:	81 23 00 04 	lwz     r9,4(r3)
   108f4:	81 63 00 08 	lwz     r11,8(r3)
   108f8:	81 43 00 0c 	lwz     r10,12(r3)
   108fc:	90 1e 00 0c 	stw     r0,12(r30)
   10900:	91 3e 00 10 	stw     r9,16(r30)
   10904:	91 7e 00 14 	stw     r11,20(r30)
   10908:	91 5e 00 18 	stw     r10,24(r30)
   1090c:	80 03 00 10 	lwz     r0,16(r3)
   10910:	81 23 00 14 	lwz     r9,20(r3)
   10914:	81 63 00 18 	lwz     r11,24(r3)
   10918:	81 43 00 1c 	lwz     r10,28(r3)
   1091c:	90 1e 00 1c 	stw     r0,28(r30)
   10920:	91 3e 00 20 	stw     r9,32(r30)
   10924:	91 7e 00 24 	stw     r11,36(r30)
   10928:	91 5e 00 28 	stw     r10,40(r30)
   1092c:	81 23 00 20 	lwz     r9,32(r3)
   10930:	81 63 00 24 	lwz     r11,36(r3)
   10934:	81 43 00 28 	lwz     r10,40(r3)
   10938:	80 03 00 2c 	lwz     r0,44(r3)
   1093c:	91 3e 00 2c 	stw     r9,44(r30)
   10940:	90 1e 00 38 	stw     r0,56(r30)
   10944:	91 7e 00 30 	stw     r11,48(r30)
   10948:	91 5e 00 34 	stw     r10,52(r30)
   1094c:	4b ff ff 78 	b       0x108c4
   10950:	2f 84 00 00 	cmpwi   cr7,r4,0
   10954:	7c 08 02 a6 	mflr    r0
   10958:	f8 21 ff 41 	stdu    r1,-192(r1)
   1095c:	db c1 00 b0 	stfd    f30,176(r1)
   10960:	7c 69 1b 78 	mr      r9,r3
   10964:	fb 61 00 88 	std     r27,136(r1)
   10968:	ff c0 08 90 	fmr     f30,f1
   1096c:	fb a1 00 98 	std     r29,152(r1)
   10970:	fb e1 00 a8 	std     r31,168(r1)
   10974:	db e1 00 b8 	stfd    f31,184(r1)
   10978:	7c dd 33 78 	mr      r29,r6
   1097c:	fb 41 00 80 	std     r26,128(r1)
   10980:	fb 81 00 90 	std     r28,144(r1)
   10984:	fb c1 00 a0 	std     r30,160(r1)
   10988:	f8 01 00 d0 	std     r0,208(r1)
   1098c:	7c 9f 23 78 	mr      r31,r4
   10990:	7c db 33 78 	mr      r27,r6
   10994:	41 9e 00 14 	beq-    cr7,0x109a8
   10998:	88 04 00 00 	lbz     r0,0(r4)
   1099c:	78 83 00 20 	clrldi  r3,r4,32
   109a0:	2f 80 00 00 	cmpwi   cr7,r0,0
   109a4:	40 9e 00 44 	bne-    cr7,0x109e8
   109a8:	2f 9b 00 00 	cmpwi   cr7,r27,0
   109ac:	c0 22 80 50 	lfs     f1,-32688(r2)
   109b0:	41 9e 00 08 	beq-    cr7,0x109b8
   109b4:	d0 3d 00 00 	stfs    f1,0(r29)
   109b8:	e8 01 00 d0 	ld      r0,208(r1)
   109bc:	eb 41 00 80 	ld      r26,128(r1)
   109c0:	eb 61 00 88 	ld      r27,136(r1)
   109c4:	7c 08 03 a6 	mtlr    r0
   109c8:	eb 81 00 90 	ld      r28,144(r1)
   109cc:	eb a1 00 98 	ld      r29,152(r1)
   109d0:	eb c1 00 a0 	ld      r30,160(r1)
   109d4:	eb e1 00 a8 	ld      r31,168(r1)
   109d8:	cb c1 00 b0 	lfd     f30,176(r1)
   109dc:	cb e1 00 b8 	lfd     f31,184(r1)
   109e0:	38 21 00 c0 	addi    r1,r1,192
   109e4:	4e 80 00 20 	blr
   109e8:	3b 41 00 70 	addi    r26,r1,112
   109ec:	38 a0 30 00 	li      r5,12288
   109f0:	7f 44 d3 78 	mr      r4,r26
   109f4:	79 3c 00 20 	clrldi  r28,r9,32
   109f8:	4b ff fb e9 	bl      0x105e0
   109fc:	80 81 00 70 	lwz     r4,112(r1)
   10a00:	7f ff 1a 14 	add     r31,r31,r3
   10a04:	7f 83 e3 78 	mr      r3,r28
   10a08:	4b ff fd b5 	bl      0x107bc
   10a0c:	c0 02 80 50 	lfs     f0,-32688(r2)
   10a10:	c1 a3 00 0c 	lfs     f13,12(r3)
   10a14:	7c 7e 1b 78 	mr      r30,r3
   10a18:	ef e0 68 28 	fsubs   f31,f0,f13
   10a1c:	48 00 00 0c 	b       0x10a28
   10a20:	4b ff fd 9d 	bl      0x107bc
   10a24:	7c 7e 1b 78 	mr      r30,r3
   10a28:	c0 1e 00 14 	lfs     f0,20(r30)
   10a2c:	7b 44 00 20 	clrldi  r4,r26,32
   10a30:	ec 1e 00 2a 	fadds   f0,f30,f0
   10a34:	7b e3 00 20 	clrldi  r3,r31,32
   10a38:	38 a0 30 00 	li      r5,12288
   10a3c:	ef ff 00 2a 	fadds   f31,f31,f0
   10a40:	4b ff fb a1 	bl      0x105e0
   10a44:	80 01 00 70 	lwz     r0,112(r1)
   10a48:	7f ff 1a 14 	add     r31,r31,r3
   10a4c:	7f 83 e3 78 	mr      r3,r28
   10a50:	2f 80 00 00 	cmpwi   cr7,r0,0
   10a54:	78 04 00 20 	clrldi  r4,r0,32
   10a58:	40 9e ff c8 	bne+    cr7,0x10a20
   10a5c:	2f 9b 00 00 	cmpwi   cr7,r27,0
   10a60:	41 9e 00 08 	beq-    cr7,0x10a68
   10a64:	d3 fd 00 00 	stfs    f31,0(r29)
   10a68:	c0 1e 00 14 	lfs     f0,20(r30)
   10a6c:	ec 1e 00 2a 	fadds   f0,f30,f0
   10a70:	e8 01 00 d0 	ld      r0,208(r1)
   10a74:	c1 be 00 04 	lfs     f13,4(r30)
   10a78:	eb 41 00 80 	ld      r26,128(r1)
   10a7c:	7c 08 03 a6 	mtlr    r0
   10a80:	eb 61 00 88 	ld      r27,136(r1)
   10a84:	eb 81 00 90 	ld      r28,144(r1)
   10a88:	eb a1 00 98 	ld      r29,152(r1)
   10a8c:	eb c1 00 a0 	ld      r30,160(r1)
   10a90:	eb e1 00 a8 	ld      r31,168(r1)
   10a94:	cb c1 00 b0 	lfd     f30,176(r1)
   10a98:	ec 1f 00 28 	fsubs   f0,f31,f0
   10a9c:	cb e1 00 b8 	lfd     f31,184(r1)
   10aa0:	38 21 00 c0 	addi    r1,r1,192
   10aa4:	ec 20 68 2a 	fadds   f1,f0,f13
   10aa8:	4e 80 00 20 	blr
   10aac:	2c 23 00 00 	cmpdi   r3,0
   10ab0:	4d 82 00 20 	beqlr   
   10ab4:	98 c3 00 72 	stb     r6,114(r3)
   10ab8:	98 83 00 70 	stb     r4,112(r3)
   10abc:	98 a3 00 71 	stb     r5,113(r3)
   10ac0:	4e 80 00 20 	blr
   10ac4:	2f 84 00 00 	cmpwi   cr7,r4,0
   10ac8:	7c 08 02 a6 	mflr    r0
   10acc:	f8 21 ff 71 	stdu    r1,-144(r1)
   10ad0:	fb a1 00 78 	std     r29,120(r1)
   10ad4:	fb e1 00 88 	std     r31,136(r1)
   10ad8:	7c 7d 1b 78 	mr      r29,r3
   10adc:	7c 7f 1b 78 	mr      r31,r3
   10ae0:	fb 81 00 70 	std     r28,112(r1)
   10ae4:	fb c1 00 80 	std     r30,128(r1)
   10ae8:	f8 01 00 a0 	std     r0,160(r1)
   10aec:	7c 88 23 78 	mr      r8,r4
   10af0:	38 60 ff ff 	li      r3,-1
   10af4:	41 9e 01 4c 	beq-    cr7,0x10c40
   10af8:	a0 04 00 06 	lhz     r0,6(r4)
   10afc:	7c 9e 23 78 	mr      r30,r4
   10b00:	a3 84 00 04 	lhz     r28,4(r4)
   10b04:	2f 80 00 00 	cmpwi   cr7,r0,0
   10b08:	93 9f 00 04 	stw     r28,4(r31)
   10b0c:	40 9d 00 70 	ble-    cr7,0x10b7c
   10b10:	2f 80 00 01 	cmpwi   cr7,r0,1
   10b14:	78 00 00 20 	clrldi  r0,r0,32
   10b18:	39 60 00 00 	li      r11,0
   10b1c:	3c c0 00 02 	lis     r6,2
   10b20:	7c 09 03 a6 	mtctr   r0
   10b24:	3c e0 00 08 	lis     r7,8
   10b28:	40 fc 00 28 	bge+    cr7,0x10b50
   10b2c:	48 00 01 48 	b       0x10c74
   10b30:	2f 80 00 00 	cmpwi   cr7,r0,0
   10b34:	41 9a 01 30 	beq-    cr6,0x10c64
   10b38:	40 9e 00 10 	bne-    cr7,0x10b48
   10b3c:	80 09 00 0c 	lwz     r0,12(r9)
   10b40:	7c 00 42 14 	add     r0,r0,r8
   10b44:	90 1f 00 00 	stw     r0,0(r31)
   10b48:	39 6b 00 08 	addi    r11,r11,8
   10b4c:	42 40 00 30 	bdz-    0x10b7c
   10b50:	7c 1e 5a 14 	add     r0,r30,r11
   10b54:	78 09 00 20 	clrldi  r9,r0,32
   10b58:	80 09 00 08 	lwz     r0,8(r9)
   10b5c:	7f 80 30 00 	cmpw    cr7,r0,r6
   10b60:	7f 00 38 00 	cmpw    cr6,r0,r7
   10b64:	40 9e ff cc 	bne+    cr7,0x10b30
   10b68:	80 09 00 0c 	lwz     r0,12(r9)
   10b6c:	39 6b 00 08 	addi    r11,r11,8
   10b70:	7d 40 42 14 	add     r10,r0,r8
   10b74:	91 5f 00 08 	stw     r10,8(r31)
   10b78:	42 00 ff d8 	bdnz+   0x10b50
   10b7c:	7b bd 00 20 	clrldi  r29,r29,32
   10b80:	38 80 00 00 	li      r4,0
   10b84:	7f a3 eb 78 	mr      r3,r29
   10b88:	4b ff fc f9 	bl      0x10880
   10b8c:	38 00 00 00 	li      r0,0
   10b90:	39 20 00 00 	li      r9,0
   10b94:	7f a3 eb 78 	mr      r3,r29
   10b98:	38 80 00 ff 	li      r4,255
   10b9c:	38 a0 00 ff 	li      r5,255
   10ba0:	38 c0 00 ff 	li      r6,255
   10ba4:	90 1f 00 5c 	stw     r0,92(r31)
   10ba8:	91 3f 00 68 	stw     r9,104(r31)
   10bac:	91 3f 00 3c 	stw     r9,60(r31)
   10bb0:	90 1f 00 40 	stw     r0,64(r31)
   10bb4:	90 1f 00 44 	stw     r0,68(r31)
   10bb8:	90 1f 00 48 	stw     r0,72(r31)
   10bbc:	90 1f 00 4c 	stw     r0,76(r31)
   10bc0:	90 1f 00 50 	stw     r0,80(r31)
   10bc4:	90 1f 00 54 	stw     r0,84(r31)
   10bc8:	90 1f 00 58 	stw     r0,88(r31)
   10bcc:	b1 3f 00 60 	sth     r9,96(r31)
   10bd0:	b1 3f 00 62 	sth     r9,98(r31)
   10bd4:	b1 3f 00 64 	sth     r9,100(r31)
   10bd8:	b1 3f 00 66 	sth     r9,102(r31)
   10bdc:	4b ff fe d1 	bl      0x10aac
   10be0:	a0 7e 00 02 	lhz     r3,2(r30)
   10be4:	2f 83 00 00 	cmpwi   cr7,r3,0
   10be8:	40 9e 00 54 	bne-    cr7,0x10c3c
   10bec:	2f 9c 00 00 	cmpwi   cr7,r28,0
   10bf0:	38 60 00 01 	li      r3,1
   10bf4:	b0 7e 00 02 	sth     r3,2(r30)
   10bf8:	40 9d 00 34 	ble-    cr7,0x10c2c
   10bfc:	7b 9c 00 20 	clrldi  r28,r28,32
   10c00:	81 5f 00 08 	lwz     r10,8(r31)
   10c04:	39 00 00 00 	li      r8,0
   10c08:	7f 89 03 a6 	mtctr   r28
   10c0c:	7d 28 52 14 	add     r9,r8,r10
   10c10:	81 7f 00 6c 	lwz     r11,108(r31)
   10c14:	39 08 00 30 	addi    r8,r8,48
   10c18:	79 29 00 20 	clrldi  r9,r9,32
   10c1c:	80 09 00 2c 	lwz     r0,44(r9)
   10c20:	7d 6b 02 14 	add     r11,r11,r0
   10c24:	91 69 00 2c 	stw     r11,44(r9)
   10c28:	42 00 ff e4 	bdnz+   0x10c0c
   10c2c:	38 60 00 02 	li      r3,2
   10c30:	38 00 00 00 	li      r0,0
   10c34:	b0 7e 00 02 	sth     r3,2(r30)
   10c38:	90 1f 00 6c 	stw     r0,108(r31)
   10c3c:	54 63 04 3e 	clrlwi  r3,r3,16
   10c40:	e8 01 00 a0 	ld      r0,160(r1)
   10c44:	7c 63 07 b4 	extsw   r3,r3
   10c48:	eb 81 00 70 	ld      r28,112(r1)
   10c4c:	eb a1 00 78 	ld      r29,120(r1)
   10c50:	7c 08 03 a6 	mtlr    r0
   10c54:	eb c1 00 80 	ld      r30,128(r1)
   10c58:	eb e1 00 88 	ld      r31,136(r1)
   10c5c:	38 21 00 90 	addi    r1,r1,144
   10c60:	4e 80 00 20 	blr
   10c64:	80 09 00 0c 	lwz     r0,12(r9)
   10c68:	7c 00 42 14 	add     r0,r0,r8
   10c6c:	90 1f 00 6c 	stw     r0,108(r31)
   10c70:	4b ff fe d8 	b       0x10b48
   10c74:	38 00 00 01 	li      r0,1
   10c78:	7c 09 03 a6 	mtctr   r0
   10c7c:	4b ff fe d4 	b       0x10b50
   10c80:	2c 23 00 00 	cmpdi   r3,0
   10c84:	39 00 00 00 	li      r8,0
   10c88:	4d 82 00 20 	beqlr   
   10c8c:	c0 02 80 50 	lfs     f0,-32688(r2)
   10c90:	39 60 00 00 	li      r11,0
   10c94:	ff 81 00 00 	fcmpu   cr7,f1,f0
   10c98:	90 a3 00 04 	stw     r5,4(r3)
   10c9c:	ff 02 00 00 	fcmpu   cr6,f2,f0
   10ca0:	90 c3 00 08 	stw     r6,8(r3)
   10ca4:	90 83 00 00 	stw     r4,0(r3)
   10ca8:	39 40 00 00 	li      r10,0
   10cac:	41 9c 00 24 	blt-    cr7,0x10cd0
   10cb0:	fc 00 08 90 	fmr     f0,f1
   10cb4:	39 21 ff e0 	addi    r9,r1,-32
   10cb8:	fd a0 00 1e 	fctiwz  f13,f0
   10cbc:	fc 00 06 5e 	fctidz  f0,f0
   10cc0:	d8 01 ff f0 	stfd    f0,-16(r1)
   10cc4:	e9 41 ff f0 	ld      r10,-16(r1)
   10cc8:	7d a0 4f ae 	stfiwx  f13,0,r9
   10ccc:	81 61 ff e0 	lwz     r11,-32(r1)
   10cd0:	39 20 00 00 	li      r9,0
   10cd4:	38 00 00 00 	li      r0,0
   10cd8:	41 98 00 24 	blt-    cr6,0x10cfc
   10cdc:	fc 00 10 90 	fmr     f0,f2
   10ce0:	39 21 ff e0 	addi    r9,r1,-32
   10ce4:	fd a0 00 1e 	fctiwz  f13,f0
   10ce8:	fc 00 06 5e 	fctidz  f0,f0
   10cec:	d8 01 ff f0 	stfd    f0,-16(r1)
   10cf0:	e8 01 ff f0 	ld      r0,-16(r1)
   10cf4:	7d a0 4f ae 	stfiwx  f13,0,r9
   10cf8:	81 21 ff e0 	lwz     r9,-32(r1)
   10cfc:	90 03 00 20 	stw     r0,32(r3)
   10d00:	91 63 00 0c 	stw     r11,12(r3)
   10d04:	91 23 00 10 	stw     r9,16(r3)
   10d08:	91 03 00 18 	stw     r8,24(r3)
   10d0c:	91 43 00 1c 	stw     r10,28(r3)
   10d10:	91 03 00 14 	stw     r8,20(r3)
   10d14:	4e 80 00 20 	blr
   10d18:	2f 87 00 00 	cmpwi   cr7,r7,0
   10d1c:	7c 08 02 a6 	mflr    r0
   10d20:	f8 21 fe a1 	stdu    r1,-352(r1)
   10d24:	db a1 01 48 	stfd    f29,328(r1)
   10d28:	7c 69 1b 78 	mr      r9,r3
   10d2c:	db c1 01 50 	stfd    f30,336(r1)
   10d30:	ff a0 18 90 	fmr     f29,f3
   10d34:	db e1 01 58 	stfd    f31,344(r1)
   10d38:	ff c0 10 90 	fmr     f30,f2
   10d3c:	fb c1 01 38 	std     r30,312(r1)
   10d40:	ff e0 08 90 	fmr     f31,f1
   10d44:	fb e1 01 40 	std     r31,320(r1)
   10d48:	f9 c1 00 b8 	std     r14,184(r1)
   10d4c:	f9 e1 00 c0 	std     r15,192(r1)
   10d50:	fa 01 00 c8 	std     r16,200(r1)
   10d54:	fa 21 00 d0 	std     r17,208(r1)
   10d58:	fa 41 00 d8 	std     r18,216(r1)
   10d5c:	fa 61 00 e0 	std     r19,224(r1)
   10d60:	fa 81 00 e8 	std     r20,232(r1)
   10d64:	fa a1 00 f0 	std     r21,240(r1)
   10d68:	fa c1 00 f8 	std     r22,248(r1)
   10d6c:	fa e1 01 00 	std     r23,256(r1)
   10d70:	fb 01 01 08 	std     r24,264(r1)
   10d74:	fb 21 01 10 	std     r25,272(r1)
   10d78:	fb 41 01 18 	std     r26,280(r1)
   10d7c:	fb 61 01 20 	std     r27,288(r1)
   10d80:	fb 81 01 28 	std     r28,296(r1)
   10d84:	fb a1 01 30 	std     r29,304(r1)
   10d88:	f8 01 01 70 	std     r0,368(r1)
   10d8c:	f8 61 00 90 	std     r3,144(r1)
   10d90:	7c fe 3b 78 	mr      r30,r7
   10d94:	7c 9f 23 78 	mr      r31,r4
   10d98:	41 9e 00 14 	beq-    cr7,0x10dac
   10d9c:	88 07 00 00 	lbz     r0,0(r7)
   10da0:	78 e3 00 20 	clrldi  r3,r7,32
   10da4:	2f 80 00 00 	cmpwi   cr7,r0,0
   10da8:	40 9e 00 6c 	bne-    cr7,0x10e14
   10dac:	e8 01 01 70 	ld      r0,368(r1)
   10db0:	fc 20 f8 90 	fmr     f1,f31
   10db4:	e9 c1 00 b8 	ld      r14,184(r1)
   10db8:	e9 e1 00 c0 	ld      r15,192(r1)
   10dbc:	7c 08 03 a6 	mtlr    r0
   10dc0:	ea 01 00 c8 	ld      r16,200(r1)
   10dc4:	ea 21 00 d0 	ld      r17,208(r1)
   10dc8:	ea 41 00 d8 	ld      r18,216(r1)
   10dcc:	ea 61 00 e0 	ld      r19,224(r1)
   10dd0:	ea 81 00 e8 	ld      r20,232(r1)
   10dd4:	ea a1 00 f0 	ld      r21,240(r1)
   10dd8:	ea c1 00 f8 	ld      r22,248(r1)
   10ddc:	ea e1 01 00 	ld      r23,256(r1)
   10de0:	eb 01 01 08 	ld      r24,264(r1)
   10de4:	eb 21 01 10 	ld      r25,272(r1)
   10de8:	eb 41 01 18 	ld      r26,280(r1)
   10dec:	eb 61 01 20 	ld      r27,288(r1)
   10df0:	eb 81 01 28 	ld      r28,296(r1)
   10df4:	eb a1 01 30 	ld      r29,304(r1)
   10df8:	eb c1 01 38 	ld      r30,312(r1)
   10dfc:	eb e1 01 40 	ld      r31,320(r1)
   10e00:	cb a1 01 48 	lfd     f29,328(r1)
   10e04:	cb c1 01 50 	lfd     f30,336(r1)
   10e08:	cb e1 01 58 	lfd     f31,344(r1)
   10e0c:	38 21 01 60 	addi    r1,r1,352
   10e10:	4e 80 00 20 	blr
   10e14:	38 01 00 70 	addi    r0,r1,112
   10e18:	79 29 00 20 	clrldi  r9,r9,32
   10e1c:	7c 04 03 78 	mr      r4,r0
   10e20:	38 a0 30 00 	li      r5,12288
   10e24:	f8 01 00 a8 	std     r0,168(r1)
   10e28:	f9 21 00 98 	std     r9,152(r1)
   10e2c:	4b ff f7 b5 	bl      0x105e0
   10e30:	7f de 1a 14 	add     r30,r30,r3
   10e34:	80 81 00 70 	lwz     r4,112(r1)
   10e38:	e8 61 00 98 	ld      r3,152(r1)
   10e3c:	93 c1 00 84 	stw     r30,132(r1)
   10e40:	4b ff f9 7d 	bl      0x107bc
   10e44:	c0 03 00 0c 	lfs     f0,12(r3)
   10e48:	7c 78 1b 78 	mr      r24,r3
   10e4c:	ef ff 00 28 	fsubs   f31,f31,f0
   10e50:	80 18 00 2c 	lwz     r0,44(r24)
   10e54:	2f 80 00 00 	cmpwi   cr7,r0,0
   10e58:	41 9e 04 30 	beq-    cr7,0x11288
   10e5c:	fd a0 f8 90 	fmr     f13,f31
   10e60:	c0 02 80 50 	lfs     f0,-32688(r2)
   10e64:	e9 21 00 90 	ld      r9,144(r1)
   10e68:	ff 9f 00 00 	fcmpu   cr7,f31,f0
   10e6c:	e9 41 00 90 	ld      r10,144(r1)
   10e70:	e9 61 00 90 	ld      r11,144(r1)
   10e74:	89 29 00 70 	lbz     r9,112(r9)
   10e78:	89 4a 00 71 	lbz     r10,113(r10)
   10e7c:	7d 29 03 a6 	mtctr   r9
   10e80:	39 21 00 80 	addi    r9,r1,128
   10e84:	89 6b 00 72 	lbz     r11,114(r11)
   10e88:	7d 48 03 a6 	mtlr    r10
   10e8c:	fc 00 68 1e 	fctiwz  f0,f13
   10e90:	4f dd f3 82 	cror    4*cr7+eq,4*cr7+gt,4*cr7+eq
   10e94:	91 61 00 88 	stw     r11,136(r1)
   10e98:	7c 00 4f ae 	stfiwx  f0,0,r9
   10e9c:	81 e1 00 80 	lwz     r15,128(r1)
   10ea0:	40 9e 06 84 	bne-    cr7,0x11524
   10ea4:	7d e0 07 b4 	extsw   r0,r15
   10ea8:	c1 42 80 54 	lfs     f10,-32684(r2)
   10eac:	f8 01 00 a0 	std     r0,160(r1)
   10eb0:	c9 61 00 a0 	lfd     f11,160(r1)
   10eb4:	fd 60 5e 9c 	fcfid   f11,f11
   10eb8:	fc 00 58 18 	frsp    f0,f11
   10ebc:	ed 9f 00 28 	fsubs   f12,f31,f0
   10ec0:	ed 6a 60 28 	fsubs   f11,f10,f12
   10ec4:	fd a0 f0 90 	fmr     f13,f30
   10ec8:	c0 02 80 50 	lfs     f0,-32688(r2)
   10ecc:	ff 9e 00 00 	fcmpu   cr7,f30,f0
   10ed0:	39 21 00 80 	addi    r9,r1,128
   10ed4:	fc 00 68 1e 	fctiwz  f0,f13
   10ed8:	4f dd f3 82 	cror    4*cr7+eq,4*cr7+gt,4*cr7+eq
   10edc:	7c 00 4f ae 	stfiwx  f0,0,r9
   10ee0:	81 61 00 80 	lwz     r11,128(r1)
   10ee4:	40 9e 06 18 	bne-    cr7,0x114fc
   10ee8:	7d 60 07 b4 	extsw   r0,r11
   10eec:	f8 01 00 a0 	std     r0,160(r1)
   10ef0:	c9 a1 00 a0 	lfd     f13,160(r1)
   10ef4:	fd a0 6e 9c 	fcfid   f13,f13
   10ef8:	fc 00 68 18 	frsp    f0,f13
   10efc:	ec 1e 00 28 	fsubs   f0,f30,f0
   10f00:	ed aa 00 28 	fsubs   f13,f10,f0
   10f04:	a1 58 00 26 	lhz     r10,38(r24)
   10f08:	ed 2c 00 32 	fmuls   f9,f12,f0
   10f0c:	a0 18 00 28 	lhz     r0,40(r24)
   10f10:	ed 8d 03 32 	fmuls   f12,f13,f12
   10f14:	2f 8a 00 00 	cmpwi   cr7,r10,0
   10f18:	a1 38 00 2a 	lhz     r9,42(r24)
   10f1c:	7c 0e 07 34 	extsh   r14,r0
   10f20:	ed 4b 00 32 	fmuls   f10,f11,f0
   10f24:	7d 20 07 34 	extsh   r0,r9
   10f28:	ed ab 03 72 	fmuls   f13,f11,f13
   10f2c:	41 9e 03 5c 	beq-    cr7,0x11288
   10f30:	7d 2b 02 14 	add     r9,r11,r0
   10f34:	a1 78 00 24 	lhz     r11,36(r24)
   10f38:	3a 20 00 00 	li      r17,0
   10f3c:	3a a9 00 01 	addi    r21,r9,1
   10f40:	3a 00 00 00 	li      r16,0
   10f44:	55 60 04 3e 	clrlwi  r0,r11,16
   10f48:	7d 2f 72 14 	add     r9,r15,r14
   10f4c:	2f 80 00 00 	cmpwi   cr7,r0,0
   10f50:	7d 2c 4b 78 	mr      r12,r9
   10f54:	3a f5 ff ff 	addi    r23,r21,-1
   10f58:	55 3a 10 3a 	rlwinm  r26,r9,2,0,29
   10f5c:	3b 80 00 00 	li      r28,0
   10f60:	41 9d 01 68 	bgt-    cr7,0x110c8
   10f64:	48 00 03 10 	b       0x11274
   10f68:	80 1f 00 1c 	lwz     r0,28(r31)
   10f6c:	7f 80 f0 00 	cmpw    cr7,r0,r30
   10f70:	40 9d 02 f4 	ble-    cr7,0x11264
   10f74:	7e 80 07 b4 	extsw   r0,r20
   10f78:	39 21 00 80 	addi    r9,r1,128
   10f7c:	f8 01 00 a0 	std     r0,160(r1)
   10f80:	c9 61 00 a0 	lfd     f11,160(r1)
   10f84:	2f 90 00 00 	cmpwi   cr7,r16,0
   10f88:	fd 60 5e 9c 	fcfid   f11,f11
   10f8c:	fc 00 58 18 	frsp    f0,f11
   10f90:	ec 0c 00 32 	fmuls   f0,f12,f0
   10f94:	fc 00 00 1e 	fctiwz  f0,f0
   10f98:	7c 00 4f ae 	stfiwx  f0,0,r9
   10f9c:	83 21 00 80 	lwz     r25,128(r1)
   10fa0:	41 9e 03 38 	beq-    cr7,0x112d8
   10fa4:	38 1b 00 04 	addi    r0,r27,4
   10fa8:	78 12 00 20 	clrldi  r18,r0,32
   10fac:	88 12 00 00 	lbz     r0,0(r18)
   10fb0:	7f 39 02 14 	add     r25,r25,r0
   10fb4:	2f 99 00 00 	cmpwi   cr7,r25,0
   10fb8:	41 9e 02 ac 	beq-    cr7,0x11264
   10fbc:	a1 38 00 24 	lhz     r9,36(r24)
   10fc0:	39 29 ff ff 	addi    r9,r9,-1
   10fc4:	7f 89 98 00 	cmpw    cr7,r9,r19
   10fc8:	41 9e 03 60 	beq-    cr7,0x11328
   10fcc:	9b 32 00 00 	stb     r25,0(r18)
   10fd0:	81 5f 00 18 	lwz     r10,24(r31)
   10fd4:	7f 8a a8 00 	cmpw    cr7,r10,r21
   10fd8:	41 9d 00 d0 	bgt-    cr7,0x110a8
   10fdc:	80 1f 00 20 	lwz     r0,32(r31)
   10fe0:	7f 80 a8 00 	cmpw    cr7,r0,r21
   10fe4:	40 9d 00 c4 	ble-    cr7,0x110a8
   10fe8:	81 7f 00 14 	lwz     r11,20(r31)
   10fec:	80 1f 00 04 	lwz     r0,4(r31)
   10ff0:	7f 8b 60 00 	cmpw    cr7,r11,r12
   10ff4:	7f 3b 02 14 	add     r25,r27,r0
   10ff8:	41 9d 00 6c 	bgt-    cr7,0x11064
   10ffc:	80 1f 00 1c 	lwz     r0,28(r31)
   11000:	7f 80 60 00 	cmpw    cr7,r0,r12
   11004:	40 9d 00 60 	ble-    cr7,0x11064
   11008:	7e 80 07 b4 	extsw   r0,r20
   1100c:	39 21 00 80 	addi    r9,r1,128
   11010:	f8 01 00 a0 	std     r0,160(r1)
   11014:	c9 61 00 a0 	lfd     f11,160(r1)
   11018:	2f 96 00 00 	cmpwi   cr7,r22,0
   1101c:	fd 60 5e 9c 	fcfid   f11,f11
   11020:	fc 00 58 18 	frsp    f0,f11
   11024:	ec 0a 00 32 	fmuls   f0,f10,f0
   11028:	fc 00 00 1e 	fctiwz  f0,f0
   1102c:	7c 00 4f ae 	stfiwx  f0,0,r9
   11030:	83 61 00 80 	lwz     r27,128(r1)
   11034:	41 9e 02 dc 	beq-    cr7,0x11310
   11038:	7b 33 00 20 	clrldi  r19,r25,32
   1103c:	88 13 00 00 	lbz     r0,0(r19)
   11040:	7f 7b 02 14 	add     r27,r27,r0
   11044:	2f 9b 00 00 	cmpwi   cr7,r27,0
   11048:	41 9e 00 1c 	beq-    cr7,0x11064
   1104c:	a1 38 00 26 	lhz     r9,38(r24)
   11050:	39 29 ff ff 	addi    r9,r9,-1
   11054:	7f 89 80 00 	cmpw    cr7,r9,r16
   11058:	41 9e 03 bc 	beq-    cr7,0x11414
   1105c:	9b 73 00 00 	stb     r27,0(r19)
   11060:	81 7f 00 14 	lwz     r11,20(r31)
   11064:	7f 8b f0 00 	cmpw    cr7,r11,r30
   11068:	41 9d 00 40 	bgt-    cr7,0x110a8
   1106c:	80 1f 00 1c 	lwz     r0,28(r31)
   11070:	7f 80 f0 00 	cmpw    cr7,r0,r30
   11074:	40 9d 00 34 	ble-    cr7,0x110a8
   11078:	7e 80 07 b4 	extsw   r0,r20
   1107c:	39 41 00 80 	addi    r10,r1,128
   11080:	f8 01 00 a0 	std     r0,160(r1)
   11084:	c9 61 00 a0 	lfd     f11,160(r1)
   11088:	7b 29 00 20 	clrldi  r9,r25,32
   1108c:	fd 60 5e 9c 	fcfid   f11,f11
   11090:	fc 00 58 18 	frsp    f0,f11
   11094:	ec 09 00 32 	fmuls   f0,f9,f0
   11098:	fc 00 00 1e 	fctiwz  f0,f0
   1109c:	7c 00 57 ae 	stfiwx  f0,0,r10
   110a0:	80 01 00 80 	lwz     r0,128(r1)
   110a4:	98 09 00 04 	stb     r0,4(r9)
   110a8:	a1 78 00 24 	lhz     r11,36(r24)
   110ac:	38 16 00 01 	addi    r0,r22,1
   110b0:	3b 9c 00 01 	addi    r28,r28,1
   110b4:	55 69 04 3e 	clrlwi  r9,r11,16
   110b8:	3b 5a 00 04 	addi    r26,r26,4
   110bc:	7f 89 00 00 	cmpw    cr7,r9,r0
   110c0:	7f cc f3 78 	mr      r12,r30
   110c4:	40 9d 01 a8 	ble-    cr7,0x1126c
   110c8:	80 1f 00 04 	lwz     r0,4(r31)
   110cc:	7f 96 e3 78 	mr      r22,r28
   110d0:	81 38 00 2c 	lwz     r9,44(r24)
   110d4:	7f 93 e3 78 	mr      r19,r28
   110d8:	81 5f 00 18 	lwz     r10,24(r31)
   110dc:	3b cc 00 01 	addi    r30,r12,1
   110e0:	7d 31 4a 14 	add     r9,r17,r9
   110e4:	81 7f 00 00 	lwz     r11,0(r31)
   110e8:	7f 8a b8 00 	cmpw    cr7,r10,r23
   110ec:	7d 29 e2 14 	add     r9,r9,r28
   110f0:	7c 17 01 d6 	mullw   r0,r23,r0
   110f4:	79 29 00 20 	clrldi  r9,r9,32
   110f8:	7c 00 d2 14 	add     r0,r0,r26
   110fc:	7f 60 5a 14 	add     r27,r0,r11
   11100:	8a 89 00 00 	lbz     r20,0(r9)
   11104:	41 9d fe d0 	bgt+    cr7,0x10fd4
   11108:	80 1f 00 20 	lwz     r0,32(r31)
   1110c:	7f 80 b8 00 	cmpw    cr7,r0,r23
   11110:	40 9d fe c4 	ble+    cr7,0x10fd4
   11114:	81 7f 00 14 	lwz     r11,20(r31)
   11118:	7f 8b 60 00 	cmpw    cr7,r11,r12
   1111c:	41 9d 01 3c 	bgt-    cr7,0x11258
   11120:	80 1f 00 1c 	lwz     r0,28(r31)
   11124:	7f 80 60 00 	cmpw    cr7,r0,r12
   11128:	40 9d 01 30 	ble-    cr7,0x11258
   1112c:	7e 80 07 b4 	extsw   r0,r20
   11130:	7e 09 e3 78 	or      r9,r16,r28
   11134:	f8 01 00 a0 	std     r0,160(r1)
   11138:	c9 61 00 a0 	lfd     f11,160(r1)
   1113c:	2f 89 00 00 	cmpwi   cr7,r9,0
   11140:	fd 60 5e 9c 	fcfid   f11,f11
   11144:	39 21 00 80 	addi    r9,r1,128
   11148:	fc 00 58 18 	frsp    f0,f11
   1114c:	ec 0d 00 32 	fmuls   f0,f13,f0
   11150:	fc 00 00 1e 	fctiwz  f0,f0
   11154:	7c 00 4f ae 	stfiwx  f0,0,r9
   11158:	83 c1 00 80 	lwz     r30,128(r1)
   1115c:	41 9e 01 9c 	beq-    cr7,0x112f8
   11160:	7b 79 00 20 	clrldi  r25,r27,32
   11164:	88 19 00 00 	lbz     r0,0(r25)
   11168:	7f de 02 14 	add     r30,r30,r0
   1116c:	2f 9e 00 00 	cmpwi   cr7,r30,0
   11170:	41 9e 00 e8 	beq-    cr7,0x11258
   11174:	20 7e 00 ff 	subfic  r3,r30,255
   11178:	7d 49 02 a6 	mfctr   r10
   1117c:	89 79 00 02 	lbz     r11,2(r25)
   11180:	88 b9 00 03 	lbz     r5,3(r25)
   11184:	7c 08 02 a6 	mflr    r0
   11188:	7d 63 59 d6 	mullw   r11,r3,r11
   1118c:	7d 3e 01 d6 	mullw   r9,r30,r0
   11190:	7c a3 29 d6 	mullw   r5,r3,r5
   11194:	88 99 00 01 	lbz     r4,1(r25)
   11198:	7d 6b 4a 14 	add     r11,r11,r9
   1119c:	7f be 51 d6 	mullw   r29,r30,r10
   111a0:	81 41 00 88 	lwz     r10,136(r1)
   111a4:	7c 84 19 d6 	mullw   r4,r4,r3
   111a8:	7c 84 ea 14 	add     r4,r4,r29
   111ac:	7c 1e 51 d6 	mullw   r0,r30,r10
   111b0:	7c a5 02 14 	add     r5,r5,r0
   111b4:	7d 6a 07 b4 	extsw   r10,r11
   111b8:	7c a6 07 b4 	extsw   r6,r5
   111bc:	79 40 7c 24 	rldicr  r0,r10,15,48
   111c0:	78 c9 7c 24 	rldicr  r9,r6,15,48
   111c4:	79 48 3e 24 	rldicr  r8,r10,7,56
   111c8:	78 c7 3e 24 	rldicr  r7,r6,7,56
   111cc:	7d 08 02 14 	add     r8,r8,r0
   111d0:	7c e7 4a 14 	add     r7,r7,r9
   111d4:	79 00 83 e4 	rldicr  r0,r8,16,47
   111d8:	78 e9 83 e4 	rldicr  r9,r7,16,47
   111dc:	7d 08 02 14 	add     r8,r8,r0
   111e0:	7c e7 4a 14 	add     r7,r7,r9
   111e4:	7d 08 52 14 	add     r8,r8,r10
   111e8:	7c e7 32 14 	add     r7,r7,r6
   111ec:	7c 86 07 b4 	extsw   r6,r4
   111f0:	79 08 00 22 	rldicl  r8,r8,32,32
   111f4:	78 c0 3e 24 	rldicr  r0,r6,7,56
   111f8:	78 c9 7c 24 	rldicr  r9,r6,15,48
   111fc:	7d 6b fe 70 	srawi   r11,r11,31
   11200:	7c 00 4a 14 	add     r0,r0,r9
   11204:	7d 08 3e 70 	srawi   r8,r8,7
   11208:	7c 84 fe 70 	srawi   r4,r4,31
   1120c:	7d 0b 40 50 	subf    r8,r11,r8
   11210:	78 0b 83 e4 	rldicr  r11,r0,16,47
   11214:	57 ca 40 2e 	rlwinm  r10,r30,8,0,23
   11218:	7c 00 5a 14 	add     r0,r0,r11
   1121c:	78 e7 00 22 	rldicl  r7,r7,32,32
   11220:	7c 00 32 14 	add     r0,r0,r6
   11224:	7c e7 3e 70 	srawi   r7,r7,7
   11228:	78 00 00 22 	rldicl  r0,r0,32,32
   1122c:	7c a5 fe 70 	srawi   r5,r5,31
   11230:	7c 00 3e 70 	srawi   r0,r0,7
   11234:	7c e5 38 50 	subf    r7,r5,r7
   11238:	7c 04 00 50 	subf    r0,r4,r0
   1123c:	7d 4a 03 78 	or      r10,r10,r0
   11240:	55 4a 40 2e 	rlwinm  r10,r10,8,0,23
   11244:	7d 4a 43 78 	or      r10,r10,r8
   11248:	55 4a 40 2e 	rlwinm  r10,r10,8,0,23
   1124c:	7d 4a 3b 78 	or      r10,r10,r7
   11250:	91 59 00 00 	stw     r10,0(r25)
   11254:	81 7f 00 14 	lwz     r11,20(r31)
   11258:	3b cc 00 01 	addi    r30,r12,1
   1125c:	7f 8b f0 00 	cmpw    cr7,r11,r30
   11260:	40 9d fd 08 	ble+    cr7,0x10f68
   11264:	81 5f 00 18 	lwz     r10,24(r31)
   11268:	4b ff fd 6c 	b       0x10fd4
   1126c:	7e 31 e2 14 	add     r17,r17,r28
   11270:	a1 58 00 26 	lhz     r10,38(r24)
   11274:	3a 10 00 01 	addi    r16,r16,1
   11278:	55 40 04 3e 	clrlwi  r0,r10,16
   1127c:	3a b5 00 01 	addi    r21,r21,1
   11280:	7f 80 80 00 	cmpw    cr7,r0,r16
   11284:	41 9d fc c0 	bgt+    cr7,0x10f44
   11288:	c0 18 00 14 	lfs     f0,20(r24)
   1128c:	38 a0 30 00 	li      r5,12288
   11290:	ec 1d 00 2a 	fadds   f0,f29,f0
   11294:	e9 61 00 a8 	ld      r11,168(r1)
   11298:	80 61 00 84 	lwz     r3,132(r1)
   1129c:	79 64 00 20 	clrldi  r4,r11,32
   112a0:	ef ff 00 2a 	fadds   f31,f31,f0
   112a4:	4b ff f3 3d 	bl      0x105e0
   112a8:	80 81 00 70 	lwz     r4,112(r1)
   112ac:	7c 60 1b 78 	mr      r0,r3
   112b0:	2f 84 00 00 	cmpwi   cr7,r4,0
   112b4:	41 9e fa f8 	beq+    cr7,0x10dac
   112b8:	81 21 00 84 	lwz     r9,132(r1)
   112bc:	78 84 00 20 	clrldi  r4,r4,32
   112c0:	e8 61 00 98 	ld      r3,152(r1)
   112c4:	7d 29 02 14 	add     r9,r9,r0
   112c8:	91 21 00 84 	stw     r9,132(r1)
   112cc:	4b ff f4 f1 	bl      0x107bc
   112d0:	7c 78 1b 78 	mr      r24,r3
   112d4:	4b ff fb 7c 	b       0x10e50
   112d8:	2f 99 00 00 	cmpwi   cr7,r25,0
   112dc:	38 1b 00 04 	addi    r0,r27,4
   112e0:	78 12 00 20 	clrldi  r18,r0,32
   112e4:	40 9e fc d8 	bne+    cr7,0x10fbc
   112e8:	7b 69 00 20 	clrldi  r9,r27,32
   112ec:	9a 09 00 04 	stb     r16,4(r9)
   112f0:	81 5f 00 18 	lwz     r10,24(r31)
   112f4:	4b ff fc e0 	b       0x10fd4
   112f8:	2f 9e 00 00 	cmpwi   cr7,r30,0
   112fc:	7b 79 00 20 	clrldi  r25,r27,32
   11300:	40 9e fe 74 	bne+    cr7,0x11174
   11304:	9b d9 00 00 	stb     r30,0(r25)
   11308:	81 7f 00 14 	lwz     r11,20(r31)
   1130c:	4b ff ff 4c 	b       0x11258
   11310:	2f 9b 00 00 	cmpwi   cr7,r27,0
   11314:	7b 33 00 20 	clrldi  r19,r25,32
   11318:	40 9e fd 34 	bne+    cr7,0x1104c
   1131c:	9a d3 00 00 	stb     r22,0(r19)
   11320:	81 7f 00 14 	lwz     r11,20(r31)
   11324:	4b ff fd 40 	b       0x11064
   11328:	7b 69 00 20 	clrldi  r9,r27,32
   1132c:	7d 68 02 a6 	mflr    r11
   11330:	20 79 00 ff 	subfic  r3,r25,255
   11334:	7d 59 59 d6 	mullw   r10,r25,r11
   11338:	7d 69 02 a6 	mfctr   r11
   1133c:	88 09 00 06 	lbz     r0,6(r9)
   11340:	88 89 00 05 	lbz     r4,5(r9)
   11344:	88 a9 00 07 	lbz     r5,7(r9)
   11348:	81 21 00 88 	lwz     r9,136(r1)
   1134c:	7f b9 59 d6 	mullw   r29,r25,r11
   11350:	7c a3 29 d6 	mullw   r5,r3,r5
   11354:	7d 79 49 d6 	mullw   r11,r25,r9
   11358:	7c a5 5a 14 	add     r5,r5,r11
   1135c:	7c 84 19 d6 	mullw   r4,r4,r3
   11360:	7c a6 07 b4 	extsw   r6,r5
   11364:	7c 84 ea 14 	add     r4,r4,r29
   11368:	78 cb 7c 24 	rldicr  r11,r6,15,48
   1136c:	78 c7 3e 24 	rldicr  r7,r6,7,56
   11370:	7c a5 fe 70 	srawi   r5,r5,31
   11374:	7c e7 5a 14 	add     r7,r7,r11
   11378:	7c 03 01 d6 	mullw   r0,r3,r0
   1137c:	7c 00 52 14 	add     r0,r0,r10
   11380:	78 eb 83 e4 	rldicr  r11,r7,16,47
   11384:	7c 0a 07 b4 	extsw   r10,r0
   11388:	7c e7 5a 14 	add     r7,r7,r11
   1138c:	79 49 7c 24 	rldicr  r9,r10,15,48
   11390:	79 48 3e 24 	rldicr  r8,r10,7,56
   11394:	7c e7 32 14 	add     r7,r7,r6
   11398:	7d 08 4a 14 	add     r8,r8,r9
   1139c:	7c 86 07 b4 	extsw   r6,r4
   113a0:	79 09 83 e4 	rldicr  r9,r8,16,47
   113a4:	7c 00 fe 70 	srawi   r0,r0,31
   113a8:	7d 08 4a 14 	add     r8,r8,r9
   113ac:	78 c9 7c 24 	rldicr  r9,r6,15,48
   113b0:	7d 08 52 14 	add     r8,r8,r10
   113b4:	7c 84 fe 70 	srawi   r4,r4,31
   113b8:	79 08 00 22 	rldicl  r8,r8,32,32
   113bc:	57 2a 40 2e 	rlwinm  r10,r25,8,0,23
   113c0:	7d 08 3e 70 	srawi   r8,r8,7
   113c4:	78 e7 00 22 	rldicl  r7,r7,32,32
   113c8:	7d 00 40 50 	subf    r8,r0,r8
   113cc:	78 c0 3e 24 	rldicr  r0,r6,7,56
   113d0:	7c e7 3e 70 	srawi   r7,r7,7
   113d4:	7c 00 4a 14 	add     r0,r0,r9
   113d8:	7c e5 38 50 	subf    r7,r5,r7
   113dc:	78 0b 83 e4 	rldicr  r11,r0,16,47
   113e0:	7c 00 5a 14 	add     r0,r0,r11
   113e4:	7c 00 32 14 	add     r0,r0,r6
   113e8:	78 00 00 22 	rldicl  r0,r0,32,32
   113ec:	7c 00 3e 70 	srawi   r0,r0,7
   113f0:	7c 04 00 50 	subf    r0,r4,r0
   113f4:	7d 4a 03 78 	or      r10,r10,r0
   113f8:	55 4a 40 2e 	rlwinm  r10,r10,8,0,23
   113fc:	7d 4a 43 78 	or      r10,r10,r8
   11400:	55 4a 40 2e 	rlwinm  r10,r10,8,0,23
   11404:	7d 4a 3b 78 	or      r10,r10,r7
   11408:	91 52 00 00 	stw     r10,0(r18)
   1140c:	81 5f 00 18 	lwz     r10,24(r31)
   11410:	4b ff fb c4 	b       0x10fd4
   11414:	20 7b 00 ff 	subfic  r3,r27,255
   11418:	7d 49 02 a6 	mfctr   r10
   1141c:	89 73 00 02 	lbz     r11,2(r19)
   11420:	88 b3 00 03 	lbz     r5,3(r19)
   11424:	7c 08 02 a6 	mflr    r0
   11428:	7d 63 59 d6 	mullw   r11,r3,r11
   1142c:	7d 3b 01 d6 	mullw   r9,r27,r0
   11430:	7c a3 29 d6 	mullw   r5,r3,r5
   11434:	88 93 00 01 	lbz     r4,1(r19)
   11438:	7d 6b 4a 14 	add     r11,r11,r9
   1143c:	7f bb 51 d6 	mullw   r29,r27,r10
   11440:	81 41 00 88 	lwz     r10,136(r1)
   11444:	7c 84 19 d6 	mullw   r4,r4,r3
   11448:	7c 84 ea 14 	add     r4,r4,r29
   1144c:	7c 1b 51 d6 	mullw   r0,r27,r10
   11450:	7c a5 02 14 	add     r5,r5,r0
   11454:	7d 6a 07 b4 	extsw   r10,r11
   11458:	7c a6 07 b4 	extsw   r6,r5
   1145c:	79 40 7c 24 	rldicr  r0,r10,15,48
   11460:	78 c9 7c 24 	rldicr  r9,r6,15,48
   11464:	79 48 3e 24 	rldicr  r8,r10,7,56
   11468:	78 c7 3e 24 	rldicr  r7,r6,7,56
   1146c:	7d 08 02 14 	add     r8,r8,r0
   11470:	7c e7 4a 14 	add     r7,r7,r9
   11474:	79 00 83 e4 	rldicr  r0,r8,16,47
   11478:	78 e9 83 e4 	rldicr  r9,r7,16,47
   1147c:	7d 08 02 14 	add     r8,r8,r0
   11480:	7c e7 4a 14 	add     r7,r7,r9
   11484:	7d 08 52 14 	add     r8,r8,r10
   11488:	7c e7 32 14 	add     r7,r7,r6
   1148c:	7c 86 07 b4 	extsw   r6,r4
   11490:	79 08 00 22 	rldicl  r8,r8,32,32
   11494:	78 c0 3e 24 	rldicr  r0,r6,7,56
   11498:	78 c9 7c 24 	rldicr  r9,r6,15,48
   1149c:	7d 6b fe 70 	srawi   r11,r11,31
   114a0:	7c 00 4a 14 	add     r0,r0,r9
   114a4:	7d 08 3e 70 	srawi   r8,r8,7
   114a8:	7c 84 fe 70 	srawi   r4,r4,31
   114ac:	7d 0b 40 50 	subf    r8,r11,r8
   114b0:	78 0b 83 e4 	rldicr  r11,r0,16,47
   114b4:	57 6a 40 2e 	rlwinm  r10,r27,8,0,23
   114b8:	7c 00 5a 14 	add     r0,r0,r11
   114bc:	78 e7 00 22 	rldicl  r7,r7,32,32
   114c0:	7c 00 32 14 	add     r0,r0,r6
   114c4:	7c e7 3e 70 	srawi   r7,r7,7
   114c8:	78 00 00 22 	rldicl  r0,r0,32,32
   114cc:	7c a5 fe 70 	srawi   r5,r5,31
   114d0:	7c 00 3e 70 	srawi   r0,r0,7
   114d4:	7c e5 38 50 	subf    r7,r5,r7
   114d8:	7c 04 00 50 	subf    r0,r4,r0
   114dc:	7d 4a 03 78 	or      r10,r10,r0
   114e0:	55 4a 40 2e 	rlwinm  r10,r10,8,0,23
   114e4:	7d 4a 43 78 	or      r10,r10,r8
   114e8:	55 4a 40 2e 	rlwinm  r10,r10,8,0,23
   114ec:	7d 4a 3b 78 	or      r10,r10,r7
   114f0:	91 53 00 00 	stw     r10,0(r19)
   114f4:	81 7f 00 14 	lwz     r11,20(r31)
   114f8:	4b ff fb 6c 	b       0x11064
   114fc:	7d 60 07 b4 	extsw   r0,r11
   11500:	39 6b ff ff 	addi    r11,r11,-1
   11504:	f8 01 00 a0 	std     r0,160(r1)
   11508:	c9 a1 00 a0 	lfd     f13,160(r1)
   1150c:	fd a0 6e 9c 	fcfid   f13,f13
   11510:	fc 00 68 18 	frsp    f0,f13
   11514:	ec 1e 00 28 	fsubs   f0,f30,f0
   11518:	fd a0 00 50 	fneg    f13,f0
   1151c:	ec 0a 68 28 	fsubs   f0,f10,f13
   11520:	4b ff f9 e4 	b       0x10f04
   11524:	7d e0 07 b4 	extsw   r0,r15
   11528:	c1 42 80 54 	lfs     f10,-32684(r2)
   1152c:	39 ef ff ff 	addi    r15,r15,-1
   11530:	f8 01 00 a0 	std     r0,160(r1)
   11534:	c9 a1 00 a0 	lfd     f13,160(r1)
   11538:	fd a0 6e 9c 	fcfid   f13,f13
   1153c:	fc 00 68 18 	frsp    f0,f13
   11540:	ec 1f 00 28 	fsubs   f0,f31,f0
   11544:	fd 60 00 50 	fneg    f11,f0
   11548:	ed 8a 58 28 	fsubs   f12,f10,f11
   1154c:	4b ff f9 78 	b       0x10ec4
   11550:	81 22 84 58 	lwz     r9,-31656(r2)
   11554:	7c 08 02 a6 	mflr    r0
   11558:	f8 21 ff 81 	stdu    r1,-128(r1)
   1155c:	fb e1 00 78 	std     r31,120(r1)
   11560:	3b e9 ff fc 	addi    r31,r9,-4
   11564:	f8 01 00 90 	std     r0,144(r1)
   11568:	7b eb 00 20 	clrldi  r11,r31,32
   1156c:	81 2b 00 00 	lwz     r9,0(r11)
   11570:	2f 89 ff ff 	cmpwi   cr7,r9,-1
   11574:	41 9e 00 34 	beq-    cr7,0x115a8
   11578:	79 2b 00 20 	clrldi  r11,r9,32
   1157c:	3b ff ff fc 	addi    r31,r31,-4
   11580:	80 0b 00 00 	lwz     r0,0(r11)
   11584:	f8 41 00 28 	std     r2,40(r1)
   11588:	7c 09 03 a6 	mtctr   r0
   1158c:	80 4b 00 04 	lwz     r2,4(r11)
   11590:	4e 80 04 21 	bctrl
   11594:	e8 41 00 28 	ld      r2,40(r1)
   11598:	7b e9 00 20 	clrldi  r9,r31,32
   1159c:	81 29 00 00 	lwz     r9,0(r9)
   115a0:	2f 89 ff ff 	cmpwi   cr7,r9,-1
   115a4:	40 9e ff d4 	bne+    cr7,0x11578
   115a8:	e8 01 00 90 	ld      r0,144(r1)
   115ac:	eb e1 00 78 	ld      r31,120(r1)
   115b0:	38 21 00 80 	addi    r1,r1,128
   115b4:	7c 08 03 a6 	mtlr    r0
   115b8:	4e 80 00 20 	blr
   115bc:	2c 24 00 00 	cmpdi   r4,0
   115c0:	7c a9 2b 78 	mr      r9,r5
   115c4:	41 82 00 10 	beq-    0x115d4
   115c8:	80 03 00 1c 	lwz     r0,28(r3)
   115cc:	7c 00 1a 14 	add     r0,r0,r3
   115d0:	90 04 00 00 	stw     r0,0(r4)
   115d4:	2f 89 00 00 	cmpwi   cr7,r9,0
   115d8:	4d 9e 00 20 	beqlr   cr7
   115dc:	80 03 00 18 	lwz     r0,24(r3)
   115e0:	90 05 00 00 	stw     r0,0(r5)
   115e4:	4e 80 00 20 	blr
   115e8:	2f 83 00 00 	cmpwi   cr7,r3,0
   115ec:	fb e1 ff f8 	std     r31,-8(r1)
   115f0:	7c 86 23 78 	mr      r6,r4
   115f4:	40 9e 00 14 	bne-    cr7,0x11608
   115f8:	38 60 00 00 	li      r3,0
   115fc:	78 63 00 20 	clrldi  r3,r3,32
   11600:	eb e1 ff f8 	ld      r31,-8(r1)
   11604:	4e 80 00 20 	blr
   11608:	83 e3 00 0c 	lwz     r31,12(r3)
   1160c:	81 23 00 10 	lwz     r9,16(r3)
   11610:	2f 9f 00 00 	cmpwi   cr7,r31,0
   11614:	41 9e ff e4 	beq+    cr7,0x115f8
   11618:	88 84 00 00 	lbz     r4,0(r4)
   1161c:	7c 6c 1b 78 	mr      r12,r3
   11620:	38 e0 00 00 	li      r7,0
   11624:	7c 85 07 74 	extsb   r5,r4
   11628:	7c 69 1a 14 	add     r3,r9,r3
   1162c:	2c 85 00 00 	cmpwi   cr1,r5,0
   11630:	78 69 00 20 	clrldi  r9,r3,32
   11634:	7c 8b 07 74 	extsb   r11,r4
   11638:	80 09 00 10 	lwz     r0,16(r9)
   1163c:	7d 4c 02 14 	add     r10,r12,r0
   11640:	79 49 00 20 	clrldi  r9,r10,32
   11644:	89 29 00 00 	lbz     r9,0(r9)
   11648:	7d 20 07 74 	extsb   r0,r9
   1164c:	7f 85 00 00 	cmpw    cr7,r5,r0
   11650:	40 9e 00 38 	bne-    cr7,0x11688
   11654:	41 86 ff a8 	beq+    cr1,0x115fc
   11658:	7c c8 33 78 	mr      r8,r6
   1165c:	48 00 00 08 	b       0x11664
   11660:	41 9a ff 9c 	beq+    cr6,0x115fc
   11664:	39 4a 00 01 	addi    r10,r10,1
   11668:	8c 08 00 01 	lbzu    r0,1(r8)
   1166c:	79 49 00 20 	clrldi  r9,r10,32
   11670:	7c 0b 07 74 	extsb   r11,r0
   11674:	2f 0b 00 00 	cmpwi   cr6,r11,0
   11678:	89 29 00 00 	lbz     r9,0(r9)
   1167c:	7d 20 07 74 	extsb   r0,r9
   11680:	7f 8b 00 00 	cmpw    cr7,r11,r0
   11684:	41 9e ff dc 	beq+    cr7,0x11660
   11688:	7f 8b 00 00 	cmpw    cr7,r11,r0
   1168c:	41 9e ff 70 	beq+    cr7,0x115fc
   11690:	38 e7 00 01 	addi    r7,r7,1
   11694:	7f 87 f8 00 	cmpw    cr7,r7,r31
   11698:	41 9e ff 60 	beq+    cr7,0x115f8
   1169c:	38 63 00 30 	addi    r3,r3,48
   116a0:	4b ff ff 90 	b       0x11630
   116a4:	80 64 00 04 	lwz     r3,4(r4)
   116a8:	4e 80 00 20 	blr
   116ac:	fb c1 ff f0 	std     r30,-16(r1)
   116b0:	7c 08 02 a6 	mflr    r0
   116b4:	f9 c1 ff 70 	std     r14,-144(r1)
   116b8:	f8 01 00 10 	std     r0,16(r1)
   116bc:	80 03 00 00 	lwz     r0,0(r3)
   116c0:	7c 7e 1b 78 	mr      r30,r3
   116c4:	f9 e1 ff 78 	std     r15,-136(r1)
   116c8:	2f 80 18 07 	cmpwi   cr7,r0,6151
   116cc:	fa 01 ff 80 	std     r16,-128(r1)
   116d0:	fa 21 ff 88 	std     r17,-120(r1)
   116d4:	fa 41 ff 90 	std     r18,-112(r1)
   116d8:	fa 61 ff 98 	std     r19,-104(r1)
   116dc:	fa 81 ff a0 	std     r20,-96(r1)
   116e0:	fa a1 ff a8 	std     r21,-88(r1)
   116e4:	fa c1 ff b0 	std     r22,-80(r1)
   116e8:	fa e1 ff b8 	std     r23,-72(r1)
   116ec:	fb 01 ff c0 	std     r24,-64(r1)
   116f0:	fb 21 ff c8 	std     r25,-56(r1)
   116f4:	fb 41 ff d0 	std     r26,-48(r1)
   116f8:	fb 61 ff d8 	std     r27,-40(r1)
   116fc:	fb 81 ff e0 	std     r28,-32(r1)
   11700:	fb a1 ff e8 	std     r29,-24(r1)
   11704:	fb e1 ff f8 	std     r31,-8(r1)
   11708:	90 61 ff 08 	stw     r3,-248(r1)
   1170c:	41 9e 04 e8 	beq-    cr7,0x11bf4
   11710:	2f 80 1b 59 	cmpwi   cr7,r0,7001
   11714:	41 9e 04 e0 	beq-    cr7,0x11bf4
   11718:	2f 80 1b 5e 	cmpwi   cr7,r0,7006
   1171c:	41 9e 04 d8 	beq-    cr7,0x11bf4
   11720:	2f 80 1b 5d 	cmpwi   cr7,r0,7005
   11724:	41 9e 04 d0 	beq-    cr7,0x11bf4
   11728:	2f 80 1b 5c 	cmpwi   cr7,r0,7004
   1172c:	41 9e 04 c8 	beq-    cr7,0x11bf4
   11730:	2f 80 1b 5b 	cmpwi   cr7,r0,7003
   11734:	41 9e 04 c0 	beq-    cr7,0x11bf4
   11738:	54 05 46 3e 	rlwinm  r5,r0,8,24,31
   1173c:	81 63 00 0c 	lwz     r11,12(r3)
   11740:	54 06 42 1e 	rlwinm  r6,r0,8,8,15
   11744:	81 23 00 08 	lwz     r9,8(r3)
   11748:	54 19 c0 0e 	rlwinm  r25,r0,24,0,7
   1174c:	81 43 00 10 	lwz     r10,16(r3)
   11750:	54 18 c4 2e 	rlwinm  r24,r0,24,16,23
   11754:	80 03 00 04 	lwz     r0,4(r3)
   11758:	7f 39 33 78 	or      r25,r25,r6
   1175c:	80 63 00 14 	lwz     r3,20(r3)
   11760:	7f 18 2b 78 	or      r24,r24,r5
   11764:	81 1e 00 18 	lwz     r8,24(r30)
   11768:	54 05 46 3e 	rlwinm  r5,r0,8,24,31
   1176c:	80 fe 00 1c 	lwz     r7,28(r30)
   11770:	55 71 46 3e 	rlwinm  r17,r11,8,24,31
   11774:	55 26 46 3e 	rlwinm  r6,r9,8,24,31
   11778:	90 a1 ff 0c 	stw     r5,-244(r1)
   1177c:	55 5a 46 3e 	rlwinm  r26,r10,8,24,31
   11780:	7f 3f c3 78 	or      r31,r25,r24
   11784:	83 21 ff 0c 	lwz     r25,-244(r1)
   11788:	92 21 ff 14 	stw     r17,-236(r1)
   1178c:	54 1d c0 0e 	rlwinm  r29,r0,24,0,7
   11790:	54 11 42 1e 	rlwinm  r17,r0,8,8,15
   11794:	54 00 c4 2e 	rlwinm  r0,r0,24,16,23
   11798:	54 7c 46 3e 	rlwinm  r28,r3,8,24,31
   1179c:	90 c1 ff 10 	stw     r6,-240(r1)
   117a0:	7c 00 cb 78 	or      r0,r0,r25
   117a4:	83 21 ff 14 	lwz     r25,-236(r1)
   117a8:	93 41 ff 18 	stw     r26,-232(r1)
   117ac:	55 24 c0 0e 	rlwinm  r4,r9,24,0,7
   117b0:	55 34 42 1e 	rlwinm  r20,r9,8,8,15
   117b4:	55 7a c0 0e 	rlwinm  r26,r11,24,0,7
   117b8:	55 73 42 1e 	rlwinm  r19,r11,8,8,15
   117bc:	7f bd 8b 78 	or      r29,r29,r17
   117c0:	82 21 ff 10 	lwz     r17,-240(r1)
   117c4:	55 29 c4 2e 	rlwinm  r9,r9,24,16,23
   117c8:	55 6b c4 2e 	rlwinm  r11,r11,24,16,23
   117cc:	55 05 46 3e 	rlwinm  r5,r8,8,24,31
   117d0:	54 e6 46 3e 	rlwinm  r6,r7,8,24,31
   117d4:	93 81 ff 1c 	stw     r28,-228(r1)
   117d8:	55 5b c0 0e 	rlwinm  r27,r10,24,0,7
   117dc:	55 52 42 1e 	rlwinm  r18,r10,8,8,15
   117e0:	54 7c c0 0e 	rlwinm  r28,r3,24,0,7
   117e4:	54 76 42 1e 	rlwinm  r22,r3,8,8,15
   117e8:	7d 29 8b 78 	or      r9,r9,r17
   117ec:	82 21 ff 18 	lwz     r17,-232(r1)
   117f0:	7d 6b cb 78 	or      r11,r11,r25
   117f4:	83 21 ff 1c 	lwz     r25,-228(r1)
   117f8:	55 4a c4 2e 	rlwinm  r10,r10,24,16,23
   117fc:	54 63 c4 2e 	rlwinm  r3,r3,24,16,23
   11800:	90 a1 ff 20 	stw     r5,-224(r1)
   11804:	90 c1 ff 24 	stw     r6,-220(r1)
   11808:	55 05 c0 0e 	rlwinm  r5,r8,24,0,7
   1180c:	55 15 42 1e 	rlwinm  r21,r8,8,8,15
   11810:	54 e6 c0 0e 	rlwinm  r6,r7,24,0,7
   11814:	54 f7 42 1e 	rlwinm  r23,r7,8,8,15
   11818:	7d 4a 8b 78 	or      r10,r10,r17
   1181c:	82 21 ff 20 	lwz     r17,-224(r1)
   11820:	7c 63 cb 78 	or      r3,r3,r25
   11824:	83 21 ff 24 	lwz     r25,-220(r1)
   11828:	55 08 c4 2e 	rlwinm  r8,r8,24,16,23
   1182c:	54 e7 c4 2e 	rlwinm  r7,r7,24,16,23
   11830:	7c 84 a3 78 	or      r4,r4,r20
   11834:	7f 5a 9b 78 	or      r26,r26,r19
   11838:	7f 7b 93 78 	or      r27,r27,r18
   1183c:	7f 9c b3 78 	or      r28,r28,r22
   11840:	7c a5 ab 78 	or      r5,r5,r21
   11844:	7d 08 8b 78 	or      r8,r8,r17
   11848:	7c c6 bb 78 	or      r6,r6,r23
   1184c:	7c e7 cb 78 	or      r7,r7,r25
   11850:	2f 9f 1b 59 	cmpwi   cr7,r31,7001
   11854:	7f bd 03 78 	or      r29,r29,r0
   11858:	7c 84 4b 78 	or      r4,r4,r9
   1185c:	7f 5a 5b 78 	or      r26,r26,r11
   11860:	7f 60 53 78 	or      r0,r27,r10
   11864:	7f 9c 1b 78 	or      r28,r28,r3
   11868:	7c a5 43 78 	or      r5,r5,r8
   1186c:	7c c6 3b 78 	or      r6,r6,r7
   11870:	93 be 00 04 	stw     r29,4(r30)
   11874:	90 9e 00 08 	stw     r4,8(r30)
   11878:	93 5e 00 0c 	stw     r26,12(r30)
   1187c:	90 1e 00 10 	stw     r0,16(r30)
   11880:	90 be 00 18 	stw     r5,24(r30)
   11884:	90 de 00 1c 	stw     r6,28(r30)
   11888:	93 fe 00 00 	stw     r31,0(r30)
   1188c:	93 9e 00 14 	stw     r28,20(r30)
   11890:	41 9e 06 7c 	beq-    cr7,0x11f0c
   11894:	2f 9f 1b 5d 	cmpwi   cr7,r31,7005
   11898:	41 9e 06 74 	beq-    cr7,0x11f0c
   1189c:	2f 9f 1b 5b 	cmpwi   cr7,r31,7003
   118a0:	41 9e 06 6c 	beq-    cr7,0x11f0c
   118a4:	2f 9f 18 07 	cmpwi   cr7,r31,6151
   118a8:	41 9e 04 c4 	beq-    cr7,0x11d6c
   118ac:	2f 9f 1b 5e 	cmpwi   cr7,r31,7006
   118b0:	41 9e 04 bc 	beq-    cr7,0x11d6c
   118b4:	2f 9f 1b 5c 	cmpwi   cr7,r31,7004
   118b8:	41 9e 04 b4 	beq-    cr7,0x11d6c
   118bc:	80 1e 00 0c 	lwz     r0,12(r30)
   118c0:	2f 80 00 00 	cmpwi   cr7,r0,0
   118c4:	41 9e 04 54 	beq-    cr7,0x11d18
   118c8:	3b 20 00 00 	li      r25,0
   118cc:	93 21 ff 04 	stw     r25,-252(r1)
   118d0:	93 21 ff 00 	stw     r25,-256(r1)
   118d4:	83 41 ff 08 	lwz     r26,-248(r1)
   118d8:	80 1e 00 10 	lwz     r0,16(r30)
   118dc:	83 81 ff 00 	lwz     r28,-256(r1)
   118e0:	7c 1a 02 14 	add     r0,r26,r0
   118e4:	7c 00 e2 14 	add     r0,r0,r28
   118e8:	78 1f 00 20 	clrldi  r31,r0,32
   118ec:	80 1f 00 04 	lwz     r0,4(r31)
   118f0:	81 7f 00 08 	lwz     r11,8(r31)
   118f4:	54 19 46 3e 	rlwinm  r25,r0,8,24,31
   118f8:	81 3f 00 14 	lwz     r9,20(r31)
   118fc:	55 7a 46 3e 	rlwinm  r26,r11,8,24,31
   11900:	81 1f 00 10 	lwz     r8,16(r31)
   11904:	7f 29 03 a6 	mtctr   r25
   11908:	54 14 c0 0e 	rlwinm  r20,r0,24,0,7
   1190c:	7f 48 03 a6 	mtlr    r26
   11910:	54 0f 42 1e 	rlwinm  r15,r0,8,8,15
   11914:	54 00 c4 2e 	rlwinm  r0,r0,24,16,23
   11918:	83 bf 00 00 	lwz     r29,0(r31)
   1191c:	80 9f 00 24 	lwz     r4,36(r31)
   11920:	55 3b 46 3e 	rlwinm  r27,r9,8,24,31
   11924:	55 3c 42 1e 	rlwinm  r28,r9,8,8,15
   11928:	81 5f 00 0c 	lwz     r10,12(r31)
   1192c:	90 01 ff 60 	stw     r0,-160(r1)
   11930:	55 32 c0 0e 	rlwinm  r18,r9,24,0,7
   11934:	80 7f 00 28 	lwz     r3,40(r31)
   11938:	55 00 42 1e 	rlwinm  r0,r8,8,8,15
   1193c:	80 ff 00 18 	lwz     r7,24(r31)
   11940:	55 29 c4 2e 	rlwinm  r9,r9,24,16,23
   11944:	80 bf 00 20 	lwz     r5,32(r31)
   11948:	57 b1 46 3e 	rlwinm  r17,r29,8,24,31
   1194c:	80 df 00 1c 	lwz     r6,28(r31)
   11950:	7d 29 db 78 	or      r9,r9,r27
   11954:	90 01 ff 2c 	stw     r0,-212(r1)
   11958:	7e 52 e3 78 	or      r18,r18,r28
   1195c:	54 80 42 1e 	rlwinm  r0,r4,8,8,15
   11960:	57 b3 c0 0e 	rlwinm  r19,r29,24,0,7
   11964:	57 b0 42 1e 	rlwinm  r16,r29,8,8,15
   11968:	57 bd c4 2e 	rlwinm  r29,r29,24,16,23
   1196c:	55 5c 46 3e 	rlwinm  r28,r10,8,24,31
   11970:	55 19 46 3e 	rlwinm  r25,r8,8,24,31
   11974:	90 01 ff 4c 	stw     r0,-180(r1)
   11978:	7e 52 4b 78 	or      r18,r18,r9
   1197c:	81 21 ff 60 	lwz     r9,-160(r1)
   11980:	54 60 42 1e 	rlwinm  r0,r3,8,8,15
   11984:	7f bd 8b 78 	or      r29,r29,r17
   11988:	93 81 ff 28 	stw     r28,-216(r1)
   1198c:	93 21 ff 30 	stw     r25,-208(r1)
   11990:	54 fa 46 3e 	rlwinm  r26,r7,8,24,31
   11994:	54 b9 46 3e 	rlwinm  r25,r5,8,24,31
   11998:	90 01 ff 54 	stw     r0,-172(r1)
   1199c:	55 75 c0 0e 	rlwinm  r21,r11,24,0,7
   119a0:	55 6e 42 1e 	rlwinm  r14,r11,8,8,15
   119a4:	55 56 c0 0e 	rlwinm  r22,r10,24,0,7
   119a8:	7e 29 02 a6 	mfctr   r17
   119ac:	55 4c 42 1e 	rlwinm  r12,r10,8,8,15
   119b0:	7d 20 8b 78 	or      r0,r9,r17
   119b4:	82 21 ff 28 	lwz     r17,-216(r1)
   119b8:	55 6b c4 2e 	rlwinm  r11,r11,24,16,23
   119bc:	7d 28 02 a6 	mflr    r9
   119c0:	55 4a c4 2e 	rlwinm  r10,r10,24,16,23
   119c4:	93 41 ff 38 	stw     r26,-200(r1)
   119c8:	54 dc 46 3e 	rlwinm  r28,r6,8,24,31
   119cc:	93 21 ff 48 	stw     r25,-184(r1)
   119d0:	54 9a 46 3e 	rlwinm  r26,r4,8,24,31
   119d4:	54 f9 42 1e 	rlwinm  r25,r7,8,8,15
   119d8:	55 17 c0 0e 	rlwinm  r23,r8,24,0,7
   119dc:	7d 6b 4b 78 	or      r11,r11,r9
   119e0:	81 21 ff 2c 	lwz     r9,-212(r1)
   119e4:	7d 4a 8b 78 	or      r10,r10,r17
   119e8:	82 21 ff 30 	lwz     r17,-208(r1)
   119ec:	55 08 c4 2e 	rlwinm  r8,r8,24,16,23
   119f0:	93 81 ff 40 	stw     r28,-192(r1)
   119f4:	93 41 ff 50 	stw     r26,-176(r1)
   119f8:	54 7c 46 3e 	rlwinm  r28,r3,8,24,31
   119fc:	93 21 ff 34 	stw     r25,-204(r1)
   11a00:	54 da 42 1e 	rlwinm  r26,r6,8,8,15
   11a04:	54 f8 c0 0e 	rlwinm  r24,r7,24,0,7
   11a08:	7e f7 4b 78 	or      r23,r23,r9
   11a0c:	81 21 ff 34 	lwz     r9,-204(r1)
   11a10:	7d 08 8b 78 	or      r8,r8,r17
   11a14:	82 21 ff 38 	lwz     r17,-200(r1)
   11a18:	54 e7 c4 2e 	rlwinm  r7,r7,24,16,23
   11a1c:	93 81 ff 58 	stw     r28,-168(r1)
   11a20:	93 41 ff 3c 	stw     r26,-196(r1)
   11a24:	54 bc 42 1e 	rlwinm  r28,r5,8,8,15
   11a28:	54 d9 c0 0e 	rlwinm  r25,r6,24,0,7
   11a2c:	7f 18 4b 78 	or      r24,r24,r9
   11a30:	81 21 ff 3c 	lwz     r9,-196(r1)
   11a34:	7c e7 8b 78 	or      r7,r7,r17
   11a38:	82 21 ff 40 	lwz     r17,-192(r1)
   11a3c:	54 c6 c4 2e 	rlwinm  r6,r6,24,16,23
   11a40:	93 81 ff 44 	stw     r28,-188(r1)
   11a44:	54 ba c0 0e 	rlwinm  r26,r5,24,0,7
   11a48:	7f 39 4b 78 	or      r25,r25,r9
   11a4c:	81 21 ff 44 	lwz     r9,-188(r1)
   11a50:	7c c6 8b 78 	or      r6,r6,r17
   11a54:	82 21 ff 48 	lwz     r17,-184(r1)
   11a58:	54 a5 c4 2e 	rlwinm  r5,r5,24,16,23
   11a5c:	54 9b c0 0e 	rlwinm  r27,r4,24,0,7
   11a60:	7f 5a 4b 78 	or      r26,r26,r9
   11a64:	81 21 ff 4c 	lwz     r9,-180(r1)
   11a68:	7c a5 8b 78 	or      r5,r5,r17
   11a6c:	82 21 ff 50 	lwz     r17,-176(r1)
   11a70:	54 84 c4 2e 	rlwinm  r4,r4,24,16,23
   11a74:	54 7c c0 0e 	rlwinm  r28,r3,24,0,7
   11a78:	7f 7b 4b 78 	or      r27,r27,r9
   11a7c:	81 21 ff 54 	lwz     r9,-172(r1)
   11a80:	7c 84 8b 78 	or      r4,r4,r17
   11a84:	82 21 ff 58 	lwz     r17,-168(r1)
   11a88:	54 63 c4 2e 	rlwinm  r3,r3,24,16,23
   11a8c:	7e 73 83 78 	or      r19,r19,r16
   11a90:	7e 94 7b 78 	or      r20,r20,r15
   11a94:	7e b5 73 78 	or      r21,r21,r14
   11a98:	7e d6 63 78 	or      r22,r22,r12
   11a9c:	7f 9c 4b 78 	or      r28,r28,r9
   11aa0:	7c 63 8b 78 	or      r3,r3,r17
   11aa4:	2f 92 00 00 	cmpwi   cr7,r18,0
   11aa8:	7e 73 eb 78 	or      r19,r19,r29
   11aac:	7e 94 03 78 	or      r20,r20,r0
   11ab0:	7e b5 5b 78 	or      r21,r21,r11
   11ab4:	7e d6 53 78 	or      r22,r22,r10
   11ab8:	7e f7 43 78 	or      r23,r23,r8
   11abc:	7f 18 3b 78 	or      r24,r24,r7
   11ac0:	7f 39 33 78 	or      r25,r25,r6
   11ac4:	7f 5a 2b 78 	or      r26,r26,r5
   11ac8:	7f 7b 23 78 	or      r27,r27,r4
   11acc:	7f 9c 1b 78 	or      r28,r28,r3
   11ad0:	92 7f 00 00 	stw     r19,0(r31)
   11ad4:	92 9f 00 04 	stw     r20,4(r31)
   11ad8:	92 bf 00 08 	stw     r21,8(r31)
   11adc:	92 df 00 0c 	stw     r22,12(r31)
   11ae0:	92 ff 00 10 	stw     r23,16(r31)
   11ae4:	93 1f 00 18 	stw     r24,24(r31)
   11ae8:	93 3f 00 1c 	stw     r25,28(r31)
   11aec:	93 5f 00 20 	stw     r26,32(r31)
   11af0:	93 7f 00 24 	stw     r27,36(r31)
   11af4:	93 9f 00 28 	stw     r28,40(r31)
   11af8:	92 5f 00 14 	stw     r18,20(r31)
   11afc:	41 9e 00 48 	beq-    cr7,0x11b44
   11b00:	3b 20 00 04 	li      r25,4
   11b04:	7e 5e 92 14 	add     r18,r30,r18
   11b08:	38 e0 00 00 	li      r7,0
   11b0c:	7f 29 03 a6 	mtctr   r25
   11b10:	7d 47 92 14 	add     r10,r7,r18
   11b14:	38 e7 00 04 	addi    r7,r7,4
   11b18:	79 4a 00 20 	clrldi  r10,r10,32
   11b1c:	80 0a 00 00 	lwz     r0,0(r10)
   11b20:	54 08 46 3e 	rlwinm  r8,r0,8,24,31
   11b24:	54 09 c0 0e 	rlwinm  r9,r0,24,0,7
   11b28:	54 0b 42 1e 	rlwinm  r11,r0,8,8,15
   11b2c:	54 00 c4 2e 	rlwinm  r0,r0,24,16,23
   11b30:	7d 29 5b 78 	or      r9,r9,r11
   11b34:	7c 00 43 78 	or      r0,r0,r8
   11b38:	7d 29 03 78 	or      r9,r9,r0
   11b3c:	91 2a 00 00 	stw     r9,0(r10)
   11b40:	42 00 ff d0 	bdnz+   0x11b10
   11b44:	80 1f 00 18 	lwz     r0,24(r31)
   11b48:	2f 80 00 00 	cmpwi   cr7,r0,0
   11b4c:	41 9e 00 80 	beq-    cr7,0x11bcc
   11b50:	7f a0 f2 14 	add     r29,r0,r30
   11b54:	7b a8 00 20 	clrldi  r8,r29,32
   11b58:	80 08 00 00 	lwz     r0,0(r8)
   11b5c:	54 0a 46 3e 	rlwinm  r10,r0,8,24,31
   11b60:	54 09 c0 0e 	rlwinm  r9,r0,24,0,7
   11b64:	54 0b 42 1e 	rlwinm  r11,r0,8,8,15
   11b68:	54 00 c4 2e 	rlwinm  r0,r0,24,16,23
   11b6c:	7d 29 5b 78 	or      r9,r9,r11
   11b70:	7c 00 53 78 	or      r0,r0,r10
   11b74:	7d 29 03 78 	or      r9,r9,r0
   11b78:	2f 89 00 00 	cmpwi   cr7,r9,0
   11b7c:	91 28 00 00 	stw     r9,0(r8)
   11b80:	41 9e 00 4c 	beq-    cr7,0x11bcc
   11b84:	2b 89 00 01 	cmplwi  cr7,r9,1
   11b88:	79 29 00 20 	clrldi  r9,r9,32
   11b8c:	38 e0 00 00 	li      r7,0
   11b90:	7d 29 03 a6 	mtctr   r9
   11b94:	41 dc 05 3c 	blt-    cr7,0x120d0
   11b98:	7d 5d 3a 14 	add     r10,r29,r7
   11b9c:	38 e7 00 04 	addi    r7,r7,4
   11ba0:	79 4a 00 20 	clrldi  r10,r10,32
   11ba4:	80 0a 00 04 	lwz     r0,4(r10)
   11ba8:	54 08 46 3e 	rlwinm  r8,r0,8,24,31
   11bac:	54 09 c0 0e 	rlwinm  r9,r0,24,0,7
   11bb0:	54 0b 42 1e 	rlwinm  r11,r0,8,8,15
   11bb4:	54 00 c4 2e 	rlwinm  r0,r0,24,16,23
   11bb8:	7d 29 5b 78 	or      r9,r9,r11
   11bbc:	7c 00 43 78 	or      r0,r0,r8
   11bc0:	7d 29 03 78 	or      r9,r9,r0
   11bc4:	91 2a 00 04 	stw     r9,4(r10)
   11bc8:	42 00 ff d0 	bdnz+   0x11b98
   11bcc:	83 81 ff 04 	lwz     r28,-252(r1)
   11bd0:	83 5e 00 0c 	lwz     r26,12(r30)
   11bd4:	3b 9c 00 01 	addi    r28,r28,1
   11bd8:	80 a1 ff 00 	lwz     r5,-256(r1)
   11bdc:	7f 9a e0 40 	cmplw   cr7,r26,r28
   11be0:	38 a5 00 30 	addi    r5,r5,48
   11be4:	93 81 ff 04 	stw     r28,-252(r1)
   11be8:	90 a1 ff 00 	stw     r5,-256(r1)
   11bec:	41 9d fc e8 	bgt+    cr7,0x118d4
   11bf0:	48 00 00 08 	b       0x11bf8
   11bf4:	83 5e 00 0c 	lwz     r26,12(r30)
   11bf8:	2f 9a 00 00 	cmpwi   cr7,r26,0
   11bfc:	41 9e 01 1c 	beq-    cr7,0x11d18
   11c00:	80 1e 00 10 	lwz     r0,16(r30)
   11c04:	38 a0 00 00 	li      r5,0
   11c08:	38 c0 00 00 	li      r6,0
   11c0c:	7f 7e 02 14 	add     r27,r30,r0
   11c10:	7c 1b 32 14 	add     r0,r27,r6
   11c14:	78 0b 00 20 	clrldi  r11,r0,32
   11c18:	81 2b 00 18 	lwz     r9,24(r11)
   11c1c:	2f 89 00 00 	cmpwi   cr7,r9,0
   11c20:	41 9e 00 e8 	beq-    cr7,0x11d08
   11c24:	80 0b 00 14 	lwz     r0,20(r11)
   11c28:	2f 80 00 00 	cmpwi   cr7,r0,0
   11c2c:	41 9e 00 dc 	beq-    cr7,0x11d08
   11c30:	80 fe 00 1c 	lwz     r7,28(r30)
   11c34:	2f 87 00 00 	cmpwi   cr7,r7,0
   11c38:	41 9e 00 d0 	beq-    cr7,0x11d08
   11c3c:	7f 3e 4a 14 	add     r25,r30,r9
   11c40:	7b 29 00 20 	clrldi  r9,r25,32
   11c44:	81 09 00 00 	lwz     r8,0(r9)
   11c48:	2f 88 00 00 	cmpwi   cr7,r8,0
   11c4c:	41 9e 00 bc 	beq-    cr7,0x11d08
   11c50:	7d 3e 02 14 	add     r9,r30,r0
   11c54:	2b 88 00 01 	cmplwi  cr7,r8,1
   11c58:	38 09 00 04 	addi    r0,r9,4
   11c5c:	39 69 00 08 	addi    r11,r9,8
   11c60:	39 49 00 0c 	addi    r10,r9,12
   11c64:	79 08 00 20 	clrldi  r8,r8,32
   11c68:	7f 9e 3a 14 	add     r28,r30,r7
   11c6c:	79 3d 00 20 	clrldi  r29,r9,32
   11c70:	7d 09 03 a6 	mtctr   r8
   11c74:	78 1f 00 20 	clrldi  r31,r0,32
   11c78:	79 63 00 20 	clrldi  r3,r11,32
   11c7c:	79 44 00 20 	clrldi  r4,r10,32
   11c80:	7f 27 cb 78 	mr      r7,r25
   11c84:	41 dc 04 58 	blt-    cr7,0x120dc
   11c88:	78 eb 00 20 	clrldi  r11,r7,32
   11c8c:	c1 bd 00 00 	lfs     f13,0(r29)
   11c90:	38 e7 00 04 	addi    r7,r7,4
   11c94:	81 2b 00 04 	lwz     r9,4(r11)
   11c98:	7d 3c 4a 14 	add     r9,r28,r9
   11c9c:	79 28 00 20 	clrldi  r8,r9,32
   11ca0:	39 69 00 04 	addi    r11,r9,4
   11ca4:	39 49 00 08 	addi    r10,r9,8
   11ca8:	79 6b 00 20 	clrldi  r11,r11,32
   11cac:	79 4a 00 20 	clrldi  r10,r10,32
   11cb0:	39 29 00 0c 	addi    r9,r9,12
   11cb4:	d1 a8 00 00 	stfs    f13,0(r8)
   11cb8:	c0 1f 00 00 	lfs     f0,0(r31)
   11cbc:	79 29 00 20 	clrldi  r9,r9,32
   11cc0:	d0 0b 00 00 	stfs    f0,0(r11)
   11cc4:	c0 03 00 00 	lfs     f0,0(r3)
   11cc8:	d0 0a 00 00 	stfs    f0,0(r10)
   11ccc:	c1 a4 00 00 	lfs     f13,0(r4)
   11cd0:	d1 a9 00 00 	stfs    f13,0(r9)
   11cd4:	80 08 00 00 	lwz     r0,0(r8)
   11cd8:	54 00 80 3e 	rotlwi  r0,r0,16
   11cdc:	90 08 00 00 	stw     r0,0(r8)
   11ce0:	80 0b 00 00 	lwz     r0,0(r11)
   11ce4:	54 00 80 3e 	rotlwi  r0,r0,16
   11ce8:	90 0b 00 00 	stw     r0,0(r11)
   11cec:	80 0a 00 00 	lwz     r0,0(r10)
   11cf0:	54 00 80 3e 	rotlwi  r0,r0,16
   11cf4:	90 0a 00 00 	stw     r0,0(r10)
   11cf8:	80 09 00 00 	lwz     r0,0(r9)
   11cfc:	54 00 80 3e 	rotlwi  r0,r0,16
   11d00:	90 09 00 00 	stw     r0,0(r9)
   11d04:	42 00 ff 84 	bdnz+   0x11c88
   11d08:	38 a5 00 01 	addi    r5,r5,1
   11d0c:	38 c6 00 30 	addi    r6,r6,48
   11d10:	7f 9a 28 40 	cmplw   cr7,r26,r5
   11d14:	41 9d fe fc 	bgt+    cr7,0x11c10
   11d18:	e8 01 00 10 	ld      r0,16(r1)
   11d1c:	e9 c1 ff 70 	ld      r14,-144(r1)
   11d20:	7c 08 03 a6 	mtlr    r0
   11d24:	e9 e1 ff 78 	ld      r15,-136(r1)
   11d28:	ea 01 ff 80 	ld      r16,-128(r1)
   11d2c:	ea 21 ff 88 	ld      r17,-120(r1)
   11d30:	ea 41 ff 90 	ld      r18,-112(r1)
   11d34:	ea 61 ff 98 	ld      r19,-104(r1)
   11d38:	ea 81 ff a0 	ld      r20,-96(r1)
   11d3c:	ea a1 ff a8 	ld      r21,-88(r1)
   11d40:	ea c1 ff b0 	ld      r22,-80(r1)
   11d44:	ea e1 ff b8 	ld      r23,-72(r1)
   11d48:	eb 01 ff c0 	ld      r24,-64(r1)
   11d4c:	eb 21 ff c8 	ld      r25,-56(r1)
   11d50:	eb 41 ff d0 	ld      r26,-48(r1)
   11d54:	eb 61 ff d8 	ld      r27,-40(r1)
   11d58:	eb 81 ff e0 	ld      r28,-32(r1)
   11d5c:	eb a1 ff e8 	ld      r29,-24(r1)
   11d60:	eb c1 ff f0 	ld      r30,-16(r1)
   11d64:	eb e1 ff f8 	ld      r31,-8(r1)
   11d68:	4e 80 00 20 	blr
   11d6c:	81 3e 00 14 	lwz     r9,20(r30)
   11d70:	7d 3e 4a 14 	add     r9,r30,r9
   11d74:	79 29 00 20 	clrldi  r9,r9,32
   11d78:	80 09 00 00 	lwz     r0,0(r9)
   11d7c:	81 69 00 04 	lwz     r11,4(r9)
   11d80:	81 49 00 08 	lwz     r10,8(r9)
   11d84:	54 1d 46 3e 	rlwinm  r29,r0,8,24,31
   11d88:	55 7c 46 3e 	rlwinm  r28,r11,8,24,31
   11d8c:	55 45 42 1e 	rlwinm  r5,r10,8,8,15
   11d90:	55 5b 46 3e 	rlwinm  r27,r10,8,24,31
   11d94:	54 06 c0 0e 	rlwinm  r6,r0,24,0,7
   11d98:	54 03 42 1e 	rlwinm  r3,r0,8,8,15
   11d9c:	55 67 c0 0e 	rlwinm  r7,r11,24,0,7
   11da0:	55 64 42 1e 	rlwinm  r4,r11,8,8,15
   11da4:	55 48 c0 0e 	rlwinm  r8,r10,24,0,7
   11da8:	54 00 c4 2e 	rlwinm  r0,r0,24,16,23
   11dac:	55 6b c4 2e 	rlwinm  r11,r11,24,16,23
   11db0:	55 4a c4 2e 	rlwinm  r10,r10,24,16,23
   11db4:	7c 00 eb 78 	or      r0,r0,r29
   11db8:	7d 6b e3 78 	or      r11,r11,r28
   11dbc:	7d 08 2b 78 	or      r8,r8,r5
   11dc0:	7d 4a db 78 	or      r10,r10,r27
   11dc4:	7c c6 1b 78 	or      r6,r6,r3
   11dc8:	7c e7 23 78 	or      r7,r7,r4
   11dcc:	7c c6 03 78 	or      r6,r6,r0
   11dd0:	a0 09 00 10 	lhz     r0,16(r9)
   11dd4:	7c e7 5b 78 	or      r7,r7,r11
   11dd8:	a1 69 00 0c 	lhz     r11,12(r9)
   11ddc:	7d 08 53 78 	or      r8,r8,r10
   11de0:	a1 49 00 0e 	lhz     r10,14(r9)
   11de4:	90 c9 00 00 	stw     r6,0(r9)
   11de8:	90 e9 00 04 	stw     r7,4(r9)
   11dec:	91 09 00 08 	stw     r8,8(r9)
   11df0:	81 1e 00 18 	lwz     r8,24(r30)
   11df4:	55 67 40 2e 	rlwinm  r7,r11,8,0,23
   11df8:	55 46 40 2e 	rlwinm  r6,r10,8,0,23
   11dfc:	54 05 40 2e 	rlwinm  r5,r0,8,0,23
   11e00:	55 6b c2 3e 	rlwinm  r11,r11,24,8,31
   11e04:	55 4a c2 3e 	rlwinm  r10,r10,24,8,31
   11e08:	54 00 c2 3e 	rlwinm  r0,r0,24,8,31
   11e0c:	2f 88 00 00 	cmpwi   cr7,r8,0
   11e10:	7d 6b 3b 78 	or      r11,r11,r7
   11e14:	7d 4a 33 78 	or      r10,r10,r6
   11e18:	7c 00 2b 78 	or      r0,r0,r5
   11e1c:	b1 69 00 0c 	sth     r11,12(r9)
   11e20:	b0 09 00 10 	sth     r0,16(r9)
   11e24:	b1 49 00 0e 	sth     r10,14(r9)
   11e28:	41 9e fa 94 	beq+    cr7,0x118bc
   11e2c:	38 80 00 00 	li      r4,0
   11e30:	81 5e 00 1c 	lwz     r10,28(r30)
   11e34:	7d 5e 52 14 	add     r10,r30,r10
   11e38:	7d 4a 22 14 	add     r10,r10,r4
   11e3c:	38 84 00 10 	addi    r4,r4,16
   11e40:	79 45 00 20 	clrldi  r5,r10,32
   11e44:	39 0a 00 04 	addi    r8,r10,4
   11e48:	38 ca 00 08 	addi    r6,r10,8
   11e4c:	79 08 00 20 	clrldi  r8,r8,32
   11e50:	78 c6 00 20 	clrldi  r6,r6,32
   11e54:	80 05 00 00 	lwz     r0,0(r5)
   11e58:	39 4a 00 0c 	addi    r10,r10,12
   11e5c:	54 07 46 3e 	rlwinm  r7,r0,8,24,31
   11e60:	54 0b 42 1e 	rlwinm  r11,r0,8,8,15
   11e64:	54 09 c0 0e 	rlwinm  r9,r0,24,0,7
   11e68:	54 00 c4 2e 	rlwinm  r0,r0,24,16,23
   11e6c:	7d 29 5b 78 	or      r9,r9,r11
   11e70:	7c 00 3b 78 	or      r0,r0,r7
   11e74:	79 4a 00 20 	clrldi  r10,r10,32
   11e78:	7d 29 03 78 	or      r9,r9,r0
   11e7c:	55 29 80 3e 	rotlwi  r9,r9,16
   11e80:	91 25 00 00 	stw     r9,0(r5)
   11e84:	80 08 00 00 	lwz     r0,0(r8)
   11e88:	54 0b 42 1e 	rlwinm  r11,r0,8,8,15
   11e8c:	54 07 46 3e 	rlwinm  r7,r0,8,24,31
   11e90:	54 09 c0 0e 	rlwinm  r9,r0,24,0,7
   11e94:	54 00 c4 2e 	rlwinm  r0,r0,24,16,23
   11e98:	7d 29 5b 78 	or      r9,r9,r11
   11e9c:	7c 00 3b 78 	or      r0,r0,r7
   11ea0:	7d 29 03 78 	or      r9,r9,r0
   11ea4:	55 29 80 3e 	rotlwi  r9,r9,16
   11ea8:	91 28 00 00 	stw     r9,0(r8)
   11eac:	80 06 00 00 	lwz     r0,0(r6)
   11eb0:	54 08 46 3e 	rlwinm  r8,r0,8,24,31
   11eb4:	54 0b 42 1e 	rlwinm  r11,r0,8,8,15
   11eb8:	54 09 c0 0e 	rlwinm  r9,r0,24,0,7
   11ebc:	54 00 c4 2e 	rlwinm  r0,r0,24,16,23
   11ec0:	7d 29 5b 78 	or      r9,r9,r11
   11ec4:	7c 00 43 78 	or      r0,r0,r8
   11ec8:	7d 29 03 78 	or      r9,r9,r0
   11ecc:	55 29 80 3e 	rotlwi  r9,r9,16
   11ed0:	91 26 00 00 	stw     r9,0(r6)
   11ed4:	80 0a 00 00 	lwz     r0,0(r10)
   11ed8:	54 08 46 3e 	rlwinm  r8,r0,8,24,31
   11edc:	54 09 c0 0e 	rlwinm  r9,r0,24,0,7
   11ee0:	54 0b 42 1e 	rlwinm  r11,r0,8,8,15
   11ee4:	54 00 c4 2e 	rlwinm  r0,r0,24,16,23
   11ee8:	7d 29 5b 78 	or      r9,r9,r11
   11eec:	7c 00 43 78 	or      r0,r0,r8
   11ef0:	7d 29 03 78 	or      r9,r9,r0
   11ef4:	55 29 80 3e 	rotlwi  r9,r9,16
   11ef8:	91 2a 00 00 	stw     r9,0(r10)
   11efc:	80 1e 00 18 	lwz     r0,24(r30)
   11f00:	7f 80 20 40 	cmplw   cr7,r0,r4
   11f04:	41 9d ff 2c 	bgt+    cr7,0x11e30
   11f08:	4b ff f9 b4 	b       0x118bc
   11f0c:	7d 3e e2 14 	add     r9,r30,r28
   11f10:	79 29 00 20 	clrldi  r9,r9,32
   11f14:	80 c9 00 14 	lwz     r6,20(r9)
   11f18:	80 09 00 00 	lwz     r0,0(r9)
   11f1c:	54 da 46 3e 	rlwinm  r26,r6,8,24,31
   11f20:	81 69 00 04 	lwz     r11,4(r9)
   11f24:	81 49 00 08 	lwz     r10,8(r9)
   11f28:	54 14 46 3e 	rlwinm  r20,r0,8,24,31
   11f2c:	7f 49 03 a6 	mtctr   r26
   11f30:	81 09 00 0c 	lwz     r8,12(r9)
   11f34:	80 e9 00 10 	lwz     r7,16(r9)
   11f38:	55 73 46 3e 	rlwinm  r19,r11,8,24,31
   11f3c:	55 52 46 3e 	rlwinm  r18,r10,8,24,31
   11f40:	55 0e 46 3e 	rlwinm  r14,r8,8,24,31
   11f44:	54 ec 46 3e 	rlwinm  r12,r7,8,24,31
   11f48:	54 1c c0 0e 	rlwinm  r28,r0,24,0,7
   11f4c:	54 15 42 1e 	rlwinm  r21,r0,8,8,15
   11f50:	55 7b c0 0e 	rlwinm  r27,r11,24,0,7
   11f54:	55 78 42 1e 	rlwinm  r24,r11,8,8,15
   11f58:	55 5d c0 0e 	rlwinm  r29,r10,24,0,7
   11f5c:	55 57 42 1e 	rlwinm  r23,r10,8,8,15
   11f60:	55 03 c0 0e 	rlwinm  r3,r8,24,0,7
   11f64:	55 16 42 1e 	rlwinm  r22,r8,8,8,15
   11f68:	54 e4 c0 0e 	rlwinm  r4,r7,24,0,7
   11f6c:	54 fa 42 1e 	rlwinm  r26,r7,8,8,15
   11f70:	54 c5 c0 0e 	rlwinm  r5,r6,24,0,7
   11f74:	54 d9 42 1e 	rlwinm  r25,r6,8,8,15
   11f78:	54 00 c4 2e 	rlwinm  r0,r0,24,16,23
   11f7c:	55 6b c4 2e 	rlwinm  r11,r11,24,16,23
   11f80:	55 4a c4 2e 	rlwinm  r10,r10,24,16,23
   11f84:	55 08 c4 2e 	rlwinm  r8,r8,24,16,23
   11f88:	54 e7 c4 2e 	rlwinm  r7,r7,24,16,23
   11f8c:	54 c6 c4 2e 	rlwinm  r6,r6,24,16,23
   11f90:	7c 00 a3 78 	or      r0,r0,r20
   11f94:	7f 9c ab 78 	or      r28,r28,r21
   11f98:	7f 7b c3 78 	or      r27,r27,r24
   11f9c:	7d 6b 9b 78 	or      r11,r11,r19
   11fa0:	7f bd bb 78 	or      r29,r29,r23
   11fa4:	7d 4a 93 78 	or      r10,r10,r18
   11fa8:	7c 63 b3 78 	or      r3,r3,r22
   11fac:	7d 08 73 78 	or      r8,r8,r14
   11fb0:	7e 29 02 a6 	mfctr   r17
   11fb4:	7c 84 d3 78 	or      r4,r4,r26
   11fb8:	7c e7 63 78 	or      r7,r7,r12
   11fbc:	7c a5 cb 78 	or      r5,r5,r25
   11fc0:	7c c6 8b 78 	or      r6,r6,r17
   11fc4:	7f 9c 03 78 	or      r28,r28,r0
   11fc8:	7f 7b 5b 78 	or      r27,r27,r11
   11fcc:	7f bd 53 78 	or      r29,r29,r10
   11fd0:	7c 63 43 78 	or      r3,r3,r8
   11fd4:	7c 84 3b 78 	or      r4,r4,r7
   11fd8:	7c a5 33 78 	or      r5,r5,r6
   11fdc:	93 89 00 00 	stw     r28,0(r9)
   11fe0:	90 a9 00 14 	stw     r5,20(r9)
   11fe4:	93 69 00 04 	stw     r27,4(r9)
   11fe8:	93 a9 00 08 	stw     r29,8(r9)
   11fec:	90 69 00 0c 	stw     r3,12(r9)
   11ff0:	90 89 00 10 	stw     r4,16(r9)
   11ff4:	80 1e 00 18 	lwz     r0,24(r30)
   11ff8:	2f 80 00 00 	cmpwi   cr7,r0,0
   11ffc:	41 9e f8 a8 	beq+    cr7,0x118a4
   12000:	38 80 00 00 	li      r4,0
   12004:	81 5e 00 1c 	lwz     r10,28(r30)
   12008:	7d 5e 52 14 	add     r10,r30,r10
   1200c:	7d 4a 22 14 	add     r10,r10,r4
   12010:	38 84 00 10 	addi    r4,r4,16
   12014:	79 45 00 20 	clrldi  r5,r10,32
   12018:	39 0a 00 04 	addi    r8,r10,4
   1201c:	38 ca 00 08 	addi    r6,r10,8
   12020:	79 08 00 20 	clrldi  r8,r8,32
   12024:	78 c6 00 20 	clrldi  r6,r6,32
   12028:	80 05 00 00 	lwz     r0,0(r5)
   1202c:	39 4a 00 0c 	addi    r10,r10,12
   12030:	54 07 46 3e 	rlwinm  r7,r0,8,24,31
   12034:	54 0b 42 1e 	rlwinm  r11,r0,8,8,15
   12038:	54 09 c0 0e 	rlwinm  r9,r0,24,0,7
   1203c:	54 00 c4 2e 	rlwinm  r0,r0,24,16,23
   12040:	7d 29 5b 78 	or      r9,r9,r11
   12044:	7c 00 3b 78 	or      r0,r0,r7
   12048:	79 4a 00 20 	clrldi  r10,r10,32
   1204c:	7d 29 03 78 	or      r9,r9,r0
   12050:	91 25 00 00 	stw     r9,0(r5)
   12054:	80 08 00 00 	lwz     r0,0(r8)
   12058:	54 0b 42 1e 	rlwinm  r11,r0,8,8,15
   1205c:	54 07 46 3e 	rlwinm  r7,r0,8,24,31
   12060:	54 09 c0 0e 	rlwinm  r9,r0,24,0,7
   12064:	54 00 c4 2e 	rlwinm  r0,r0,24,16,23
   12068:	7d 29 5b 78 	or      r9,r9,r11
   1206c:	7c 00 3b 78 	or      r0,r0,r7
   12070:	7d 29 03 78 	or      r9,r9,r0
   12074:	91 28 00 00 	stw     r9,0(r8)
   12078:	80 06 00 00 	lwz     r0,0(r6)
   1207c:	54 08 46 3e 	rlwinm  r8,r0,8,24,31
   12080:	54 0b 42 1e 	rlwinm  r11,r0,8,8,15
   12084:	54 09 c0 0e 	rlwinm  r9,r0,24,0,7
   12088:	54 00 c4 2e 	rlwinm  r0,r0,24,16,23
   1208c:	7d 29 5b 78 	or      r9,r9,r11
   12090:	7c 00 43 78 	or      r0,r0,r8
   12094:	7d 29 03 78 	or      r9,r9,r0
   12098:	91 26 00 00 	stw     r9,0(r6)
   1209c:	80 0a 00 00 	lwz     r0,0(r10)
   120a0:	54 08 46 3e 	rlwinm  r8,r0,8,24,31
   120a4:	54 09 c0 0e 	rlwinm  r9,r0,24,0,7
   120a8:	54 0b 42 1e 	rlwinm  r11,r0,8,8,15
   120ac:	54 00 c4 2e 	rlwinm  r0,r0,24,16,23
   120b0:	7d 29 5b 78 	or      r9,r9,r11
   120b4:	7c 00 43 78 	or      r0,r0,r8
   120b8:	7d 29 03 78 	or      r9,r9,r0
   120bc:	91 2a 00 00 	stw     r9,0(r10)
   120c0:	80 1e 00 18 	lwz     r0,24(r30)
   120c4:	7f 80 20 40 	cmplw   cr7,r0,r4
   120c8:	41 9d ff 3c 	bgt+    cr7,0x12004
   120cc:	4b ff f7 d8 	b       0x118a4
   120d0:	3b 40 00 01 	li      r26,1
   120d4:	7f 49 03 a6 	mtctr   r26
   120d8:	4b ff fa c0 	b       0x11b98
   120dc:	39 20 00 01 	li      r9,1
   120e0:	7d 29 03 a6 	mtctr   r9
   120e4:	4b ff fb a4 	b       0x11c88
   120e8:	f8 21 ff 91 	stdu    r1,-112(r1)
   120ec:	7c 08 02 a6 	mflr    r0
   120f0:	7c 89 23 78 	mr      r9,r4
   120f4:	f8 01 00 80 	std     r0,128(r1)
   120f8:	7c 60 1b 78 	mr      r0,r3
   120fc:	80 62 84 ec 	lwz     r3,-31508(r2)
   12100:	7c a6 2b 78 	mr      r6,r5
   12104:	7c 04 03 78 	mr      r4,r0
   12108:	7d 25 4b 78 	mr      r5,r9
   1210c:	48 00 09 d1 	bl      0x12adc
   12110:	60 00 00 00 	nop
   12114:	e8 01 00 80 	ld      r0,128(r1)
   12118:	7c 63 07 b4 	extsw   r3,r3
   1211c:	7c 08 03 a6 	mtlr    r0
   12120:	38 21 00 70 	addi    r1,r1,112
   12124:	4e 80 00 20 	blr
   12128:	54 69 28 34 	rlwinm  r9,r3,5,0,26
   1212c:	81 62 84 f0 	lwz     r11,-31504(r2)
   12130:	54 63 10 3a 	rlwinm  r3,r3,2,0,29
   12134:	7d 23 48 50 	subf    r9,r3,r9
   12138:	7d 29 5a 14 	add     r9,r9,r11
   1213c:	39 29 00 0c 	addi    r9,r9,12
   12140:	91 2b 00 7c 	stw     r9,124(r11)
   12144:	4e 80 00 20 	blr
   12148:	3c 00 00 21 	lis     r0,33
   1214c:	3d 20 00 1f 	lis     r9,31
   12150:	60 00 ff ff 	ori     r0,r0,65535
   12154:	61 29 ff ff 	ori     r9,r9,65535
   12158:	7f 83 00 40 	cmplw   cr7,r3,r0
   1215c:	7f 03 48 40 	cmplw   cr6,r3,r9
   12160:	3d 60 0f 90 	lis     r11,3984
   12164:	41 9d 00 34 	bgt-    cr7,0x12198
   12168:	3d 20 00 18 	lis     r9,24
   1216c:	3d 60 0f 20 	lis     r11,3872
   12170:	61 29 ff ff 	ori     r9,r9,65535
   12174:	41 99 00 24 	bgt-    cr6,0x12198
   12178:	3c 00 00 17 	lis     r0,23
   1217c:	7f 83 48 40 	cmplw   cr7,r3,r9
   12180:	60 00 ff ff 	ori     r0,r0,65535
   12184:	3d 60 0e a0 	lis     r11,3744
   12188:	7f 03 00 40 	cmplw   cr6,r3,r0
   1218c:	41 9d 00 0c 	bgt-    cr7,0x12198
   12190:	3d 60 0e 80 	lis     r11,3712
   12194:	40 99 00 10 	ble-    cr6,0x121a4
   12198:	3c 00 0f b0 	lis     r0,4016
   1219c:	7d 63 00 38 	and     r3,r11,r0
   121a0:	4e 80 00 20 	blr
   121a4:	3d 60 0e 00 	lis     r11,3584
   121a8:	4b ff ff f0 	b       0x12198
   121ac:	81 22 84 f4 	lwz     r9,-31500(r2)
   121b0:	80 69 00 00 	lwz     r3,0(r9)
   121b4:	4e 80 00 20 	blr
   121b8:	81 22 84 f0 	lwz     r9,-31504(r2)
   121bc:	38 60 00 00 	li      r3,0
   121c0:	80 09 00 7c 	lwz     r0,124(r9)
   121c4:	2f 80 00 00 	cmpwi   cr7,r0,0
   121c8:	78 09 00 20 	clrldi  r9,r0,32
   121cc:	41 9e 00 08 	beq-    cr7,0x121d4
   121d0:	80 69 00 10 	lwz     r3,16(r9)
   121d4:	78 63 00 20 	clrldi  r3,r3,32
   121d8:	4e 80 00 20 	blr
   121dc:	f8 21 ff 91 	stdu    r1,-112(r1)
   121e0:	7c 08 02 a6 	mflr    r0
   121e4:	f8 01 00 80 	std     r0,128(r1)
   121e8:	4b ff ff d1 	bl      0x121b8
   121ec:	81 62 84 f0 	lwz     r11,-31504(r2)
   121f0:	80 03 00 30 	lwz     r0,48(r3)
   121f4:	81 2b 00 7c 	lwz     r9,124(r11)
   121f8:	80 69 00 14 	lwz     r3,20(r9)
   121fc:	7c 63 02 14 	add     r3,r3,r0
   12200:	e8 01 00 80 	ld      r0,128(r1)
   12204:	38 21 00 70 	addi    r1,r1,112
   12208:	78 63 00 20 	clrldi  r3,r3,32
   1220c:	7c 08 03 a6 	mtlr    r0
   12210:	4e 80 00 20 	blr
   12214:	f8 21 ff 91 	stdu    r1,-112(r1)
   12218:	7c 08 02 a6 	mflr    r0
   1221c:	f8 01 00 80 	std     r0,128(r1)
   12220:	4b ff ff 99 	bl      0x121b8
   12224:	e8 01 00 80 	ld      r0,128(r1)
   12228:	80 63 00 0c 	lwz     r3,12(r3)
   1222c:	38 21 00 70 	addi    r1,r1,112
   12230:	7c 08 03 a6 	mtlr    r0
   12234:	4e 80 00 20 	blr
   12238:	81 22 84 f0 	lwz     r9,-31504(r2)
   1223c:	38 60 00 00 	li      r3,0
   12240:	80 09 00 7c 	lwz     r0,124(r9)
   12244:	2f 80 00 00 	cmpwi   cr7,r0,0
   12248:	78 09 00 20 	clrldi  r9,r0,32
   1224c:	41 9e 00 08 	beq-    cr7,0x12254
   12250:	80 69 00 08 	lwz     r3,8(r9)
   12254:	78 63 00 20 	clrldi  r3,r3,32
   12258:	4e 80 00 20 	blr
   1225c:	81 22 84 f0 	lwz     r9,-31504(r2)
   12260:	80 69 00 80 	lwz     r3,128(r9)
   12264:	4e 80 00 20 	blr
   12268:	f8 21 ff 81 	stdu    r1,-128(r1)
   1226c:	7c 08 02 a6 	mflr    r0
   12270:	fb e1 00 78 	std     r31,120(r1)
   12274:	7c 7f 1b 78 	mr      r31,r3
   12278:	81 62 84 f0 	lwz     r11,-31504(r2)
   1227c:	f8 01 00 90 	std     r0,144(r1)
   12280:	fb c1 00 70 	std     r30,112(r1)
   12284:	38 80 00 01 	li      r4,1
   12288:	81 5f 00 08 	lwz     r10,8(r31)
   1228c:	81 3f 00 04 	lwz     r9,4(r31)
   12290:	38 0a 00 04 	addi    r0,r10,4
   12294:	83 cb 00 84 	lwz     r30,132(r11)
   12298:	7f 80 48 40 	cmplw   cr7,r0,r9
   1229c:	41 9d 00 30 	bgt-    cr7,0x122cc
   122a0:	79 4b 00 20 	clrldi  r11,r10,32
   122a4:	63 c9 00 02 	ori     r9,r30,2
   122a8:	38 0a 00 04 	addi    r0,r10,4
   122ac:	90 1f 00 08 	stw     r0,8(r31)
   122b0:	91 2b 00 00 	stw     r9,0(r11)
   122b4:	e8 01 00 90 	ld      r0,144(r1)
   122b8:	eb c1 00 70 	ld      r30,112(r1)
   122bc:	eb e1 00 78 	ld      r31,120(r1)
   122c0:	7c 08 03 a6 	mtlr    r0
   122c4:	38 21 00 80 	addi    r1,r1,128
   122c8:	4e 80 00 20 	blr
   122cc:	81 3f 00 0c 	lwz     r9,12(r31)
   122d0:	80 09 00 00 	lwz     r0,0(r9)
   122d4:	f8 41 00 28 	std     r2,40(r1)
   122d8:	7c 09 03 a6 	mtctr   r0
   122dc:	80 49 00 04 	lwz     r2,4(r9)
   122e0:	4e 80 04 21 	bctrl
   122e4:	e8 41 00 28 	ld      r2,40(r1)
   122e8:	2f 83 00 00 	cmpwi   cr7,r3,0
   122ec:	40 9e ff c8 	bne+    cr7,0x122b4
   122f0:	81 5f 00 08 	lwz     r10,8(r31)
   122f4:	4b ff ff ac 	b       0x122a0
   122f8:	7d 80 00 26 	mfcr    r12
   122fc:	f8 21 ff 61 	stdu    r1,-160(r1)
   12300:	fb c1 00 90 	std     r30,144(r1)
   12304:	83 c2 84 f0 	lwz     r30,-31504(r2)
   12308:	38 80 00 00 	li      r4,0
   1230c:	fb e1 00 98 	std     r31,152(r1)
   12310:	38 a0 00 84 	li      r5,132
   12314:	91 81 00 a8 	stw     r12,168(r1)
   12318:	7c 08 02 a6 	mflr    r0
   1231c:	f8 01 00 b0 	std     r0,176(r1)
   12320:	83 fe 00 98 	lwz     r31,152(r30)
   12324:	7c 60 1b 78 	mr      r0,r3
   12328:	7f c3 f3 78 	mr      r3,r30
   1232c:	2f 9f 00 00 	cmpwi   cr7,r31,0
   12330:	41 9e 00 24 	beq-    cr7,0x12354
   12334:	e8 01 00 b0 	ld      r0,176(r1)
   12338:	81 81 00 a8 	lwz     r12,168(r1)
   1233c:	eb c1 00 90 	ld      r30,144(r1)
   12340:	7c 08 03 a6 	mtlr    r0
   12344:	eb e1 00 98 	ld      r31,152(r1)
   12348:	7d 90 81 20 	mtocrf  8,r12
   1234c:	38 21 00 a0 	addi    r1,r1,160
   12350:	4e 80 00 20 	blr
   12354:	90 1e 00 9c 	stw     r0,156(r30)
   12358:	48 04 b4 05 	bl      0x5d75c
   1235c:	60 00 00 00 	nop
   12360:	48 00 0b fd 	bl      0x12f5c
   12364:	60 00 00 00 	nop
   12368:	48 00 36 e9 	bl      0x15a50
   1236c:	60 00 00 00 	nop
   12370:	48 00 3d e5 	bl      0x16154
   12374:	60 00 00 00 	nop
   12378:	48 00 0c 5d 	bl      0x12fd4
   1237c:	60 00 00 00 	nop
   12380:	48 00 0c 85 	bl      0x13004
   12384:	60 00 00 00 	nop
   12388:	38 00 00 00 	li      r0,0
   1238c:	93 fe 00 04 	stw     r31,4(r30)
   12390:	f8 01 00 80 	std     r0,128(r1)
   12394:	93 fe 00 00 	stw     r31,0(r30)
   12398:	f8 01 00 78 	std     r0,120(r1)
   1239c:	38 61 00 80 	addi    r3,r1,128
   123a0:	38 81 00 78 	addi    r4,r1,120
   123a4:	38 a0 00 08 	li      r5,8
   123a8:	39 60 02 a3 	li      r11,675
   123ac:	44 00 00 02 	sc      
   123b0:	2e 03 00 00 	cmpwi   cr4,r3,0
   123b4:	39 60 00 01 	li      r11,1
   123b8:	38 00 00 00 	li      r0,0
   123bc:	40 92 00 08 	bne-    cr4,0x123c4
   123c0:	80 01 00 84 	lwz     r0,132(r1)
   123c4:	81 22 84 f4 	lwz     r9,-31500(r2)
   123c8:	39 40 00 01 	li      r10,1
   123cc:	90 1e 00 08 	stw     r0,8(r30)
   123d0:	91 49 00 00 	stw     r10,0(r9)
   123d4:	44 00 00 02 	sc      
   123d8:	39 60 00 19 	li      r11,25
   123dc:	78 63 00 20 	clrldi  r3,r3,32
   123e0:	38 81 00 70 	addi    r4,r1,112
   123e4:	44 00 00 02 	sc      
   123e8:	2e 03 00 00 	cmpwi   cr4,r3,0
   123ec:	40 92 ff 48 	bne+    cr4,0x12334
   123f0:	80 01 00 70 	lwz     r0,112(r1)
   123f4:	81 81 00 a8 	lwz     r12,168(r1)
   123f8:	90 1e 00 80 	stw     r0,128(r30)
   123fc:	e8 01 00 b0 	ld      r0,176(r1)
   12400:	7d 90 81 20 	mtocrf  8,r12
   12404:	eb c1 00 90 	ld      r30,144(r1)
   12408:	eb e1 00 98 	ld      r31,152(r1)
   1240c:	7c 08 03 a6 	mtlr    r0
   12410:	38 21 00 a0 	addi    r1,r1,160
   12414:	4e 80 00 20 	blr
   12418:	f8 21 ff 21 	stdu    r1,-224(r1)
   1241c:	7c 08 02 a6 	mflr    r0
   12420:	fb 81 00 c0 	std     r28,192(r1)
   12424:	f8 01 00 f0 	std     r0,240(r1)
   12428:	83 82 84 f0 	lwz     r28,-31504(r2)
   1242c:	38 00 00 04 	li      r0,4
   12430:	fb 21 00 a8 	std     r25,168(r1)
   12434:	fb 41 00 b0 	std     r26,176(r1)
   12438:	7c 09 03 a6 	mtctr   r0
   1243c:	fb 61 00 b8 	std     r27,184(r1)
   12440:	fb a1 00 c8 	std     r29,200(r1)
   12444:	fb c1 00 d0 	std     r30,208(r1)
   12448:	7c bb 2b 78 	mr      r27,r5
   1244c:	fb e1 00 d8 	std     r31,216(r1)
   12450:	7c 7a 1b 78 	mr      r26,r3
   12454:	7c 99 23 78 	mr      r25,r4
   12458:	7d 25 4b 78 	mr      r5,r9
   1245c:	7d 5d 53 78 	mr      r29,r10
   12460:	3b c0 00 00 	li      r30,0
   12464:	39 7c 00 0c 	addi    r11,r28,12
   12468:	79 69 00 20 	clrldi  r9,r11,32
   1246c:	39 6b 00 1c 	addi    r11,r11,28
   12470:	80 09 00 00 	lwz     r0,0(r9)
   12474:	2f 80 00 00 	cmpwi   cr7,r0,0
   12478:	41 9e 00 44 	beq-    cr7,0x124bc
   1247c:	3b de 00 01 	addi    r30,r30,1
   12480:	42 00 ff e8 	bdnz+   0x12468
   12484:	3f e0 80 21 	lis     r31,-32735
   12488:	63 ff 00 ff 	ori     r31,r31,255
   1248c:	e8 01 00 f0 	ld      r0,240(r1)
   12490:	7f e3 07 b4 	extsw   r3,r31
   12494:	eb 21 00 a8 	ld      r25,168(r1)
   12498:	eb 41 00 b0 	ld      r26,176(r1)
   1249c:	7c 08 03 a6 	mtlr    r0
   124a0:	eb 61 00 b8 	ld      r27,184(r1)
   124a4:	eb 81 00 c0 	ld      r28,192(r1)
   124a8:	eb a1 00 c8 	ld      r29,200(r1)
   124ac:	eb c1 00 d0 	ld      r30,208(r1)
   124b0:	eb e1 00 d8 	ld      r31,216(r1)
   124b4:	38 21 00 e0 	addi    r1,r1,224
   124b8:	4e 80 00 20 	blr
   124bc:	2f 9e ff ff 	cmpwi   cr7,r30,-1
   124c0:	41 9e ff c4 	beq+    cr7,0x12484
   124c4:	81 3c 00 88 	lwz     r9,136(r28)
   124c8:	2f 89 00 00 	cmpwi   cr7,r9,0
   124cc:	41 9e 00 a8 	beq-    cr7,0x12574
   124d0:	e8 1c 00 90 	ld      r0,144(r28)
   124d4:	91 21 00 70 	stw     r9,112(r1)
   124d8:	f8 01 00 78 	std     r0,120(r1)
   124dc:	48 00 3d 35 	bl      0x16210
   124e0:	60 00 00 00 	nop
   124e4:	7f a0 fe 70 	srawi   r0,r29,31
   124e8:	7c 09 ea 78 	xor     r9,r0,r29
   124ec:	7d 20 48 50 	subf    r9,r0,r9
   124f0:	39 29 ff ff 	addi    r9,r9,-1
   124f4:	55 29 0f fe 	rlwinm  r9,r9,1,31,31
   124f8:	7d 29 07 b4 	extsw   r9,r9
   124fc:	79 29 26 e4 	rldicr  r9,r9,4,59
   12500:	7d 3d 1b 78 	or      r29,r9,r3
   12504:	4b ff fd 59 	bl      0x1225c
   12508:	3c 00 00 21 	lis     r0,33
   1250c:	7c 7f 1b 78 	mr      r31,r3
   12510:	60 00 ff ff 	ori     r0,r0,65535
   12514:	7f 83 00 40 	cmplw   cr7,r3,r0
   12518:	41 9d 01 6c 	bgt-    cr7,0x12684
   1251c:	3c 00 00 24 	lis     r0,36
   12520:	60 00 ff ff 	ori     r0,r0,65535
   12524:	7f 9f 00 40 	cmplw   cr7,r31,r0
   12528:	41 9d 01 00 	bgt-    cr7,0x12628
   1252c:	7b a0 c0 42 	rldicl  r0,r29,56,1
   12530:	78 00 40 00 	rotldi  r0,r0,8
   12534:	60 1d 02 00 	ori     r29,r0,512
   12538:	38 61 00 74 	addi    r3,r1,116
   1253c:	80 e1 00 70 	lwz     r7,112(r1)
   12540:	38 81 00 80 	addi    r4,r1,128
   12544:	38 a1 00 88 	addi    r5,r1,136
   12548:	38 c1 00 90 	addi    r6,r1,144
   1254c:	7f a8 eb 78 	mr      r8,r29
   12550:	39 60 02 9e 	li      r11,670
   12554:	44 00 00 02 	sc      
   12558:	2f 83 00 00 	cmpwi   cr7,r3,0
   1255c:	7c 7f 1b 78 	mr      r31,r3
   12560:	41 9e 00 48 	beq-    cr7,0x125a8
   12564:	80 61 00 70 	lwz     r3,112(r1)
   12568:	39 60 02 9d 	li      r11,669
   1256c:	44 00 00 02 	sc      
   12570:	4b ff ff 1c 	b       0x1248c
   12574:	78 a9 00 20 	clrldi  r9,r5,32
   12578:	78 c6 00 20 	clrldi  r6,r6,32
   1257c:	78 e7 00 20 	clrldi  r7,r7,32
   12580:	79 08 00 20 	clrldi  r8,r8,32
   12584:	38 61 00 70 	addi    r3,r1,112
   12588:	38 81 00 78 	addi    r4,r1,120
   1258c:	7b 65 00 20 	clrldi  r5,r27,32
   12590:	39 60 02 9c 	li      r11,668
   12594:	44 00 00 02 	sc      
   12598:	2f 83 00 00 	cmpwi   cr7,r3,0
   1259c:	7c 7f 1b 78 	mr      r31,r3
   125a0:	41 9e ff 3c 	beq+    cr7,0x124dc
   125a4:	4b ff fe e8 	b       0x1248c
   125a8:	e8 e1 00 88 	ld      r7,136(r1)
   125ac:	78 e9 00 20 	clrldi  r9,r7,32
   125b0:	80 09 00 00 	lwz     r0,0(r9)
   125b4:	2f 80 02 11 	cmpwi   cr7,r0,529
   125b8:	40 9e 00 a8 	bne-    cr7,0x12660
   125bc:	57 c0 10 3a 	rlwinm  r0,r30,2,0,29
   125c0:	e9 21 00 90 	ld      r9,144(r1)
   125c4:	57 cb 28 34 	rlwinm  r11,r30,5,0,26
   125c8:	e9 01 00 78 	ld      r8,120(r1)
   125cc:	7b 64 00 20 	clrldi  r4,r27,32
   125d0:	7d 60 58 50 	subf    r11,r0,r11
   125d4:	e8 01 00 80 	ld      r0,128(r1)
   125d8:	79 03 00 20 	clrldi  r3,r8,32
   125dc:	39 4b 00 10 	addi    r10,r11,16
   125e0:	7d 6b 07 b4 	extsw   r11,r11
   125e4:	7d 4a 07 b4 	extsw   r10,r10
   125e8:	7d 6b e2 14 	add     r11,r11,r28
   125ec:	7d 4a e2 14 	add     r10,r10,r28
   125f0:	7f a5 eb 78 	mr      r5,r29
   125f4:	f9 19 00 00 	std     r8,0(r25)
   125f8:	90 0b 00 18 	stw     r0,24(r11)
   125fc:	91 2a 00 10 	stw     r9,16(r10)
   12600:	80 01 00 70 	lwz     r0,112(r1)
   12604:	90 0b 00 0c 	stw     r0,12(r11)
   12608:	81 21 00 74 	lwz     r9,116(r1)
   1260c:	90 ea 00 0c 	stw     r7,12(r10)
   12610:	91 2b 00 14 	stw     r9,20(r11)
   12614:	91 0b 00 10 	stw     r8,16(r11)
   12618:	93 da 00 00 	stw     r30,0(r26)
   1261c:	48 00 12 41 	bl      0x1385c
   12620:	60 00 00 00 	nop
   12624:	4b ff fe 68 	b       0x1248c
   12628:	3c 00 00 2f 	lis     r0,47
   1262c:	60 00 ff ff 	ori     r0,r0,65535
   12630:	7f 9f 00 40 	cmplw   cr7,r31,r0
   12634:	40 9d ff 04 	ble+    cr7,0x12538
   12638:	48 00 34 89 	bl      0x15ac0
   1263c:	60 00 00 00 	nop
   12640:	7c 69 fe 70 	srawi   r9,r3,31
   12644:	7d 20 1a 78 	xor     r0,r9,r3
   12648:	7c 00 48 50 	subf    r0,r0,r9
   1264c:	54 00 0f fe 	rlwinm  r0,r0,1,31,31
   12650:	7c 00 07 b4 	extsw   r0,r0
   12654:	78 00 5d 24 	rldicr  r0,r0,11,52
   12658:	7f bd 03 78 	or      r29,r29,r0
   1265c:	4b ff fe dc 	b       0x12538
   12660:	80 61 00 74 	lwz     r3,116(r1)
   12664:	39 60 02 9f 	li      r11,671
   12668:	44 00 00 02 	sc      
   1266c:	39 60 02 9d 	li      r11,669
   12670:	80 61 00 70 	lwz     r3,112(r1)
   12674:	44 00 00 02 	sc      
   12678:	3f e0 80 21 	lis     r31,-32735
   1267c:	63 ff 00 ff 	ori     r31,r31,255
   12680:	4b ff fe 0c 	b       0x1248c
   12684:	48 00 3b 7d 	bl      0x16200
   12688:	60 00 00 00 	nop
   1268c:	7c 69 fe 70 	srawi   r9,r3,31
   12690:	7d 20 1a 78 	xor     r0,r9,r3
   12694:	7c 00 48 50 	subf    r0,r0,r9
   12698:	54 00 0f fe 	rlwinm  r0,r0,1,31,31
   1269c:	7c 00 07 b4 	extsw   r0,r0
   126a0:	78 00 2e a4 	rldicr  r0,r0,5,58
   126a4:	7f bd 03 78 	or      r29,r29,r0
   126a8:	4b ff fe 74 	b       0x1251c
   126ac:	2f 83 ff ff 	cmpwi   cr7,r3,-1
   126b0:	7c 08 02 a6 	mflr    r0
   126b4:	f8 21 ff 41 	stdu    r1,-192(r1)
   126b8:	fb 41 00 90 	std     r26,144(r1)
   126bc:	fb 61 00 98 	std     r27,152(r1)
   126c0:	fb 81 00 a0 	std     r28,160(r1)
   126c4:	fb a1 00 a8 	std     r29,168(r1)
   126c8:	fb c1 00 b0 	std     r30,176(r1)
   126cc:	fb 21 00 88 	std     r25,136(r1)
   126d0:	fb e1 00 b8 	std     r31,184(r1)
   126d4:	f8 01 00 d0 	std     r0,208(r1)
   126d8:	7c 7c 1b 78 	mr      r28,r3
   126dc:	7c 9b 23 78 	mr      r27,r4
   126e0:	7c bd 2b 78 	mr      r29,r5
   126e4:	7c da 33 78 	mr      r26,r6
   126e8:	7c fe 3b 78 	mr      r30,r7
   126ec:	40 9e 00 3c 	bne-    cr7,0x12728
   126f0:	3f e0 80 21 	lis     r31,-32735
   126f4:	63 ff 00 ff 	ori     r31,r31,255
   126f8:	e8 01 00 d0 	ld      r0,208(r1)
   126fc:	7f e3 07 b4 	extsw   r3,r31
   12700:	eb 21 00 88 	ld      r25,136(r1)
   12704:	eb 41 00 90 	ld      r26,144(r1)
   12708:	7c 08 03 a6 	mtlr    r0
   1270c:	eb 61 00 98 	ld      r27,152(r1)
   12710:	eb 81 00 a0 	ld      r28,160(r1)
   12714:	eb a1 00 a8 	ld      r29,168(r1)
   12718:	eb c1 00 b0 	ld      r30,176(r1)
   1271c:	eb e1 00 b8 	ld      r31,184(r1)
   12720:	38 21 00 c0 	addi    r1,r1,192
   12724:	4e 80 00 20 	blr
   12728:	2f 83 00 03 	cmpwi   cr7,r3,3
   1272c:	41 9d ff c4 	bgt+    cr7,0x126f0
   12730:	78 63 00 20 	clrldi  r3,r3,32
   12734:	4b ff f9 f5 	bl      0x12128
   12738:	48 00 33 95 	bl      0x15acc
   1273c:	60 00 00 00 	nop
   12740:	2f 83 00 00 	cmpwi   cr7,r3,0
   12744:	7c 7f 1b 78 	mr      r31,r3
   12748:	40 9e ff b0 	bne+    cr7,0x126f8
   1274c:	2f 9e 00 00 	cmpwi   cr7,r30,0
   12750:	40 9e 01 e0 	bne-    cr7,0x12930
   12754:	2b 9b ff ff 	cmplwi  cr7,r27,65535
   12758:	40 9d ff 98 	ble+    cr7,0x126f0
   1275c:	57 60 07 be 	clrlwi  r0,r27,30
   12760:	7b 5e 00 20 	clrldi  r30,r26,32
   12764:	2f 80 00 00 	cmpwi   cr7,r0,0
   12768:	40 9e ff 88 	bne+    cr7,0x126f0
   1276c:	83 a2 84 f0 	lwz     r29,-31504(r2)
   12770:	57 69 00 3a 	rlwinm  r9,r27,0,0,29
   12774:	38 1d 00 a0 	addi    r0,r29,160
   12778:	7d 3a 4a 14 	add     r9,r26,r9
   1277c:	78 1f 00 20 	clrldi  r31,r0,32
   12780:	39 29 ff fc 	addi    r9,r9,-4
   12784:	38 00 00 00 	li      r0,0
   12788:	7f e3 fb 78 	mr      r3,r31
   1278c:	91 3d 00 a4 	stw     r9,164(r29)
   12790:	90 1d 00 ac 	stw     r0,172(r29)
   12794:	93 5d 00 a0 	stw     r26,160(r29)
   12798:	93 5d 00 a8 	stw     r26,168(r29)
   1279c:	48 00 15 e1 	bl      0x13d7c
   127a0:	60 00 00 00 	nop
   127a4:	7f e3 fb 78 	mr      r3,r31
   127a8:	48 00 21 89 	bl      0x14930
   127ac:	60 00 00 00 	nop
   127b0:	7f e3 fb 78 	mr      r3,r31
   127b4:	48 00 1e dd 	bl      0x14690
   127b8:	60 00 00 00 	nop
   127bc:	81 7d 00 a8 	lwz     r11,168(r29)
   127c0:	81 3d 00 a4 	lwz     r9,164(r29)
   127c4:	38 0b 00 04 	addi    r0,r11,4
   127c8:	7f 80 48 40 	cmplw   cr7,r0,r9
   127cc:	41 9d 01 c4 	bgt-    cr7,0x12990
   127d0:	79 69 00 20 	clrldi  r9,r11,32
   127d4:	38 0b 00 04 	addi    r0,r11,4
   127d8:	90 1d 00 a8 	stw     r0,168(r29)
   127dc:	3c 00 00 02 	lis     r0,2
   127e0:	90 09 00 00 	stw     r0,0(r9)
   127e4:	7f c3 f3 78 	mr      r3,r30
   127e8:	38 9d 00 84 	addi    r4,r29,132
   127ec:	48 00 0f 39 	bl      0x13724
   127f0:	60 00 00 00 	nop
   127f4:	57 89 28 34 	rlwinm  r9,r28,5,0,26
   127f8:	57 80 10 3a 	rlwinm  r0,r28,2,0,29
   127fc:	7b 65 00 20 	clrldi  r5,r27,32
   12800:	7f c0 48 50 	subf    r30,r0,r9
   12804:	7b 44 00 20 	clrldi  r4,r26,32
   12808:	7f c9 07 b4 	extsw   r9,r30
   1280c:	38 c0 10 00 	li      r6,4096
   12810:	7d 29 ea 14 	add     r9,r9,r29
   12814:	80 69 00 18 	lwz     r3,24(r9)
   12818:	38 63 00 40 	addi    r3,r3,64
   1281c:	78 63 00 20 	clrldi  r3,r3,32
   12820:	48 00 08 5d 	bl      0x1307c
   12824:	60 00 00 00 	nop
   12828:	2f 83 00 00 	cmpwi   cr7,r3,0
   1282c:	7c 7c 1b 78 	mr      r28,r3
   12830:	7c 7f 1b 78 	mr      r31,r3
   12834:	40 9e fe c4 	bne+    cr7,0x126f8
   12838:	39 3e 00 10 	addi    r9,r30,16
   1283c:	7d 29 07 b4 	extsw   r9,r9
   12840:	7d 29 ea 14 	add     r9,r9,r29
   12844:	93 49 00 14 	stw     r26,20(r9)
   12848:	48 00 02 b5 	bl      0x12afc
   1284c:	60 00 00 00 	nop
   12850:	54 63 06 3e 	clrlwi  r3,r3,24
   12854:	2f 83 00 00 	cmpwi   cr7,r3,0
   12858:	41 9e 00 14 	beq-    cr7,0x1286c
   1285c:	81 3d 00 9c 	lwz     r9,156(r29)
   12860:	80 69 00 00 	lwz     r3,0(r9)
   12864:	48 00 06 bd 	bl      0x12f20
   12868:	60 00 00 00 	nop
   1286c:	81 3d 00 9c 	lwz     r9,156(r29)
   12870:	80 69 00 00 	lwz     r3,0(r9)
   12874:	4b ff f9 f5 	bl      0x12268
   12878:	81 3d 00 9c 	lwz     r9,156(r29)
   1287c:	80 69 00 00 	lwz     r3,0(r9)
   12880:	48 00 2c dd 	bl      0x1555c
   12884:	60 00 00 00 	nop
   12888:	81 3d 00 9c 	lwz     r9,156(r29)
   1288c:	80 69 00 00 	lwz     r3,0(r9)
   12890:	48 00 2d a9 	bl      0x15638
   12894:	60 00 00 00 	nop
   12898:	81 3d 00 9c 	lwz     r9,156(r29)
   1289c:	80 69 00 00 	lwz     r3,0(r9)
   128a0:	48 00 2e b9 	bl      0x15758
   128a4:	60 00 00 00 	nop
   128a8:	81 3d 00 9c 	lwz     r9,156(r29)
   128ac:	38 80 ff ff 	li      r4,-1
   128b0:	78 84 00 20 	clrldi  r4,r4,32
   128b4:	80 69 00 00 	lwz     r3,0(r9)
   128b8:	48 00 31 1d 	bl      0x159d4
   128bc:	60 00 00 00 	nop
   128c0:	38 60 00 01 	li      r3,1
   128c4:	48 00 07 71 	bl      0x13034
   128c8:	60 00 00 00 	nop
   128cc:	7c 69 1b 78 	mr      r9,r3
   128d0:	38 60 00 00 	li      r3,0
   128d4:	93 89 00 00 	stw     r28,0(r9)
   128d8:	48 00 07 5d 	bl      0x13034
   128dc:	60 00 00 00 	nop
   128e0:	93 83 00 00 	stw     r28,0(r3)
   128e4:	48 00 02 25 	bl      0x12b08
   128e8:	60 00 00 00 	nop
   128ec:	4b ff f9 4d 	bl      0x12238
   128f0:	38 e0 00 00 	li      r7,0
   128f4:	78 63 00 20 	clrldi  r3,r3,32
   128f8:	64 e7 80 00 	oris    r7,r7,32768
   128fc:	38 80 01 0a 	li      r4,266
   12900:	38 a0 00 00 	li      r5,0
   12904:	38 c0 00 00 	li      r6,0
   12908:	39 00 00 00 	li      r8,0
   1290c:	39 60 02 a2 	li      r11,674
   12910:	44 00 00 02 	sc      
   12914:	48 00 03 c1 	bl      0x12cd4
   12918:	60 00 00 00 	nop
   1291c:	48 00 02 59 	bl      0x12b74
   12920:	60 00 00 00 	nop
   12924:	38 00 00 01 	li      r0,1
   12928:	90 1d 00 98 	stw     r0,152(r29)
   1292c:	4b ff fd cc 	b       0x126f8
   12930:	2b 9b ff ff 	cmplwi  cr7,r27,65535
   12934:	40 9d fd bc 	ble+    cr7,0x126f0
   12938:	38 1b 10 00 	addi    r0,r27,4096
   1293c:	7f 80 e8 40 	cmplw   cr7,r0,r29
   12940:	41 9d fd b0 	bgt+    cr7,0x126f0
   12944:	57 60 07 be 	clrlwi  r0,r27,30
   12948:	2f 80 00 00 	cmpwi   cr7,r0,0
   1294c:	40 9e fd a4 	bne+    cr7,0x126f0
   12950:	57 a0 03 3e 	clrlwi  r0,r29,12
   12954:	2f 80 00 00 	cmpwi   cr7,r0,0
   12958:	40 9e fd 98 	bne+    cr7,0x126f0
   1295c:	57 40 03 3e 	clrlwi  r0,r26,12
   12960:	2f 80 00 00 	cmpwi   cr7,r0,0
   12964:	40 9e fd 8c 	bne+    cr7,0x126f0
   12968:	7b 5e 00 20 	clrldi  r30,r26,32
   1296c:	7b a4 00 20 	clrldi  r4,r29,32
   12970:	7f c3 f3 78 	mr      r3,r30
   12974:	38 a1 00 70 	addi    r5,r1,112
   12978:	48 00 0f 91 	bl      0x13908
   1297c:	60 00 00 00 	nop
   12980:	2f 83 00 00 	cmpwi   cr7,r3,0
   12984:	7c 7f 1b 78 	mr      r31,r3
   12988:	41 9e fd e4 	beq+    cr7,0x1276c
   1298c:	4b ff fd 6c 	b       0x126f8
   12990:	81 3d 00 ac 	lwz     r9,172(r29)
   12994:	7f e3 fb 78 	mr      r3,r31
   12998:	38 80 00 01 	li      r4,1
   1299c:	80 09 00 00 	lwz     r0,0(r9)
   129a0:	f8 41 00 28 	std     r2,40(r1)
   129a4:	7c 09 03 a6 	mtctr   r0
   129a8:	80 49 00 04 	lwz     r2,4(r9)
   129ac:	4e 80 04 21 	bctrl
   129b0:	e8 41 00 28 	ld      r2,40(r1)
   129b4:	2f 83 00 00 	cmpwi   cr7,r3,0
   129b8:	40 9e fe 2c 	bne+    cr7,0x127e4
   129bc:	81 7d 00 a8 	lwz     r11,168(r29)
   129c0:	4b ff fe 10 	b       0x127d0
   129c4:	f8 21 ff 51 	stdu    r1,-176(r1)
   129c8:	7c 08 02 a6 	mflr    r0
   129cc:	fb 61 00 88 	std     r27,136(r1)
   129d0:	f8 01 00 c0 	std     r0,192(r1)
   129d4:	fb 81 00 90 	std     r28,144(r1)
   129d8:	fb a1 00 98 	std     r29,152(r1)
   129dc:	fb c1 00 a0 	std     r30,160(r1)
   129e0:	fb e1 00 a8 	std     r31,168(r1)
   129e4:	7c db 33 78 	mr      r27,r6
   129e8:	7c ff 3b 78 	mr      r31,r7
   129ec:	78 fe 00 20 	clrldi  r30,r7,32
   129f0:	7c 9d 23 78 	mr      r29,r4
   129f4:	7c bc 2b 78 	mr      r28,r5
   129f8:	4b ff f9 01 	bl      0x122f8
   129fc:	4b ff f8 61 	bl      0x1225c
   12a00:	3d 20 80 21 	lis     r9,-32735
   12a04:	7c 60 1b 78 	mr      r0,r3
   12a08:	61 29 00 ff 	ori     r9,r9,255
   12a0c:	2f 80 00 00 	cmpwi   cr7,r0,0
   12a10:	78 63 00 20 	clrldi  r3,r3,32
   12a14:	40 9e 00 2c 	bne-    cr7,0x12a40
   12a18:	e8 01 00 c0 	ld      r0,192(r1)
   12a1c:	7d 23 07 b4 	extsw   r3,r9
   12a20:	eb 61 00 88 	ld      r27,136(r1)
   12a24:	eb 81 00 90 	ld      r28,144(r1)
   12a28:	7c 08 03 a6 	mtlr    r0
   12a2c:	eb a1 00 98 	ld      r29,152(r1)
   12a30:	eb c1 00 a0 	ld      r30,160(r1)
   12a34:	eb e1 00 a8 	ld      r31,168(r1)
   12a38:	38 21 00 b0 	addi    r1,r1,176
   12a3c:	4e 80 00 20 	blr
   12a40:	4b ff f7 09 	bl      0x12148
   12a44:	38 81 00 78 	addi    r4,r1,120
   12a48:	78 65 00 20 	clrldi  r5,r3,32
   12a4c:	3c e0 00 30 	lis     r7,48
   12a50:	39 20 00 08 	li      r9,8
   12a54:	3c c0 00 08 	lis     r6,8
   12a58:	39 00 00 0f 	li      r8,15
   12a5c:	7f ca f3 78 	mr      r10,r30
   12a60:	38 61 00 70 	addi    r3,r1,112
   12a64:	4b ff f9 b5 	bl      0x12418
   12a68:	2f 1f 00 00 	cmpwi   cr6,r31,0
   12a6c:	2f 83 00 00 	cmpwi   cr7,r3,0
   12a70:	7c 69 1b 78 	mr      r9,r3
   12a74:	7b a4 00 20 	clrldi  r4,r29,32
   12a78:	7b 85 00 20 	clrldi  r5,r28,32
   12a7c:	7f c7 f3 78 	mr      r7,r30
   12a80:	40 9e ff 98 	bne+    cr7,0x12a18
   12a84:	80 61 00 70 	lwz     r3,112(r1)
   12a88:	7f 66 db 78 	mr      r6,r27
   12a8c:	7c 63 07 b4 	extsw   r3,r3
   12a90:	41 9a 00 38 	beq-    cr6,0x12ac8
   12a94:	78 c6 00 20 	clrldi  r6,r6,32
   12a98:	4b ff fc 15 	bl      0x126ac
   12a9c:	7c 69 1b 78 	mr      r9,r3
   12aa0:	e8 01 00 c0 	ld      r0,192(r1)
   12aa4:	7d 23 07 b4 	extsw   r3,r9
   12aa8:	eb 61 00 88 	ld      r27,136(r1)
   12aac:	eb 81 00 90 	ld      r28,144(r1)
   12ab0:	7c 08 03 a6 	mtlr    r0
   12ab4:	eb a1 00 98 	ld      r29,152(r1)
   12ab8:	eb c1 00 a0 	ld      r30,160(r1)
   12abc:	eb e1 00 a8 	ld      r31,168(r1)
   12ac0:	38 21 00 b0 	addi    r1,r1,176
   12ac4:	4e 80 00 20 	blr
   12ac8:	80 c1 00 7c 	lwz     r6,124(r1)
   12acc:	78 c6 00 20 	clrldi  r6,r6,32
   12ad0:	4b ff fb dd 	bl      0x126ac
   12ad4:	7c 69 1b 78 	mr      r9,r3
   12ad8:	4b ff ff c8 	b       0x12aa0
   12adc:	38 e0 00 01 	li      r7,1
   12ae0:	4b ff fe e4 	b       0x129c4
   12ae4:	2f 83 00 80 	cmpwi   cr7,r3,128
   12ae8:	4c 9e 00 20 	bnelr   cr7
   12aec:	81 22 84 f8 	lwz     r9,-31496(r2)
   12af0:	38 00 00 00 	li      r0,0
   12af4:	98 09 00 00 	stb     r0,0(r9)
   12af8:	4e 80 00 20 	blr
   12afc:	81 22 84 f8 	lwz     r9,-31496(r2)
   12b00:	88 69 00 00 	lbz     r3,0(r9)
   12b04:	4e 80 00 20 	blr
   12b08:	81 22 84 f8 	lwz     r9,-31496(r2)
   12b0c:	38 00 00 01 	li      r0,1
   12b10:	90 09 00 04 	stw     r0,4(r9)
   12b14:	4e 80 00 20 	blr
   12b18:	7c 6a 1b 78 	mr      r10,r3
   12b1c:	81 02 85 00 	lwz     r8,-31488(r2)
   12b20:	39 60 00 00 	li      r11,0
   12b24:	48 00 00 10 	b       0x12b34
   12b28:	39 6b 00 01 	addi    r11,r11,1
   12b2c:	2f 8b 00 1f 	cmpwi   cr7,r11,31
   12b30:	41 9d 00 38 	bgt-    cr7,0x12b68
   12b34:	55 60 10 3a 	rlwinm  r0,r11,2,0,29
   12b38:	7c 00 07 b4 	extsw   r0,r0
   12b3c:	7d 28 00 2e 	lwzx    r9,r8,r0
   12b40:	7f 89 50 40 	cmplw   cr7,r9,r10
   12b44:	40 9c ff e4 	bge+    cr7,0x12b28
   12b48:	39 6b 00 01 	addi    r11,r11,1
   12b4c:	55 60 10 3a 	rlwinm  r0,r11,2,0,29
   12b50:	7c 00 07 b4 	extsw   r0,r0
   12b54:	7c 68 00 2e 	lwzx    r3,r8,r0
   12b58:	7f 8a 18 40 	cmplw   cr7,r10,r3
   12b5c:	41 9d ff d0 	bgt+    cr7,0x12b2c
   12b60:	78 63 00 20 	clrldi  r3,r3,32
   12b64:	4e 80 00 20 	blr
   12b68:	38 60 00 00 	li      r3,0
   12b6c:	78 63 00 20 	clrldi  r3,r3,32
   12b70:	4e 80 00 20 	blr
   12b74:	fb a1 ff e8 	std     r29,-24(r1)
   12b78:	7c 08 02 a6 	mflr    r0
   12b7c:	39 60 00 93 	li      r11,147
   12b80:	f8 01 00 10 	std     r0,16(r1)
   12b84:	44 00 00 02 	sc      
   12b88:	83 a2 84 fc 	lwz     r29,-31492(r2)
   12b8c:	e8 01 00 10 	ld      r0,16(r1)
   12b90:	7c 08 03 a6 	mtlr    r0
   12b94:	f8 7d 00 90 	std     r3,144(r29)
   12b98:	eb a1 ff e8 	ld      r29,-24(r1)
   12b9c:	4e 80 00 20 	blr
   12ba0:	7c 64 1b 78 	mr      r4,r3
   12ba4:	7c 08 02 a6 	mflr    r0
   12ba8:	38 a0 00 01 	li      r5,1
   12bac:	f8 01 00 10 	std     r0,16(r1)
   12bb0:	38 60 02 02 	li      r3,514
   12bb4:	38 c0 00 00 	li      r6,0
   12bb8:	38 e0 00 00 	li      r7,0
   12bbc:	39 60 02 a5 	li      r11,677
   12bc0:	44 00 00 02 	sc      
   12bc4:	68 69 00 03 	xori    r9,r3,3
   12bc8:	2f 83 00 02 	cmpwi   cr7,r3,2
   12bcc:	7d 2b fe 70 	srawi   r11,r9,31
   12bd0:	7d 60 4a 78 	xor     r0,r11,r9
   12bd4:	7c 00 58 50 	subf    r0,r0,r11
   12bd8:	7c 00 fe 70 	srawi   r0,r0,31
   12bdc:	60 00 00 01 	ori     r0,r0,1
   12be0:	41 9e 00 14 	beq-    cr7,0x12bf4
   12be4:	7c 03 07 b4 	extsw   r3,r0
   12be8:	e8 01 00 10 	ld      r0,16(r1)
   12bec:	7c 08 03 a6 	mtlr    r0
   12bf0:	4e 80 00 20 	blr
   12bf4:	38 00 00 02 	li      r0,2
   12bf8:	7c 03 07 b4 	extsw   r3,r0
   12bfc:	e8 01 00 10 	ld      r0,16(r1)
   12c00:	7c 08 03 a6 	mtlr    r0
   12c04:	4e 80 00 20 	blr
   12c08:	f8 21 ff 71 	stdu    r1,-144(r1)
   12c0c:	7c 08 02 a6 	mflr    r0
   12c10:	fb a1 00 78 	std     r29,120(r1)
   12c14:	7c 7d 1b 78 	mr      r29,r3
   12c18:	f8 01 00 a0 	std     r0,160(r1)
   12c1c:	4b ff f5 9d 	bl      0x121b8
   12c20:	60 00 00 00 	nop
   12c24:	57 bd 30 32 	rlwinm  r29,r29,6,0,25
   12c28:	2f 83 00 00 	cmpwi   cr7,r3,0
   12c2c:	7c 7d 1a 14 	add     r3,r29,r3
   12c30:	38 00 00 00 	li      r0,0
   12c34:	38 63 10 c0 	addi    r3,r3,4288
   12c38:	41 9e 00 18 	beq-    cr7,0x12c50
   12c3c:	7c 20 04 ac 	lwsync
   12c40:	78 69 00 20 	clrldi  r9,r3,32
   12c44:	80 09 00 00 	lwz     r0,0(r9)
   12c48:	54 00 0f fe 	rlwinm  r0,r0,1,31,31
   12c4c:	68 00 00 01 	xori    r0,r0,1
   12c50:	78 03 07 e0 	clrldi  r3,r0,63
   12c54:	e8 01 00 a0 	ld      r0,160(r1)
   12c58:	eb a1 00 78 	ld      r29,120(r1)
   12c5c:	38 21 00 90 	addi    r1,r1,144
   12c60:	7c 08 03 a6 	mtlr    r0
   12c64:	4e 80 00 20 	blr
   12c68:	38 60 00 01 	li      r3,1
   12c6c:	4b ff ff 9c 	b       0x12c08
   12c70:	f8 21 ff 81 	stdu    r1,-128(r1)
   12c74:	7c 08 02 a6 	mflr    r0
   12c78:	fb e1 00 78 	std     r31,120(r1)
   12c7c:	f8 01 00 90 	std     r0,144(r1)
   12c80:	7c 7f 1b 78 	mr      r31,r3
   12c84:	4b ff f5 35 	bl      0x121b8
   12c88:	60 00 00 00 	nop
   12c8c:	2f 83 00 00 	cmpwi   cr7,r3,0
   12c90:	41 9e 00 30 	beq-    cr7,0x12cc0
   12c94:	4b ff f5 a5 	bl      0x12238
   12c98:	60 00 00 00 	nop
   12c9c:	38 e0 00 00 	li      r7,0
   12ca0:	78 63 00 20 	clrldi  r3,r3,32
   12ca4:	7b e5 00 20 	clrldi  r5,r31,32
   12ca8:	64 e7 80 00 	oris    r7,r7,32768
   12cac:	38 80 01 0a 	li      r4,266
   12cb0:	38 c0 00 00 	li      r6,0
   12cb4:	39 00 00 00 	li      r8,0
   12cb8:	39 60 02 a2 	li      r11,674
   12cbc:	44 00 00 02 	sc      
   12cc0:	e8 01 00 90 	ld      r0,144(r1)
   12cc4:	eb e1 00 78 	ld      r31,120(r1)
   12cc8:	38 21 00 80 	addi    r1,r1,128
   12ccc:	7c 08 03 a6 	mtlr    r0
   12cd0:	4e 80 00 20 	blr
   12cd4:	38 60 00 01 	li      r3,1
   12cd8:	4b ff ff 98 	b       0x12c70
   12cdc:	f8 21 ff 81 	stdu    r1,-128(r1)
   12ce0:	7c 08 02 a6 	mflr    r0
   12ce4:	fb e1 00 78 	std     r31,120(r1)
   12ce8:	f8 01 00 90 	std     r0,144(r1)
   12cec:	7c 7f 1b 78 	mr      r31,r3
   12cf0:	4b ff f4 c9 	bl      0x121b8
   12cf4:	60 00 00 00 	nop
   12cf8:	2f 83 00 00 	cmpwi   cr7,r3,0
   12cfc:	41 9e 00 30 	beq-    cr7,0x12d2c
   12d00:	4b ff f5 39 	bl      0x12238
   12d04:	60 00 00 00 	nop
   12d08:	38 c0 ff ff 	li      r6,-1
   12d0c:	78 63 00 20 	clrldi  r3,r3,32
   12d10:	7b e5 00 20 	clrldi  r5,r31,32
   12d14:	78 c6 00 60 	clrldi  r6,r6,33
   12d18:	38 80 01 0a 	li      r4,266
   12d1c:	38 e0 00 00 	li      r7,0
   12d20:	39 00 00 00 	li      r8,0
   12d24:	39 60 02 a2 	li      r11,674
   12d28:	44 00 00 02 	sc      
   12d2c:	e8 01 00 90 	ld      r0,144(r1)
   12d30:	eb e1 00 78 	ld      r31,120(r1)
   12d34:	38 21 00 80 	addi    r1,r1,128
   12d38:	7c 08 03 a6 	mtlr    r0
   12d3c:	4e 80 00 20 	blr
   12d40:	38 60 00 01 	li      r3,1
   12d44:	4b ff ff 98 	b       0x12cdc
   12d48:	2f 83 00 01 	cmpwi   cr7,r3,1
   12d4c:	7c 08 02 a6 	mflr    r0
   12d50:	f8 21 ff 81 	stdu    r1,-128(r1)
   12d54:	fb c1 00 70 	std     r30,112(r1)
   12d58:	fb e1 00 78 	std     r31,120(r1)
   12d5c:	f8 01 00 90 	std     r0,144(r1)
   12d60:	2f 03 00 03 	cmpwi   cr6,r3,3
   12d64:	78 9f 00 20 	clrldi  r31,r4,32
   12d68:	38 a0 00 01 	li      r5,1
   12d6c:	3b c0 00 01 	li      r30,1
   12d70:	41 9e 00 2c 	beq-    cr7,0x12d9c
   12d74:	38 a0 00 00 	li      r5,0
   12d78:	7f e3 fb 78 	mr      r3,r31
   12d7c:	41 9a 00 20 	beq-    cr6,0x12d9c
   12d80:	4b ff fe 21 	bl      0x12ba0
   12d84:	3b c0 00 03 	li      r30,3
   12d88:	2f 83 00 01 	cmpwi   cr7,r3,1
   12d8c:	38 a0 00 01 	li      r5,1
   12d90:	41 9e 00 0c 	beq-    cr7,0x12d9c
   12d94:	38 a0 00 00 	li      r5,0
   12d98:	3b c0 00 02 	li      r30,2
   12d9c:	38 60 00 02 	li      r3,2
   12da0:	7f e4 fb 78 	mr      r4,r31
   12da4:	38 c0 00 00 	li      r6,0
   12da8:	38 e0 00 00 	li      r7,0
   12dac:	39 60 02 a5 	li      r11,677
   12db0:	44 00 00 02 	sc      
   12db4:	4b ff f4 85 	bl      0x12238
   12db8:	60 00 00 00 	nop
   12dbc:	7f e5 fb 78 	mr      r5,r31
   12dc0:	78 63 00 20 	clrldi  r3,r3,32
   12dc4:	7f c6 f3 78 	mr      r6,r30
   12dc8:	38 80 01 01 	li      r4,257
   12dcc:	38 e0 00 00 	li      r7,0
   12dd0:	39 00 00 00 	li      r8,0
   12dd4:	39 60 02 a2 	li      r11,674
   12dd8:	44 00 00 02 	sc      
   12ddc:	e8 01 00 90 	ld      r0,144(r1)
   12de0:	eb c1 00 70 	ld      r30,112(r1)
   12de4:	eb e1 00 78 	ld      r31,120(r1)
   12de8:	7c 08 03 a6 	mtlr    r0
   12dec:	38 21 00 80 	addi    r1,r1,128
   12df0:	4e 80 00 20 	blr
   12df4:	81 22 84 f8 	lwz     r9,-31496(r2)
   12df8:	80 89 00 08 	lwz     r4,8(r9)
   12dfc:	4b ff ff 4c 	b       0x12d48
   12e00:	f8 21 ff 41 	stdu    r1,-192(r1)
   12e04:	7c 08 02 a6 	mflr    r0
   12e08:	fb 41 00 90 	std     r26,144(r1)
   12e0c:	54 7a 06 3e 	clrlwi  r26,r3,24
   12e10:	fa c1 00 70 	std     r22,112(r1)
   12e14:	2b 9a 00 07 	cmplwi  cr7,r26,7
   12e18:	fa e1 00 78 	std     r23,120(r1)
   12e1c:	fb 01 00 80 	std     r24,128(r1)
   12e20:	fb 21 00 88 	std     r25,136(r1)
   12e24:	fb 81 00 a0 	std     r28,160(r1)
   12e28:	fb 61 00 98 	std     r27,152(r1)
   12e2c:	fb a1 00 a8 	std     r29,168(r1)
   12e30:	fb c1 00 b0 	std     r30,176(r1)
   12e34:	fb e1 00 b8 	std     r31,184(r1)
   12e38:	f8 01 00 d0 	std     r0,208(r1)
   12e3c:	7c 7c 1b 78 	mr      r28,r3
   12e40:	7c 97 23 78 	mr      r23,r4
   12e44:	7c b6 2b 78 	mr      r22,r5
   12e48:	7c d9 33 78 	mr      r25,r6
   12e4c:	7c f8 3b 78 	mr      r24,r7
   12e50:	40 dd 00 48 	ble-    cr7,0x12e98
   12e54:	3c 60 80 21 	lis     r3,-32735
   12e58:	60 63 00 ff 	ori     r3,r3,255
   12e5c:	e8 01 00 d0 	ld      r0,208(r1)
   12e60:	7c 63 07 b4 	extsw   r3,r3
   12e64:	ea c1 00 70 	ld      r22,112(r1)
   12e68:	ea e1 00 78 	ld      r23,120(r1)
   12e6c:	7c 08 03 a6 	mtlr    r0
   12e70:	eb 01 00 80 	ld      r24,128(r1)
   12e74:	eb 21 00 88 	ld      r25,136(r1)
   12e78:	eb 41 00 90 	ld      r26,144(r1)
   12e7c:	eb 61 00 98 	ld      r27,152(r1)
   12e80:	eb 81 00 a0 	ld      r28,160(r1)
   12e84:	eb a1 00 a8 	ld      r29,168(r1)
   12e88:	eb c1 00 b0 	ld      r30,176(r1)
   12e8c:	eb e1 00 b8 	ld      r31,184(r1)
   12e90:	38 21 00 c0 	addi    r1,r1,192
   12e94:	4e 80 00 20 	blr
   12e98:	4b ff f3 a1 	bl      0x12238
   12e9c:	60 00 00 00 	nop
   12ea0:	7b 29 07 c6 	rldicr  r9,r25,32,31
   12ea4:	7b 06 00 20 	clrldi  r6,r24,32
   12ea8:	7a c0 07 c6 	rldicr  r0,r22,32,31
   12eac:	7a e7 00 20 	clrldi  r7,r23,32
   12eb0:	7d 26 33 78 	or      r6,r9,r6
   12eb4:	7c 07 3b 78 	or      r7,r0,r7
   12eb8:	78 63 00 20 	clrldi  r3,r3,32
   12ebc:	7b 85 06 20 	clrldi  r5,r28,56
   12ec0:	38 80 01 04 	li      r4,260
   12ec4:	39 00 00 00 	li      r8,0
   12ec8:	39 60 02 a2 	li      r11,674
   12ecc:	44 00 00 02 	sc      
   12ed0:	2f 83 00 00 	cmpwi   cr7,r3,0
   12ed4:	57 40 25 36 	rlwinm  r0,r26,4,20,27
   12ed8:	38 60 00 00 	li      r3,0
   12edc:	40 9e ff 78 	bne+    cr7,0x12e54
   12ee0:	81 62 84 fc 	lwz     r11,-31492(r2)
   12ee4:	7d 20 5a 14 	add     r9,r0,r11
   12ee8:	7e eb 01 2e 	stwx    r23,r11,r0
   12eec:	93 29 00 08 	stw     r25,8(r9)
   12ef0:	92 c9 00 04 	stw     r22,4(r9)
   12ef4:	93 09 00 0c 	stw     r24,12(r9)
   12ef8:	4b ff ff 64 	b       0x12e5c
   12efc:	f8 21 ff 91 	stdu    r1,-112(r1)
   12f00:	7c 08 02 a6 	mflr    r0
   12f04:	f8 01 00 80 	std     r0,128(r1)
   12f08:	48 00 0c d1 	bl      0x13bd8
   12f0c:	60 00 00 00 	nop
   12f10:	e8 01 00 80 	ld      r0,128(r1)
   12f14:	38 21 00 70 	addi    r1,r1,112
   12f18:	7c 08 03 a6 	mtlr    r0
   12f1c:	4e 80 00 20 	blr
   12f20:	f8 21 ff 71 	stdu    r1,-144(r1)
   12f24:	7c 08 02 a6 	mflr    r0
   12f28:	fb a1 00 78 	std     r29,120(r1)
   12f2c:	7c 7d 1b 78 	mr      r29,r3
   12f30:	f8 01 00 a0 	std     r0,160(r1)
   12f34:	4b ff f2 79 	bl      0x121ac
   12f38:	60 00 00 00 	nop
   12f3c:	e8 01 00 a0 	ld      r0,160(r1)
   12f40:	78 65 00 20 	clrldi  r5,r3,32
   12f44:	38 80 00 03 	li      r4,3
   12f48:	7c 08 03 a6 	mtlr    r0
   12f4c:	7b a3 00 20 	clrldi  r3,r29,32
   12f50:	eb a1 00 78 	ld      r29,120(r1)
   12f54:	38 21 00 90 	addi    r1,r1,144
   12f58:	4b ff ff a4 	b       0x12efc
   12f5c:	f8 21 ff 91 	stdu    r1,-112(r1)
   12f60:	7c 08 02 a6 	mflr    r0
   12f64:	81 62 84 f8 	lwz     r11,-31496(r2)
   12f68:	39 20 00 01 	li      r9,1
   12f6c:	80 e2 84 fc 	lwz     r7,-31492(r2)
   12f70:	39 00 00 00 	li      r8,0
   12f74:	f8 01 00 80 	std     r0,128(r1)
   12f78:	38 00 00 08 	li      r0,8
   12f7c:	39 47 00 88 	addi    r10,r7,136
   12f80:	7c 09 03 a6 	mtctr   r0
   12f84:	38 00 00 00 	li      r0,0
   12f88:	91 2b 00 04 	stw     r9,4(r11)
   12f8c:	f8 07 00 90 	std     r0,144(r7)
   12f90:	91 2b 00 08 	stw     r9,8(r11)
   12f94:	79 49 00 20 	clrldi  r9,r10,32
   12f98:	39 4a 00 01 	addi    r10,r10,1
   12f9c:	99 09 00 00 	stb     r8,0(r9)
   12fa0:	42 00 ff f4 	bdnz+   0x12f94
   12fa4:	38 00 00 00 	li      r0,0
   12fa8:	7c e3 3b 78 	mr      r3,r7
   12fac:	38 80 00 00 	li      r4,0
   12fb0:	38 a0 00 80 	li      r5,128
   12fb4:	90 07 00 80 	stw     r0,128(r7)
   12fb8:	90 07 00 84 	stw     r0,132(r7)
   12fbc:	48 04 a7 a1 	bl      0x5d75c
   12fc0:	60 00 00 00 	nop
   12fc4:	e8 01 00 80 	ld      r0,128(r1)
   12fc8:	38 21 00 70 	addi    r1,r1,112
   12fcc:	7c 08 03 a6 	mtlr    r0
   12fd0:	4e 80 00 20 	blr
   12fd4:	80 62 85 04 	lwz     r3,-31484(r2)
   12fd8:	38 80 00 00 	li      r4,0
   12fdc:	38 a0 00 f0 	li      r5,240
   12fe0:	7c 08 02 a6 	mflr    r0
   12fe4:	f8 21 ff 91 	stdu    r1,-112(r1)
   12fe8:	f8 01 00 80 	std     r0,128(r1)
   12fec:	48 04 a7 71 	bl      0x5d75c
   12ff0:	60 00 00 00 	nop
   12ff4:	e8 01 00 80 	ld      r0,128(r1)
   12ff8:	38 21 00 70 	addi    r1,r1,112
   12ffc:	7c 08 03 a6 	mtlr    r0
   13000:	4e 80 00 20 	blr
   13004:	80 62 85 08 	lwz     r3,-31480(r2)
   13008:	38 80 00 00 	li      r4,0
   1300c:	38 a0 00 c0 	li      r5,192
   13010:	7c 08 02 a6 	mflr    r0
   13014:	f8 21 ff 91 	stdu    r1,-112(r1)
   13018:	f8 01 00 80 	std     r0,128(r1)
   1301c:	48 04 a7 41 	bl      0x5d75c
   13020:	60 00 00 00 	nop
   13024:	e8 01 00 80 	ld      r0,128(r1)
   13028:	38 21 00 70 	addi    r1,r1,112
   1302c:	7c 08 03 a6 	mtlr    r0
   13030:	4e 80 00 20 	blr
   13034:	f8 21 ff 71 	stdu    r1,-144(r1)
   13038:	7c 08 02 a6 	mflr    r0
   1303c:	fb a1 00 78 	std     r29,120(r1)
   13040:	7c 7d 1b 78 	mr      r29,r3
   13044:	f8 01 00 a0 	std     r0,160(r1)
   13048:	4b ff f1 95 	bl      0x121dc
   1304c:	60 00 00 00 	nop
   13050:	e8 01 00 a0 	ld      r0,160(r1)
   13054:	57 bd 25 36 	rlwinm  r29,r29,4,20,27
   13058:	7c 08 03 a6 	mtlr    r0
   1305c:	7c 63 ea 14 	add     r3,r3,r29
   13060:	eb a1 00 78 	ld      r29,120(r1)
   13064:	38 21 00 90 	addi    r1,r1,144
   13068:	78 63 00 20 	clrldi  r3,r3,32
   1306c:	4e 80 00 20 	blr
   13070:	81 22 85 10 	lwz     r9,-31472(r2)
   13074:	80 69 00 10 	lwz     r3,16(r9)
   13078:	4e 80 00 20 	blr
   1307c:	f8 21 ff 71 	stdu    r1,-144(r1)
   13080:	7c 08 02 a6 	mflr    r0
   13084:	fb e1 00 88 	std     r31,136(r1)
   13088:	83 e2 85 10 	lwz     r31,-31472(r2)
   1308c:	7c 67 1b 78 	mr      r7,r3
   13090:	f8 01 00 a0 	std     r0,160(r1)
   13094:	fb 81 00 70 	std     r28,112(r1)
   13098:	fb a1 00 78 	std     r29,120(r1)
   1309c:	fb c1 00 80 	std     r30,128(r1)
   130a0:	81 7f 00 4c 	lwz     r11,76(r31)
   130a4:	54 c6 f0 be 	rlwinm  r6,r6,30,2,31
   130a8:	2f 8b 00 01 	cmpwi   cr7,r11,1
   130ac:	41 9e 01 08 	beq-    cr7,0x131b4
   130b0:	2f 8b 00 02 	cmpwi   cr7,r11,2
   130b4:	41 9e 01 34 	beq-    cr7,0x131e8
   130b8:	2f 8b 00 00 	cmpwi   cr7,r11,0
   130bc:	3c 60 80 21 	lis     r3,-32735
   130c0:	60 63 00 ff 	ori     r3,r3,255
   130c4:	40 9e 00 cc 	bne-    cr7,0x13190
   130c8:	54 a5 f0 be 	rlwinm  r5,r5,30,2,31
   130cc:	83 82 85 1c 	lwz     r28,-31460(r2)
   130d0:	54 c0 10 3a 	rlwinm  r0,r6,2,0,29
   130d4:	54 aa 00 24 	rlwinm  r10,r5,0,0,18
   130d8:	7f c4 02 14 	add     r30,r4,r0
   130dc:	55 49 10 3a 	rlwinm  r9,r10,2,0,29
   130e0:	3b a4 7f fc 	addi    r29,r4,32764
   130e4:	7d 24 4a 14 	add     r9,r4,r9
   130e8:	39 00 00 01 	li      r8,1
   130ec:	38 09 ff fc 	addi    r0,r9,-4
   130f0:	55 4b 9b 7e 	rlwinm  r11,r10,19,13,31
   130f4:	39 20 00 00 	li      r9,0
   130f8:	90 1f 00 18 	stw     r0,24(r31)
   130fc:	38 00 20 00 	li      r0,8192
   13100:	90 ff 00 10 	stw     r7,16(r31)
   13104:	90 9f 00 14 	stw     r4,20(r31)
   13108:	90 bf 00 2c 	stw     r5,44(r31)
   1310c:	90 df 00 28 	stw     r6,40(r31)
   13110:	90 1f 00 30 	stw     r0,48(r31)
   13114:	91 1f 00 38 	stw     r8,56(r31)
   13118:	91 7f 00 34 	stw     r11,52(r31)
   1311c:	91 3f 00 40 	stw     r9,64(r31)
   13120:	91 5f 00 24 	stw     r10,36(r31)
   13124:	91 3f 00 3c 	stw     r9,60(r31)
   13128:	4b ff f0 b5 	bl      0x121dc
   1312c:	60 00 00 00 	nop
   13130:	81 62 85 0c 	lwz     r11,-31476(r2)
   13134:	81 3f 00 34 	lwz     r9,52(r31)
   13138:	39 03 00 20 	addi    r8,r3,32
   1313c:	39 29 ff ff 	addi    r9,r9,-1
   13140:	7b c3 00 20 	clrldi  r3,r30,32
   13144:	81 4b 00 00 	lwz     r10,0(r11)
   13148:	38 9f 00 1c 	addi    r4,r31,28
   1314c:	93 bf 00 04 	stw     r29,4(r31)
   13150:	91 28 00 00 	stw     r9,0(r8)
   13154:	93 9f 00 0c 	stw     r28,12(r31)
   13158:	91 1f 00 44 	stw     r8,68(r31)
   1315c:	93 ea 00 00 	stw     r31,0(r10)
   13160:	93 df 00 00 	stw     r30,0(r31)
   13164:	93 df 00 08 	stw     r30,8(r31)
   13168:	48 00 05 bd 	bl      0x13724
   1316c:	60 00 00 00 	nop
   13170:	2f 83 00 00 	cmpwi   cr7,r3,0
   13174:	40 9e 00 1c 	bne-    cr7,0x13190
   13178:	80 7f 00 18 	lwz     r3,24(r31)
   1317c:	38 9f 00 20 	addi    r4,r31,32
   13180:	48 00 05 a5 	bl      0x13724
   13184:	60 00 00 00 	nop
   13188:	2f 83 00 00 	cmpwi   cr7,r3,0
   1318c:	41 9e 00 90 	beq-    cr7,0x1321c
   13190:	e8 01 00 a0 	ld      r0,160(r1)
   13194:	7c 63 07 b4 	extsw   r3,r3
   13198:	eb 81 00 70 	ld      r28,112(r1)
   1319c:	eb a1 00 78 	ld      r29,120(r1)
   131a0:	7c 08 03 a6 	mtlr    r0
   131a4:	eb c1 00 80 	ld      r30,128(r1)
   131a8:	eb e1 00 88 	ld      r31,136(r1)
   131ac:	38 21 00 90 	addi    r1,r1,144
   131b0:	4e 80 00 20 	blr
   131b4:	54 a0 f0 be 	rlwinm  r0,r5,30,2,31
   131b8:	83 82 85 14 	lwz     r28,-31468(r2)
   131bc:	54 c9 10 3a 	rlwinm  r9,r6,2,0,29
   131c0:	7c a6 00 50 	subf    r5,r6,r0
   131c4:	7c 89 22 14 	add     r4,r9,r4
   131c8:	54 aa 00 24 	rlwinm  r10,r5,0,0,18
   131cc:	3b a4 7f e8 	addi    r29,r4,32744
   131d0:	55 49 10 3a 	rlwinm  r9,r10,2,0,29
   131d4:	7c 9e 23 78 	mr      r30,r4
   131d8:	7d 24 4a 14 	add     r9,r4,r9
   131dc:	39 00 00 06 	li      r8,6
   131e0:	38 09 ff e8 	addi    r0,r9,-24
   131e4:	4b ff ff 0c 	b       0x130f0
   131e8:	54 a0 f0 be 	rlwinm  r0,r5,30,2,31
   131ec:	83 82 85 18 	lwz     r28,-31464(r2)
   131f0:	54 c9 10 3a 	rlwinm  r9,r6,2,0,29
   131f4:	7c a6 00 50 	subf    r5,r6,r0
   131f8:	7c 89 22 14 	add     r4,r9,r4
   131fc:	54 aa 00 24 	rlwinm  r10,r5,0,0,18
   13200:	3b a4 7f e8 	addi    r29,r4,32744
   13204:	55 49 10 3a 	rlwinm  r9,r10,2,0,29
   13208:	7c 9e 23 78 	mr      r30,r4
   1320c:	7d 24 4a 14 	add     r9,r4,r9
   13210:	39 00 00 06 	li      r8,6
   13214:	38 09 ff e8 	addi    r0,r9,-24
   13218:	4b ff fe d8 	b       0x130f0
   1321c:	4b ff f0 1d 	bl      0x12238
   13220:	60 00 00 00 	nop
   13224:	80 bf 00 1c 	lwz     r5,28(r31)
   13228:	78 63 00 20 	clrldi  r3,r3,32
   1322c:	38 80 00 01 	li      r4,1
   13230:	7c a6 2b 78 	mr      r6,r5
   13234:	38 e0 00 00 	li      r7,0
   13238:	39 00 00 00 	li      r8,0
   1323c:	39 60 02 a2 	li      r11,674
   13240:	44 00 00 02 	sc      
   13244:	2f 83 00 00 	cmpwi   cr7,r3,0
   13248:	40 9e ff 48 	bne+    cr7,0x13190
   1324c:	38 00 00 01 	li      r0,1
   13250:	eb 81 00 70 	ld      r28,112(r1)
   13254:	7c 63 07 b4 	extsw   r3,r3
   13258:	eb a1 00 78 	ld      r29,120(r1)
   1325c:	90 1f 00 48 	stw     r0,72(r31)
   13260:	e8 01 00 a0 	ld      r0,160(r1)
   13264:	eb c1 00 80 	ld      r30,128(r1)
   13268:	eb e1 00 88 	ld      r31,136(r1)
   1326c:	7c 08 03 a6 	mtlr    r0
   13270:	38 21 00 90 	addi    r1,r1,144
   13274:	4e 80 00 20 	blr
   13278:	f8 21 ff 61 	stdu    r1,-160(r1)
   1327c:	7c 08 02 a6 	mflr    r0
   13280:	fb a1 00 88 	std     r29,136(r1)
   13284:	7c 7d 1b 78 	mr      r29,r3
   13288:	fb e1 00 98 	std     r31,152(r1)
   1328c:	f8 01 00 b0 	std     r0,176(r1)
   13290:	fb 81 00 80 	std     r28,128(r1)
   13294:	fb c1 00 90 	std     r30,144(r1)
   13298:	48 00 26 e5 	bl      0x1597c
   1329c:	60 00 00 00 	nop
   132a0:	81 5d 00 08 	lwz     r10,8(r29)
   132a4:	83 e2 85 10 	lwz     r31,-31472(r2)
   132a8:	3d 20 00 04 	lis     r9,4
   132ac:	38 8a 00 08 	addi    r4,r10,8
   132b0:	38 ea 00 0c 	addi    r7,r10,12
   132b4:	39 0a 00 04 	addi    r8,r10,4
   132b8:	78 85 00 20 	clrldi  r5,r4,32
   132bc:	78 e7 00 20 	clrldi  r7,r7,32
   132c0:	80 df 00 3c 	lwz     r6,60(r31)
   132c4:	79 08 00 20 	clrldi  r8,r8,32
   132c8:	79 4a 00 20 	clrldi  r10,r10,32
   132cc:	3d 60 00 04 	lis     r11,4
   132d0:	61 29 00 64 	ori     r9,r9,100
   132d4:	61 6b 00 6c 	ori     r11,r11,108
   132d8:	38 00 00 20 	li      r0,32
   132dc:	91 2a 00 00 	stw     r9,0(r10)
   132e0:	90 08 00 00 	stw     r0,0(r8)
   132e4:	91 65 00 00 	stw     r11,0(r5)
   132e8:	90 c7 00 00 	stw     r6,0(r7)
   132ec:	81 3f 00 3c 	lwz     r9,60(r31)
   132f0:	38 84 00 08 	addi    r4,r4,8
   132f4:	81 7f 00 34 	lwz     r11,52(r31)
   132f8:	39 29 00 01 	addi    r9,r9,1
   132fc:	90 9d 00 08 	stw     r4,8(r29)
   13300:	7c 09 5b 96 	divwu   r0,r9,r11
   13304:	7c 00 59 d6 	mullw   r0,r0,r11
   13308:	7d 20 48 50 	subf    r9,r0,r9
   1330c:	2f 89 00 00 	cmpwi   cr7,r9,0
   13310:	91 3f 00 3c 	stw     r9,60(r31)
   13314:	40 9e 00 c8 	bne-    cr7,0x133dc
   13318:	80 1f 00 30 	lwz     r0,48(r31)
   1331c:	83 df 00 14 	lwz     r30,20(r31)
   13320:	54 00 10 3a 	rlwinm  r0,r0,2,0,29
   13324:	81 3f 00 38 	lwz     r9,56(r31)
   13328:	7c 1e 02 14 	add     r0,r30,r0
   1332c:	55 29 10 3a 	rlwinm  r9,r9,2,0,29
   13330:	7f 89 00 50 	subf    r28,r9,r0
   13334:	7b c3 00 20 	clrldi  r3,r30,32
   13338:	38 81 00 70 	addi    r4,r1,112
   1333c:	48 00 03 e9 	bl      0x13724
   13340:	60 00 00 00 	nop
   13344:	81 3d 00 08 	lwz     r9,8(r29)
   13348:	80 01 00 70 	lwz     r0,112(r1)
   1334c:	79 2b 00 20 	clrldi  r11,r9,32
   13350:	64 00 20 00 	oris    r0,r0,8192
   13354:	39 29 00 04 	addi    r9,r9,4
   13358:	91 3d 00 08 	stw     r9,8(r29)
   1335c:	90 0b 00 00 	stw     r0,0(r11)
   13360:	93 9d 00 04 	stw     r28,4(r29)
   13364:	93 dd 00 08 	stw     r30,8(r29)
   13368:	93 dd 00 00 	stw     r30,0(r29)
   1336c:	81 3f 00 44 	lwz     r9,68(r31)
   13370:	81 7f 00 40 	lwz     r11,64(r31)
   13374:	80 09 00 00 	lwz     r0,0(r9)
   13378:	7f 80 58 00 	cmpw    cr7,r0,r11
   1337c:	40 9e 00 24 	bne-    cr7,0x133a0
   13380:	38 60 00 1e 	li      r3,30
   13384:	39 60 00 8d 	li      r11,141
   13388:	44 00 00 02 	sc      
   1338c:	83 bf 00 44 	lwz     r29,68(r31)
   13390:	81 7f 00 40 	lwz     r11,64(r31)
   13394:	80 1d 00 00 	lwz     r0,0(r29)
   13398:	7f 80 58 00 	cmpw    cr7,r0,r11
   1339c:	41 9e ff e4 	beq+    cr7,0x13380
   133a0:	38 0b 00 01 	addi    r0,r11,1
   133a4:	81 7f 00 34 	lwz     r11,52(r31)
   133a8:	38 60 00 00 	li      r3,0
   133ac:	eb 81 00 80 	ld      r28,128(r1)
   133b0:	eb a1 00 88 	ld      r29,136(r1)
   133b4:	eb c1 00 90 	ld      r30,144(r1)
   133b8:	7d 20 5b 96 	divwu   r9,r0,r11
   133bc:	7d 29 59 d6 	mullw   r9,r9,r11
   133c0:	7c 09 00 50 	subf    r0,r9,r0
   133c4:	90 1f 00 40 	stw     r0,64(r31)
   133c8:	e8 01 00 b0 	ld      r0,176(r1)
   133cc:	eb e1 00 98 	ld      r31,152(r1)
   133d0:	38 21 00 a0 	addi    r1,r1,160
   133d4:	7c 08 03 a6 	mtlr    r0
   133d8:	4e 80 00 20 	blr
   133dc:	80 1f 00 38 	lwz     r0,56(r31)
   133e0:	81 7d 00 04 	lwz     r11,4(r29)
   133e4:	54 00 10 3a 	rlwinm  r0,r0,2,0,29
   133e8:	81 3f 00 30 	lwz     r9,48(r31)
   133ec:	7f c0 5a 14 	add     r30,r0,r11
   133f0:	55 29 10 3a 	rlwinm  r9,r9,2,0,29
   133f4:	7c 04 f0 50 	subf    r0,r4,r30
   133f8:	7f 89 5a 14 	add     r28,r9,r11
   133fc:	2b 80 03 83 	cmplwi  cr7,r0,899
   13400:	41 9d ff 34 	bgt+    cr7,0x13334
   13404:	54 09 f0 be 	rlwinm  r9,r0,30,2,31
   13408:	78 8a 00 20 	clrldi  r10,r4,32
   1340c:	39 29 ff ff 	addi    r9,r9,-1
   13410:	55 2b 10 3a 	rlwinm  r11,r9,2,0,29
   13414:	55 29 90 1a 	rlwinm  r9,r9,18,0,13
   13418:	7d 64 5a 14 	add     r11,r4,r11
   1341c:	65 29 40 00 	oris    r9,r9,16384
   13420:	39 6b 00 04 	addi    r11,r11,4
   13424:	61 29 01 00 	ori     r9,r9,256
   13428:	91 7d 00 08 	stw     r11,8(r29)
   1342c:	91 2a 00 00 	stw     r9,0(r10)
   13430:	4b ff ff 30 	b       0x13360
   13434:	f8 21 ff 61 	stdu    r1,-160(r1)
   13438:	7c 08 02 a6 	mflr    r0
   1343c:	fb 81 00 80 	std     r28,128(r1)
   13440:	fb e1 00 98 	std     r31,152(r1)
   13444:	f8 01 00 b0 	std     r0,176(r1)
   13448:	7c 7c 1b 78 	mr      r28,r3
   1344c:	fb a1 00 88 	std     r29,136(r1)
   13450:	fb c1 00 90 	std     r30,144(r1)
   13454:	48 00 25 29 	bl      0x1597c
   13458:	60 00 00 00 	nop
   1345c:	83 e2 85 10 	lwz     r31,-31472(r2)
   13460:	80 7c 00 04 	lwz     r3,4(r28)
   13464:	80 1f 00 18 	lwz     r0,24(r31)
   13468:	7f 80 18 00 	cmpw    cr7,r0,r3
   1346c:	41 9e 00 d0 	beq-    cr7,0x1353c
   13470:	81 3f 00 30 	lwz     r9,48(r31)
   13474:	3b c3 00 04 	addi    r30,r3,4
   13478:	80 1f 00 38 	lwz     r0,56(r31)
   1347c:	55 29 10 3a 	rlwinm  r9,r9,2,0,29
   13480:	54 00 10 3a 	rlwinm  r0,r0,2,0,29
   13484:	7d 3e 4a 14 	add     r9,r30,r9
   13488:	7f a0 48 50 	subf    r29,r0,r9
   1348c:	38 81 00 70 	addi    r4,r1,112
   13490:	7b c3 00 20 	clrldi  r3,r30,32
   13494:	48 00 02 91 	bl      0x13724
   13498:	60 00 00 00 	nop
   1349c:	7b a3 00 20 	clrldi  r3,r29,32
   134a0:	38 81 00 74 	addi    r4,r1,116
   134a4:	48 00 02 81 	bl      0x13724
   134a8:	60 00 00 00 	nop
   134ac:	81 3c 00 08 	lwz     r9,8(r28)
   134b0:	80 01 00 70 	lwz     r0,112(r1)
   134b4:	81 7f 00 10 	lwz     r11,16(r31)
   134b8:	64 00 20 00 	oris    r0,r0,8192
   134bc:	93 bc 00 04 	stw     r29,4(r28)
   134c0:	90 09 00 00 	stw     r0,0(r9)
   134c4:	93 dc 00 08 	stw     r30,8(r28)
   134c8:	81 2b 00 04 	lwz     r9,4(r11)
   134cc:	93 dc 00 00 	stw     r30,0(r28)
   134d0:	48 00 00 10 	b       0x134e0
   134d4:	44 00 00 02 	sc      
   134d8:	83 bf 00 10 	lwz     r29,16(r31)
   134dc:	81 3d 00 04 	lwz     r9,4(r29)
   134e0:	80 01 00 70 	lwz     r0,112(r1)
   134e4:	38 60 00 1e 	li      r3,30
   134e8:	39 60 00 8d 	li      r11,141
   134ec:	7f 89 00 40 	cmplw   cr7,r9,r0
   134f0:	41 9c 00 10 	blt-    cr7,0x13500
   134f4:	80 01 00 74 	lwz     r0,116(r1)
   134f8:	7f 89 00 40 	cmplw   cr7,r9,r0
   134fc:	40 9d ff d8 	ble+    cr7,0x134d4
   13500:	80 1f 00 1c 	lwz     r0,28(r31)
   13504:	7f 80 48 40 	cmplw   cr7,r0,r9
   13508:	41 9d ff cc 	bgt+    cr7,0x134d4
   1350c:	80 1f 00 20 	lwz     r0,32(r31)
   13510:	7f 80 48 40 	cmplw   cr7,r0,r9
   13514:	41 9c ff c0 	blt+    cr7,0x134d4
   13518:	e8 01 00 b0 	ld      r0,176(r1)
   1351c:	38 60 00 00 	li      r3,0
   13520:	eb 81 00 80 	ld      r28,128(r1)
   13524:	eb a1 00 88 	ld      r29,136(r1)
   13528:	7c 08 03 a6 	mtlr    r0
   1352c:	eb c1 00 90 	ld      r30,144(r1)
   13530:	eb e1 00 98 	ld      r31,152(r1)
   13534:	38 21 00 a0 	addi    r1,r1,160
   13538:	4e 80 00 20 	blr
   1353c:	81 7f 00 30 	lwz     r11,48(r31)
   13540:	81 5f 00 14 	lwz     r10,20(r31)
   13544:	80 1f 00 28 	lwz     r0,40(r31)
   13548:	55 6b 10 3a 	rlwinm  r11,r11,2,0,29
   1354c:	81 3f 00 38 	lwz     r9,56(r31)
   13550:	7d 6a 5a 14 	add     r11,r10,r11
   13554:	54 00 10 3a 	rlwinm  r0,r0,2,0,29
   13558:	55 29 10 3a 	rlwinm  r9,r9,2,0,29
   1355c:	7f ca 02 14 	add     r30,r10,r0
   13560:	7f a9 58 50 	subf    r29,r9,r11
   13564:	4b ff ff 28 	b       0x1348c
   13568:	f8 21 ff 61 	stdu    r1,-160(r1)
   1356c:	7c 08 02 a6 	mflr    r0
   13570:	fb a1 00 88 	std     r29,136(r1)
   13574:	7c 7d 1b 78 	mr      r29,r3
   13578:	fb e1 00 98 	std     r31,152(r1)
   1357c:	f8 01 00 b0 	std     r0,176(r1)
   13580:	fb 81 00 80 	std     r28,128(r1)
   13584:	fb c1 00 90 	std     r30,144(r1)
   13588:	48 00 23 f5 	bl      0x1597c
   1358c:	60 00 00 00 	nop
   13590:	81 5d 00 08 	lwz     r10,8(r29)
   13594:	83 e2 85 10 	lwz     r31,-31472(r2)
   13598:	3d 20 00 04 	lis     r9,4
   1359c:	38 8a 00 08 	addi    r4,r10,8
   135a0:	38 ea 00 0c 	addi    r7,r10,12
   135a4:	39 0a 00 04 	addi    r8,r10,4
   135a8:	78 85 00 20 	clrldi  r5,r4,32
   135ac:	78 e7 00 20 	clrldi  r7,r7,32
   135b0:	80 df 00 3c 	lwz     r6,60(r31)
   135b4:	79 08 00 20 	clrldi  r8,r8,32
   135b8:	79 4a 00 20 	clrldi  r10,r10,32
   135bc:	3d 60 00 04 	lis     r11,4
   135c0:	61 29 1d 6c 	ori     r9,r9,7532
   135c4:	61 6b 1d 74 	ori     r11,r11,7540
   135c8:	38 00 00 20 	li      r0,32
   135cc:	91 2a 00 00 	stw     r9,0(r10)
   135d0:	90 08 00 00 	stw     r0,0(r8)
   135d4:	91 65 00 00 	stw     r11,0(r5)
   135d8:	90 c7 00 00 	stw     r6,0(r7)
   135dc:	81 3f 00 3c 	lwz     r9,60(r31)
   135e0:	38 84 00 08 	addi    r4,r4,8
   135e4:	81 7f 00 34 	lwz     r11,52(r31)
   135e8:	39 29 00 01 	addi    r9,r9,1
   135ec:	90 9d 00 08 	stw     r4,8(r29)
   135f0:	7c 09 5b 96 	divwu   r0,r9,r11
   135f4:	7c 00 59 d6 	mullw   r0,r0,r11
   135f8:	7d 20 48 50 	subf    r9,r0,r9
   135fc:	2f 89 00 00 	cmpwi   cr7,r9,0
   13600:	91 3f 00 3c 	stw     r9,60(r31)
   13604:	40 9e 00 c8 	bne-    cr7,0x136cc
   13608:	80 1f 00 30 	lwz     r0,48(r31)
   1360c:	83 df 00 14 	lwz     r30,20(r31)
   13610:	54 00 10 3a 	rlwinm  r0,r0,2,0,29
   13614:	81 3f 00 38 	lwz     r9,56(r31)
   13618:	7c 1e 02 14 	add     r0,r30,r0
   1361c:	55 29 10 3a 	rlwinm  r9,r9,2,0,29
   13620:	7f 89 00 50 	subf    r28,r9,r0
   13624:	7b c3 00 20 	clrldi  r3,r30,32
   13628:	38 81 00 70 	addi    r4,r1,112
   1362c:	48 00 00 f9 	bl      0x13724
   13630:	60 00 00 00 	nop
   13634:	81 3d 00 08 	lwz     r9,8(r29)
   13638:	80 01 00 70 	lwz     r0,112(r1)
   1363c:	79 2b 00 20 	clrldi  r11,r9,32
   13640:	64 00 20 00 	oris    r0,r0,8192
   13644:	39 29 00 04 	addi    r9,r9,4
   13648:	91 3d 00 08 	stw     r9,8(r29)
   1364c:	90 0b 00 00 	stw     r0,0(r11)
   13650:	93 9d 00 04 	stw     r28,4(r29)
   13654:	93 dd 00 08 	stw     r30,8(r29)
   13658:	93 dd 00 00 	stw     r30,0(r29)
   1365c:	81 3f 00 44 	lwz     r9,68(r31)
   13660:	81 7f 00 40 	lwz     r11,64(r31)
   13664:	80 09 00 00 	lwz     r0,0(r9)
   13668:	7f 80 58 00 	cmpw    cr7,r0,r11
   1366c:	40 9e 00 24 	bne-    cr7,0x13690
   13670:	38 60 00 1e 	li      r3,30
   13674:	39 60 00 8d 	li      r11,141
   13678:	44 00 00 02 	sc      
   1367c:	83 bf 00 44 	lwz     r29,68(r31)
   13680:	81 7f 00 40 	lwz     r11,64(r31)
   13684:	80 1d 00 00 	lwz     r0,0(r29)
   13688:	7f 80 58 00 	cmpw    cr7,r0,r11
   1368c:	41 9e ff e4 	beq+    cr7,0x13670
   13690:	38 0b 00 01 	addi    r0,r11,1
   13694:	81 7f 00 34 	lwz     r11,52(r31)
   13698:	38 60 00 00 	li      r3,0
   1369c:	eb 81 00 80 	ld      r28,128(r1)
   136a0:	eb a1 00 88 	ld      r29,136(r1)
   136a4:	eb c1 00 90 	ld      r30,144(r1)
   136a8:	7d 20 5b 96 	divwu   r9,r0,r11
   136ac:	7d 29 59 d6 	mullw   r9,r9,r11
   136b0:	7c 09 00 50 	subf    r0,r9,r0
   136b4:	90 1f 00 40 	stw     r0,64(r31)
   136b8:	e8 01 00 b0 	ld      r0,176(r1)
   136bc:	eb e1 00 98 	ld      r31,152(r1)
   136c0:	38 21 00 a0 	addi    r1,r1,160
   136c4:	7c 08 03 a6 	mtlr    r0
   136c8:	4e 80 00 20 	blr
   136cc:	80 1f 00 38 	lwz     r0,56(r31)
   136d0:	81 7d 00 04 	lwz     r11,4(r29)
   136d4:	54 00 10 3a 	rlwinm  r0,r0,2,0,29
   136d8:	81 3f 00 30 	lwz     r9,48(r31)
   136dc:	7f c0 5a 14 	add     r30,r0,r11
   136e0:	55 29 10 3a 	rlwinm  r9,r9,2,0,29
   136e4:	7c 04 f0 50 	subf    r0,r4,r30
   136e8:	7f 89 5a 14 	add     r28,r9,r11
   136ec:	2b 80 03 83 	cmplwi  cr7,r0,899
   136f0:	41 9d ff 34 	bgt+    cr7,0x13624
   136f4:	54 09 f0 be 	rlwinm  r9,r0,30,2,31
   136f8:	78 8a 00 20 	clrldi  r10,r4,32
   136fc:	39 29 ff ff 	addi    r9,r9,-1
   13700:	55 2b 10 3a 	rlwinm  r11,r9,2,0,29
   13704:	55 29 90 1a 	rlwinm  r9,r9,18,0,13
   13708:	7d 64 5a 14 	add     r11,r4,r11
   1370c:	65 29 40 00 	oris    r9,r9,16384
   13710:	39 6b 00 04 	addi    r11,r11,4
   13714:	61 29 01 00 	ori     r9,r9,256
   13718:	91 7d 00 08 	stw     r11,8(r29)
   1371c:	91 2a 00 00 	stw     r9,0(r10)
   13720:	4b ff ff 30 	b       0x13650
   13724:	81 62 85 20 	lwz     r11,-31456(r2)
   13728:	3d 00 80 21 	lis     r8,-32735
   1372c:	54 67 6c fc 	rlwinm  r7,r3,13,19,30
   13730:	61 08 00 ff 	ori     r8,r8,255
   13734:	80 0b 1c 00 	lwz     r0,7168(r11)
   13738:	81 2b 1c 04 	lwz     r9,7172(r11)
   1373c:	7c 00 18 50 	subf    r0,r0,r3
   13740:	7f 89 00 40 	cmplw   cr7,r9,r0
   13744:	40 9d 00 14 	ble-    cr7,0x13758
   13748:	39 00 00 00 	li      r8,0
   1374c:	90 04 00 00 	stw     r0,0(r4)
   13750:	7d 03 07 b4 	extsw   r3,r8
   13754:	4e 80 00 20 	blr
   13758:	7c 0b 3a 2e 	lhzx    r0,r11,r7
   1375c:	54 6a 03 3e 	clrlwi  r10,r3,12
   13760:	81 2b 1c 08 	lwz     r9,7176(r11)
   13764:	54 0b a0 16 	rlwinm  r11,r0,20,0,11
   13768:	7f 80 48 40 	cmplw   cr7,r0,r9
   1376c:	7d 43 5b 78 	or      r3,r10,r11
   13770:	40 9c ff e0 	bge+    cr7,0x13750
   13774:	39 00 00 00 	li      r8,0
   13778:	90 64 00 00 	stw     r3,0(r4)
   1377c:	4b ff ff d4 	b       0x13750
   13780:	f8 21 ff 71 	stdu    r1,-144(r1)
   13784:	7c 08 02 a6 	mflr    r0
   13788:	fb a1 00 78 	std     r29,120(r1)
   1378c:	f8 01 00 a0 	std     r0,160(r1)
   13790:	7c 7d 1b 78 	mr      r29,r3
   13794:	48 00 29 91 	bl      0x16124
   13798:	60 00 00 00 	nop
   1379c:	2f 83 00 00 	cmpwi   cr7,r3,0
   137a0:	57 bd 08 3c 	rlwinm  r29,r29,1,0,30
   137a4:	39 40 ff ff 	li      r10,-1
   137a8:	7f ab 07 b4 	extsw   r11,r29
   137ac:	40 9e 00 28 	bne-    cr7,0x137d4
   137b0:	81 22 85 20 	lwz     r9,-31456(r2)
   137b4:	7d 6b 4a 14 	add     r11,r11,r9
   137b8:	a0 0b 18 00 	lhz     r0,6144(r11)
   137bc:	b0 6b 1c 10 	sth     r3,7184(r11)
   137c0:	54 00 0b fc 	rlwinm  r0,r0,1,15,30
   137c4:	b1 4b 18 00 	sth     r10,6144(r11)
   137c8:	7d 49 03 2e 	sthx    r10,r9,r0
   137cc:	48 00 29 2d 	bl      0x160f8
   137d0:	60 00 00 00 	nop
   137d4:	e8 01 00 a0 	ld      r0,160(r1)
   137d8:	eb a1 00 78 	ld      r29,120(r1)
   137dc:	38 21 00 90 	addi    r1,r1,144
   137e0:	7c 08 03 a6 	mtlr    r0
   137e4:	4e 80 00 20 	blr
   137e8:	f8 21 ff 81 	stdu    r1,-128(r1)
   137ec:	7c 08 02 a6 	mflr    r0
   137f0:	fb e1 00 78 	std     r31,120(r1)
   137f4:	f8 01 00 90 	std     r0,144(r1)
   137f8:	7c 7f 1b 78 	mr      r31,r3
   137fc:	4b ff e9 bd 	bl      0x121b8
   13800:	60 00 00 00 	nop
   13804:	2f 83 00 00 	cmpwi   cr7,r3,0
   13808:	41 9e 00 40 	beq-    cr7,0x13848
   1380c:	81 22 85 20 	lwz     r9,-31456(r2)
   13810:	80 09 1c 04 	lwz     r0,7172(r9)
   13814:	81 09 1c 00 	lwz     r8,7168(r9)
   13818:	90 1f 00 08 	stw     r0,8(r31)
   1381c:	81 43 00 14 	lwz     r10,20(r3)
   13820:	a1 69 18 00 	lhz     r11,6144(r9)
   13824:	a0 09 1c 10 	lhz     r0,7184(r9)
   13828:	91 5f 00 10 	stw     r10,16(r31)
   1382c:	81 23 00 10 	lwz     r9,16(r3)
   13830:	54 00 a0 16 	rlwinm  r0,r0,20,0,11
   13834:	55 6b a0 16 	rlwinm  r11,r11,20,0,11
   13838:	90 1f 00 0c 	stw     r0,12(r31)
   1383c:	91 1f 00 00 	stw     r8,0(r31)
   13840:	91 3f 00 14 	stw     r9,20(r31)
   13844:	91 7f 00 04 	stw     r11,4(r31)
   13848:	e8 01 00 90 	ld      r0,144(r1)
   1384c:	eb e1 00 78 	ld      r31,120(r1)
   13850:	38 21 00 80 	addi    r1,r1,128
   13854:	7c 08 03 a6 	mtlr    r0
   13858:	4e 80 00 20 	blr
   1385c:	f8 21 ff 71 	stdu    r1,-144(r1)
   13860:	7c 08 02 a6 	mflr    r0
   13864:	fb e1 00 88 	std     r31,136(r1)
   13868:	83 e2 85 20 	lwz     r31,-31456(r2)
   1386c:	f8 01 00 a0 	std     r0,160(r1)
   13870:	fb a1 00 78 	std     r29,120(r1)
   13874:	7c bd 2b 78 	mr      r29,r5
   13878:	38 a0 18 00 	li      r5,6144
   1387c:	90 7f 1c 00 	stw     r3,7168(r31)
   13880:	90 9f 1c 04 	stw     r4,7172(r31)
   13884:	7f e3 fb 78 	mr      r3,r31
   13888:	38 80 00 ff 	li      r4,255
   1388c:	57 bd 05 6a 	rlwinm  r29,r29,0,21,21
   13890:	48 04 9e cd 	bl      0x5d75c
   13894:	60 00 00 00 	nop
   13898:	38 80 00 ff 	li      r4,255
   1389c:	38 a0 04 00 	li      r5,1024
   138a0:	38 7f 18 00 	addi    r3,r31,6144
   138a4:	48 04 9e b9 	bl      0x5d75c
   138a8:	60 00 00 00 	nop
   138ac:	38 7f 1c 10 	addi    r3,r31,7184
   138b0:	38 80 00 00 	li      r4,0
   138b4:	38 a0 04 00 	li      r5,1024
   138b8:	48 04 9e a5 	bl      0x5d75c
   138bc:	60 00 00 00 	nop
   138c0:	2f bd 00 00 	cmpdi   cr7,r29,0
   138c4:	41 9e 00 24 	beq-    cr7,0x138e8
   138c8:	38 00 02 00 	li      r0,512
   138cc:	eb a1 00 78 	ld      r29,120(r1)
   138d0:	90 1f 1c 08 	stw     r0,7176(r31)
   138d4:	e8 01 00 a0 	ld      r0,160(r1)
   138d8:	eb e1 00 88 	ld      r31,136(r1)
   138dc:	38 21 00 90 	addi    r1,r1,144
   138e0:	7c 08 03 a6 	mtlr    r0
   138e4:	4e 80 00 20 	blr
   138e8:	38 00 01 00 	li      r0,256
   138ec:	eb a1 00 78 	ld      r29,120(r1)
   138f0:	90 1f 1c 08 	stw     r0,7176(r31)
   138f4:	e8 01 00 a0 	ld      r0,160(r1)
   138f8:	eb e1 00 88 	ld      r31,136(r1)
   138fc:	38 21 00 90 	addi    r1,r1,144
   13900:	7c 08 03 a6 	mtlr    r0
   13904:	4e 80 00 20 	blr
   13908:	f8 21 ff 41 	stdu    r1,-192(r1)
   1390c:	7c 08 02 a6 	mflr    r0
   13910:	fb 41 00 90 	std     r26,144(r1)
   13914:	f8 01 00 d0 	std     r0,208(r1)
   13918:	54 60 03 3e 	clrlwi  r0,r3,12
   1391c:	fb a1 00 a8 	std     r29,168(r1)
   13920:	2f 80 00 00 	cmpwi   cr7,r0,0
   13924:	fb c1 00 b0 	std     r30,176(r1)
   13928:	fb e1 00 b8 	std     r31,184(r1)
   1392c:	fa e1 00 78 	std     r23,120(r1)
   13930:	fb 01 00 80 	std     r24,128(r1)
   13934:	fb 21 00 88 	std     r25,136(r1)
   13938:	fb 61 00 98 	std     r27,152(r1)
   1393c:	fb 81 00 a0 	std     r28,160(r1)
   13940:	7c ba 2b 78 	mr      r26,r5
   13944:	7c 7e 1b 78 	mr      r30,r3
   13948:	7c 9f 23 78 	mr      r31,r4
   1394c:	7c 7d 1b 78 	mr      r29,r3
   13950:	41 9e 00 44 	beq-    cr7,0x13994
   13954:	3c 60 80 21 	lis     r3,-32735
   13958:	60 63 00 ff 	ori     r3,r3,255
   1395c:	e8 01 00 d0 	ld      r0,208(r1)
   13960:	7c 63 07 b4 	extsw   r3,r3
   13964:	ea e1 00 78 	ld      r23,120(r1)
   13968:	eb 01 00 80 	ld      r24,128(r1)
   1396c:	7c 08 03 a6 	mtlr    r0
   13970:	eb 21 00 88 	ld      r25,136(r1)
   13974:	eb 41 00 90 	ld      r26,144(r1)
   13978:	eb 61 00 98 	ld      r27,152(r1)
   1397c:	eb 81 00 a0 	ld      r28,160(r1)
   13980:	eb a1 00 a8 	ld      r29,168(r1)
   13984:	eb c1 00 b0 	ld      r30,176(r1)
   13988:	eb e1 00 b8 	ld      r31,184(r1)
   1398c:	38 21 00 c0 	addi    r1,r1,192
   13990:	4e 80 00 20 	blr
   13994:	54 80 03 3e 	clrlwi  r0,r4,12
   13998:	2f 80 00 00 	cmpwi   cr7,r0,0
   1399c:	40 9e ff b8 	bne+    cr7,0x13954
   139a0:	48 00 27 85 	bl      0x16124
   139a4:	60 00 00 00 	nop
   139a8:	2c 23 00 00 	cmpdi   r3,0
   139ac:	40 82 ff b0 	bne+    0x1395c
   139b0:	83 02 85 20 	lwz     r24,-31456(r2)
   139b4:	57 f9 65 3e 	rlwinm  r25,r31,12,20,31
   139b8:	39 60 00 00 	li      r11,0
   139bc:	39 40 00 00 	li      r10,0
   139c0:	3b 80 00 00 	li      r28,0
   139c4:	7f 3b cb 78 	mr      r27,r25
   139c8:	80 f8 1c 08 	lwz     r7,7176(r24)
   139cc:	7d 19 38 50 	subf    r8,r25,r7
   139d0:	55 60 08 3c 	rlwinm  r0,r11,1,0,30
   139d4:	7f 9b 58 40 	cmplw   cr7,r27,r11
   139d8:	7c 00 07 b4 	extsw   r0,r0
   139dc:	2f 0a 00 00 	cmpwi   cr6,r10,0
   139e0:	7d 20 c2 14 	add     r9,r0,r24
   139e4:	39 6b 00 01 	addi    r11,r11,1
   139e8:	41 9d 00 44 	bgt-    cr7,0x13a2c
   139ec:	39 40 00 00 	li      r10,0
   139f0:	41 9a 00 50 	beq-    cr6,0x13a40
   139f4:	3b 9c 00 01 	addi    r28,r28,1
   139f8:	7f 88 e0 40 	cmplw   cr7,r8,r28
   139fc:	7f 8b e3 78 	mr      r11,r28
   13a00:	7f 79 e2 14 	add     r27,r25,r28
   13a04:	40 9c ff cc 	bge+    cr7,0x139d0
   13a08:	48 00 26 f1 	bl      0x160f8
   13a0c:	60 00 00 00 	nop
   13a10:	2c 23 00 00 	cmpdi   r3,0
   13a14:	7c 60 1b 78 	mr      r0,r3
   13a18:	3c 60 80 21 	lis     r3,-32735
   13a1c:	60 63 00 01 	ori     r3,r3,1
   13a20:	41 82 ff 3c 	beq+    0x1395c
   13a24:	7c 03 03 78 	mr      r3,r0
   13a28:	4b ff ff 34 	b       0x1395c
   13a2c:	a1 29 18 00 	lhz     r9,6144(r9)
   13a30:	7d 29 50 50 	subf    r9,r9,r10
   13a34:	3d 29 00 01 	addis   r9,r9,1
   13a38:	39 49 ff ff 	addi    r10,r9,-1
   13a3c:	4b ff ff 94 	b       0x139d0
   13a40:	7f 9c 38 00 	cmpw    cr7,r28,r7
   13a44:	41 9e ff c4 	beq+    cr7,0x13a08
   13a48:	4b ff e7 f1 	bl      0x12238
   13a4c:	60 00 00 00 	nop
   13a50:	3c e0 e0 00 	lis     r7,-8192
   13a54:	57 97 a0 16 	rlwinm  r23,r28,20,0,11
   13a58:	78 e7 07 c6 	rldicr  r7,r7,32,31
   13a5c:	78 63 00 20 	clrldi  r3,r3,32
   13a60:	7b a5 00 20 	clrldi  r5,r29,32
   13a64:	7b e6 00 20 	clrldi  r6,r31,32
   13a68:	60 e7 08 00 	ori     r7,r7,2048
   13a6c:	56 e4 00 16 	rlwinm  r4,r23,0,0,11
   13a70:	39 60 02 a0 	li      r11,672
   13a74:	44 00 00 02 	sc      
   13a78:	2f 83 00 00 	cmpwi   cr7,r3,0
   13a7c:	7c 7f 1b 78 	mr      r31,r3
   13a80:	40 9e 00 a4 	bne-    cr7,0x13b24
   13a84:	57 c3 65 3e 	rlwinm  r3,r30,12,20,31
   13a88:	7c 19 1a 14 	add     r0,r25,r3
   13a8c:	7f 83 00 40 	cmplw   cr7,r3,r0
   13a90:	40 9c 00 30 	bge-    cr7,0x13ac0
   13a94:	7c 03 00 50 	subf    r0,r3,r0
   13a98:	54 69 08 3c 	rlwinm  r9,r3,1,0,30
   13a9c:	78 00 00 20 	clrldi  r0,r0,32
   13aa0:	7d 49 c2 14 	add     r10,r9,r24
   13aa4:	7c 09 03 a6 	mtctr   r0
   13aa8:	7f 8b e3 78 	mr      r11,r28
   13aac:	79 49 00 20 	clrldi  r9,r10,32
   13ab0:	39 4a 00 02 	addi    r10,r10,2
   13ab4:	b1 69 00 00 	sth     r11,0(r9)
   13ab8:	39 6b 00 01 	addi    r11,r11,1
   13abc:	42 00 ff f0 	bdnz+   0x13aac
   13ac0:	7f 9b e0 40 	cmplw   cr7,r27,r28
   13ac4:	57 8a 08 3c 	rlwinm  r10,r28,1,0,30
   13ac8:	40 9d 00 2c 	ble-    cr7,0x13af4
   13acc:	7d 3c d8 50 	subf    r9,r28,r27
   13ad0:	38 18 18 00 	addi    r0,r24,6144
   13ad4:	79 29 00 20 	clrldi  r9,r9,32
   13ad8:	7d 6a 02 14 	add     r11,r10,r0
   13adc:	7d 29 03 a6 	mtctr   r9
   13ae0:	79 69 00 20 	clrldi  r9,r11,32
   13ae4:	39 6b 00 02 	addi    r11,r11,2
   13ae8:	b0 69 00 00 	sth     r3,0(r9)
   13aec:	38 63 00 01 	addi    r3,r3,1
   13af0:	42 00 ff f0 	bdnz+   0x13ae0
   13af4:	7d 49 07 b4 	extsw   r9,r10
   13af8:	92 fa 00 00 	stw     r23,0(r26)
   13afc:	7d 29 c2 14 	add     r9,r9,r24
   13b00:	b3 29 1c 10 	sth     r25,7184(r9)
   13b04:	48 00 25 f5 	bl      0x160f8
   13b08:	60 00 00 00 	nop
   13b0c:	2c 23 00 00 	cmpdi   r3,0
   13b10:	7c 60 1b 78 	mr      r0,r3
   13b14:	38 60 00 00 	li      r3,0
   13b18:	41 82 fe 44 	beq+    0x1395c
   13b1c:	7c 03 03 78 	mr      r3,r0
   13b20:	4b ff fe 3c 	b       0x1395c
   13b24:	48 00 25 d5 	bl      0x160f8
   13b28:	60 00 00 00 	nop
   13b2c:	2c 23 00 00 	cmpdi   r3,0
   13b30:	7c 60 1b 78 	mr      r0,r3
   13b34:	7f e3 fb 78 	mr      r3,r31
   13b38:	41 82 fe 24 	beq+    0x1395c
   13b3c:	7c 03 03 78 	mr      r3,r0
   13b40:	4b ff fe 1c 	b       0x1395c
   13b44:	f8 21 ff 81 	stdu    r1,-128(r1)
   13b48:	7c 08 02 a6 	mflr    r0
   13b4c:	fb e1 00 78 	std     r31,120(r1)
   13b50:	7c 7f 1b 78 	mr      r31,r3
   13b54:	f8 01 00 90 	std     r0,144(r1)
   13b58:	fb c1 00 70 	std     r30,112(r1)
   13b5c:	7c 9e 23 78 	mr      r30,r4
   13b60:	38 80 00 02 	li      r4,2
   13b64:	81 7f 00 08 	lwz     r11,8(r31)
   13b68:	81 3f 00 04 	lwz     r9,4(r31)
   13b6c:	38 0b 00 08 	addi    r0,r11,8
   13b70:	7f 80 48 40 	cmplw   cr7,r0,r9
   13b74:	41 9d 00 38 	bgt-    cr7,0x13bac
   13b78:	79 69 00 20 	clrldi  r9,r11,32
   13b7c:	3c 00 00 04 	lis     r0,4
   13b80:	39 6b 00 08 	addi    r11,r11,8
   13b84:	60 00 00 50 	ori     r0,r0,80
   13b88:	91 7f 00 08 	stw     r11,8(r31)
   13b8c:	93 c9 00 04 	stw     r30,4(r9)
   13b90:	90 09 00 00 	stw     r0,0(r9)
   13b94:	e8 01 00 90 	ld      r0,144(r1)
   13b98:	eb c1 00 70 	ld      r30,112(r1)
   13b9c:	eb e1 00 78 	ld      r31,120(r1)
   13ba0:	7c 08 03 a6 	mtlr    r0
   13ba4:	38 21 00 80 	addi    r1,r1,128
   13ba8:	4e 80 00 20 	blr
   13bac:	81 3f 00 0c 	lwz     r9,12(r31)
   13bb0:	80 09 00 00 	lwz     r0,0(r9)
   13bb4:	f8 41 00 28 	std     r2,40(r1)
   13bb8:	7c 09 03 a6 	mtctr   r0
   13bbc:	80 49 00 04 	lwz     r2,4(r9)
   13bc0:	4e 80 04 21 	bctrl
   13bc4:	e8 41 00 28 	ld      r2,40(r1)
   13bc8:	2f 83 00 00 	cmpwi   cr7,r3,0
   13bcc:	40 9e ff c8 	bne+    cr7,0x13b94
   13bd0:	81 7f 00 08 	lwz     r11,8(r31)
   13bd4:	4b ff ff a4 	b       0x13b78
   13bd8:	f8 21 ff 71 	stdu    r1,-144(r1)
   13bdc:	7c 08 02 a6 	mflr    r0
   13be0:	fb e1 00 88 	std     r31,136(r1)
   13be4:	7c 7f 1b 78 	mr      r31,r3
   13be8:	f8 01 00 a0 	std     r0,160(r1)
   13bec:	fb a1 00 78 	std     r29,120(r1)
   13bf0:	fb 81 00 70 	std     r28,112(r1)
   13bf4:	fb c1 00 80 	std     r30,128(r1)
   13bf8:	83 bf 00 08 	lwz     r29,8(r31)
   13bfc:	7c 9e 23 78 	mr      r30,r4
   13c00:	80 1f 00 04 	lwz     r0,4(r31)
   13c04:	7c bc 2b 78 	mr      r28,r5
   13c08:	39 3d 00 20 	addi    r9,r29,32
   13c0c:	38 80 00 08 	li      r4,8
   13c10:	7f 89 00 40 	cmplw   cr7,r9,r0
   13c14:	41 9d 00 94 	bgt-    cr7,0x13ca8
   13c18:	38 fd 00 08 	addi    r7,r29,8
   13c1c:	7b bd 00 20 	clrldi  r29,r29,32
   13c20:	39 67 00 08 	addi    r11,r7,8
   13c24:	78 e7 00 20 	clrldi  r7,r7,32
   13c28:	39 2b 00 08 	addi    r9,r11,8
   13c2c:	79 6b 00 20 	clrldi  r11,r11,32
   13c30:	79 23 00 20 	clrldi  r3,r9,32
   13c34:	3c a0 00 04 	lis     r5,4
   13c38:	3c c0 56 61 	lis     r6,22113
   13c3c:	3c 00 00 04 	lis     r0,4
   13c40:	3d 40 00 04 	lis     r10,4
   13c44:	3d 00 66 61 	lis     r8,26209
   13c48:	60 a5 00 60 	ori     r5,r5,96
   13c4c:	60 c6 66 61 	ori     r6,r6,26209
   13c50:	60 00 00 64 	ori     r0,r0,100
   13c54:	57 c4 25 36 	rlwinm  r4,r30,4,20,27
   13c58:	61 4a 00 68 	ori     r10,r10,104
   13c5c:	61 08 66 61 	ori     r8,r8,26209
   13c60:	39 29 00 08 	addi    r9,r9,8
   13c64:	90 dd 00 04 	stw     r6,4(r29)
   13c68:	90 bd 00 00 	stw     r5,0(r29)
   13c6c:	91 3f 00 08 	stw     r9,8(r31)
   13c70:	90 87 00 04 	stw     r4,4(r7)
   13c74:	90 07 00 00 	stw     r0,0(r7)
   13c78:	93 8b 00 04 	stw     r28,4(r11)
   13c7c:	91 4b 00 00 	stw     r10,0(r11)
   13c80:	91 03 00 04 	stw     r8,4(r3)
   13c84:	90 a3 00 00 	stw     r5,0(r3)
   13c88:	e8 01 00 a0 	ld      r0,160(r1)
   13c8c:	eb 81 00 70 	ld      r28,112(r1)
   13c90:	eb a1 00 78 	ld      r29,120(r1)
   13c94:	7c 08 03 a6 	mtlr    r0
   13c98:	eb c1 00 80 	ld      r30,128(r1)
   13c9c:	eb e1 00 88 	ld      r31,136(r1)
   13ca0:	38 21 00 90 	addi    r1,r1,144
   13ca4:	4e 80 00 20 	blr
   13ca8:	81 3f 00 0c 	lwz     r9,12(r31)
   13cac:	80 09 00 00 	lwz     r0,0(r9)
   13cb0:	f8 41 00 28 	std     r2,40(r1)
   13cb4:	7c 09 03 a6 	mtctr   r0
   13cb8:	80 49 00 04 	lwz     r2,4(r9)
   13cbc:	4e 80 04 21 	bctrl
   13cc0:	e8 41 00 28 	ld      r2,40(r1)
   13cc4:	2f 83 00 00 	cmpwi   cr7,r3,0
   13cc8:	40 9e ff c0 	bne+    cr7,0x13c88
   13ccc:	83 bf 00 08 	lwz     r29,8(r31)
   13cd0:	4b ff ff 48 	b       0x13c18
   13cd4:	f8 21 ff 71 	stdu    r1,-144(r1)
   13cd8:	7c 08 02 a6 	mflr    r0
   13cdc:	fb e1 00 88 	std     r31,136(r1)
   13ce0:	7c 7f 1b 78 	mr      r31,r3
   13ce4:	f8 01 00 a0 	std     r0,160(r1)
   13ce8:	fb a1 00 78 	std     r29,120(r1)
   13cec:	fb c1 00 80 	std     r30,128(r1)
   13cf0:	7c bd 2b 78 	mr      r29,r5
   13cf4:	81 5f 00 08 	lwz     r10,8(r31)
   13cf8:	7c 9e 23 78 	mr      r30,r4
   13cfc:	80 1f 00 04 	lwz     r0,4(r31)
   13d00:	38 80 00 04 	li      r4,4
   13d04:	39 2a 00 10 	addi    r9,r10,16
   13d08:	7f 89 00 40 	cmplw   cr7,r9,r0
   13d0c:	41 9d 00 44 	bgt-    cr7,0x13d50
   13d10:	57 c9 10 3a 	rlwinm  r9,r30,2,0,29
   13d14:	79 4b 00 20 	clrldi  r11,r10,32
   13d18:	3d 29 00 01 	addis   r9,r9,1
   13d1c:	38 0a 00 08 	addi    r0,r10,8
   13d20:	39 29 e9 20 	addi    r9,r9,-5856
   13d24:	90 1f 00 08 	stw     r0,8(r31)
   13d28:	65 29 00 04 	oris    r9,r9,4
   13d2c:	93 ab 00 04 	stw     r29,4(r11)
   13d30:	91 2b 00 00 	stw     r9,0(r11)
   13d34:	e8 01 00 a0 	ld      r0,160(r1)
   13d38:	eb a1 00 78 	ld      r29,120(r1)
   13d3c:	eb c1 00 80 	ld      r30,128(r1)
   13d40:	7c 08 03 a6 	mtlr    r0
   13d44:	eb e1 00 88 	ld      r31,136(r1)
   13d48:	38 21 00 90 	addi    r1,r1,144
   13d4c:	4e 80 00 20 	blr
   13d50:	81 3f 00 0c 	lwz     r9,12(r31)
   13d54:	80 09 00 00 	lwz     r0,0(r9)
   13d58:	f8 41 00 28 	std     r2,40(r1)
   13d5c:	7c 09 03 a6 	mtctr   r0
   13d60:	80 49 00 04 	lwz     r2,4(r9)
   13d64:	4e 80 04 21 	bctrl
   13d68:	e8 41 00 28 	ld      r2,40(r1)
   13d6c:	2f 83 00 00 	cmpwi   cr7,r3,0
   13d70:	40 9e ff c4 	bne+    cr7,0x13d34
   13d74:	81 5f 00 08 	lwz     r10,8(r31)
   13d78:	4b ff ff 98 	b       0x13d10
   13d7c:	f8 21 fd e1 	stdu    r1,-544(r1)
   13d80:	7c 08 02 a6 	mflr    r0
   13d84:	fb a1 02 08 	std     r29,520(r1)
   13d88:	3f a0 fe ed 	lis     r29,-275
   13d8c:	fa 21 01 a8 	std     r17,424(r1)
   13d90:	7f a9 03 a6 	mtctr   r29
   13d94:	83 a3 00 08 	lwz     r29,8(r3)
   13d98:	fa 41 01 b0 	std     r18,432(r1)
   13d9c:	39 3d 02 f0 	addi    r9,r29,752
   13da0:	fa 61 01 b8 	std     r19,440(r1)
   13da4:	79 29 00 20 	clrldi  r9,r9,32
   13da8:	fa 81 01 c0 	std     r20,448(r1)
   13dac:	fa c1 01 d0 	std     r22,464(r1)
   13db0:	fb 21 01 e8 	std     r25,488(r1)
   13db4:	fb 61 01 f8 	std     r27,504(r1)
   13db8:	fb 81 02 00 	std     r28,512(r1)
   13dbc:	fb c1 02 10 	std     r30,528(r1)
   13dc0:	fb e1 02 18 	std     r31,536(r1)
   13dc4:	f9 21 01 70 	std     r9,368(r1)
   13dc8:	3b dd 00 fc 	addi    r30,r29,252
   13dcc:	7b a9 00 20 	clrldi  r9,r29,32
   13dd0:	3b fd 01 04 	addi    r31,r29,260
   13dd4:	39 9d 01 0c 	addi    r12,r29,268
   13dd8:	7d 28 03 a6 	mtlr    r9
   13ddc:	3a 3d 01 14 	addi    r17,r29,276
   13de0:	3a 5d 01 64 	addi    r18,r29,356
   13de4:	38 fd 01 88 	addi    r7,r29,392
   13de8:	3a 7d 01 90 	addi    r19,r29,400
   13dec:	3a 9d 01 98 	addi    r20,r29,408
   13df0:	3a dd 01 a0 	addi    r22,r29,416
   13df4:	3b 3d 01 a8 	addi    r25,r29,424
   13df8:	3b 7d 01 b0 	addi    r27,r29,432
   13dfc:	3b 9d 01 b8 	addi    r28,r29,440
   13e00:	7b de 00 20 	clrldi  r30,r30,32
   13e04:	7b ff 00 20 	clrldi  r31,r31,32
   13e08:	79 8c 00 20 	clrldi  r12,r12,32
   13e0c:	7a 31 00 20 	clrldi  r17,r17,32
   13e10:	7a 52 00 20 	clrldi  r18,r18,32
   13e14:	78 e7 00 20 	clrldi  r7,r7,32
   13e18:	7a 73 00 20 	clrldi  r19,r19,32
   13e1c:	7a 94 00 20 	clrldi  r20,r20,32
   13e20:	7a d6 00 20 	clrldi  r22,r22,32
   13e24:	7b 39 00 20 	clrldi  r25,r25,32
   13e28:	7b 7b 00 20 	clrldi  r27,r27,32
   13e2c:	7b 9c 00 20 	clrldi  r28,r28,32
   13e30:	3d 20 ed cb 	lis     r9,-4661
   13e34:	f9 c1 01 90 	std     r14,400(r1)
   13e38:	f9 e1 01 98 	std     r15,408(r1)
   13e3c:	fa 01 01 a0 	std     r16,416(r1)
   13e40:	fa a1 01 c8 	std     r21,456(r1)
   13e44:	fa e1 01 d8 	std     r23,472(r1)
   13e48:	fb 01 01 e0 	std     r24,480(r1)
   13e4c:	fb 41 01 f0 	std     r26,496(r1)
   13e50:	f8 01 02 30 	std     r0,560(r1)
   13e54:	fb c1 00 40 	std     r30,64(r1)
   13e58:	fb e1 00 50 	std     r31,80(r1)
   13e5c:	f9 81 00 60 	std     r12,96(r1)
   13e60:	fa 21 00 70 	std     r17,112(r1)
   13e64:	fa 41 00 98 	std     r18,152(r1)
   13e68:	f8 e1 00 b0 	std     r7,176(r1)
   13e6c:	fa 61 00 c0 	std     r19,192(r1)
   13e70:	fa 81 00 d0 	std     r20,208(r1)
   13e74:	fa c1 00 e0 	std     r22,224(r1)
   13e78:	fb 21 00 f0 	std     r25,240(r1)
   13e7c:	fb 61 01 00 	std     r27,256(r1)
   13e80:	fb 81 01 10 	std     r28,272(r1)
   13e84:	91 21 00 88 	stw     r9,136(r1)
   13e88:	3d 20 9a ab 	lis     r9,-25941
   13e8c:	39 7d 01 7c 	addi    r11,r29,380
   13e90:	91 21 01 30 	stw     r9,304(r1)
   13e94:	3d 20 98 76 	lis     r9,-26506
   13e98:	79 70 00 20 	clrldi  r16,r11,32
   13e9c:	91 21 01 38 	stw     r9,312(r1)
   13ea0:	3d 60 89 aa 	lis     r11,-30294
   13ea4:	3d 20 99 99 	lis     r9,-26215
   13ea8:	91 61 01 3c 	stw     r11,316(r1)
   13eac:	91 21 01 40 	stw     r9,320(r1)
   13eb0:	3d 60 88 88 	lis     r11,-30584
   13eb4:	3d 20 98 88 	lis     r9,-26488
   13eb8:	91 61 01 44 	stw     r11,324(r1)
   13ebc:	91 21 01 48 	stw     r9,328(r1)
   13ec0:	3d 60 aa bb 	lis     r11,-21829
   13ec4:	3d 20 99 ab 	lis     r9,-26197
   13ec8:	91 61 01 5c 	stw     r11,348(r1)
   13ecc:	91 21 01 68 	stw     r9,360(r1)
   13ed0:	7d 29 02 a6 	mfctr   r9
   13ed4:	3d 60 99 87 	lis     r11,-26233
   13ed8:	61 29 00 01 	ori     r9,r9,1
   13edc:	91 61 01 64 	stw     r11,356(r1)
   13ee0:	3d 60 ca fe 	lis     r11,-13570
   13ee4:	7d 29 03 a6 	mtctr   r9
   13ee8:	3d 20 00 3c 	lis     r9,60
   13eec:	91 61 01 8c 	stw     r11,396(r1)
   13ef0:	81 61 01 40 	lwz     r11,320(r1)
   13ef4:	61 29 01 80 	ori     r9,r9,384
   13ef8:	39 5d 02 fc 	addi    r10,r29,764
   13efc:	61 6b 99 99 	ori     r11,r11,39321
   13f00:	91 21 00 30 	stw     r9,48(r1)
   13f04:	91 61 01 40 	stw     r11,320(r1)
   13f08:	3d 20 66 60 	lis     r9,26208
   13f0c:	3d 60 66 60 	lis     r11,26208
   13f10:	61 29 66 60 	ori     r9,r9,26208
   13f14:	61 6b 42 00 	ori     r11,r11,16896
   13f18:	91 21 00 38 	stw     r9,56(r1)
   13f1c:	91 61 00 34 	stw     r11,52(r1)
   13f20:	3d 20 00 04 	lis     r9,4
   13f24:	3d 60 00 04 	lis     r11,4
   13f28:	61 29 1d a4 	ori     r9,r9,7588
   13f2c:	61 6b 1d 80 	ori     r11,r11,7552
   13f30:	91 21 00 48 	stw     r9,72(r1)
   13f34:	91 61 00 3c 	stw     r11,60(r1)
   13f38:	3d 20 00 04 	lis     r9,4
   13f3c:	3d 60 00 04 	lis     r11,4
   13f40:	61 29 14 54 	ori     r9,r9,5204
   13f44:	61 6b 03 b0 	ori     r11,r11,944
   13f48:	91 21 00 68 	stw     r9,104(r1)
   13f4c:	91 61 00 58 	stw     r11,88(r1)
   13f50:	3d 20 00 3f 	lis     r9,63
   13f54:	3d 60 00 04 	lis     r11,4
   13f58:	61 29 ff ff 	ori     r9,r9,65535
   13f5c:	61 6b 1f f4 	ori     r11,r11,8180
   13f60:	91 21 00 7c 	stw     r9,124(r1)
   13f64:	91 61 00 78 	stw     r11,120(r1)
   13f68:	3d 20 06 14 	lis     r9,1556
   13f6c:	3d 60 00 18 	lis     r11,24
   13f70:	61 29 43 21 	ori     r9,r9,17185
   13f74:	61 6b 1f c0 	ori     r11,r11,8128
   13f78:	91 21 00 84 	stw     r9,132(r1)
   13f7c:	91 61 00 80 	stw     r11,128(r1)
   13f80:	3d 20 00 17 	lis     r9,23
   13f84:	81 61 00 88 	lwz     r11,136(r1)
   13f88:	79 4a 00 20 	clrldi  r10,r10,32
   13f8c:	61 6b a9 87 	ori     r11,r11,43399
   13f90:	61 29 16 15 	ori     r9,r9,5653
   13f94:	91 61 00 88 	stw     r11,136(r1)
   13f98:	91 21 00 8c 	stw     r9,140(r1)
   13f9c:	3d 60 00 1b 	lis     r11,27
   13fa0:	3d 20 00 28 	lis     r9,40
   13fa4:	61 6b 1a 19 	ori     r11,r11,6681
   13fa8:	61 29 0b 40 	ori     r9,r9,2880
   13fac:	91 61 00 90 	stw     r11,144(r1)
   13fb0:	91 21 00 94 	stw     r9,148(r1)
   13fb4:	3d 60 00 04 	lis     r11,4
   13fb8:	3d 20 00 0c 	lis     r9,12
   13fbc:	61 6b 0a 0c 	ori     r11,r11,2572
   13fc0:	61 29 0a 60 	ori     r9,r9,2656
   13fc4:	91 61 00 a0 	stw     r11,160(r1)
   13fc8:	91 21 00 a4 	stw     r9,164(r1)
   13fcc:	3d 60 00 08 	lis     r11,8
   13fd0:	3d 20 00 04 	lis     r9,4
   13fd4:	61 6b 0a 78 	ori     r11,r11,2680
   13fd8:	61 29 14 28 	ori     r9,r9,5160
   13fdc:	f9 41 01 80 	std     r10,384(r1)
   13fe0:	91 61 00 a8 	stw     r11,168(r1)
   13fe4:	91 21 00 b8 	stw     r9,184(r1)
   13fe8:	3d 60 00 04 	lis     r11,4
   13fec:	3d 20 00 04 	lis     r9,4
   13ff0:	61 6b 1d 88 	ori     r11,r11,7560
   13ff4:	61 29 1e 94 	ori     r9,r9,7828
   13ff8:	91 61 00 c8 	stw     r11,200(r1)
   13ffc:	91 21 00 d8 	stw     r9,216(r1)
   14000:	3d 60 00 04 	lis     r11,4
   14004:	3d 20 00 08 	lis     r9,8
   14008:	61 6b 14 50 	ori     r11,r11,5200
   1400c:	61 29 00 03 	ori     r9,r9,3
   14010:	91 61 00 e8 	stw     r11,232(r1)
   14014:	91 21 00 ec 	stw     r9,236(r1)
   14018:	3d 60 00 04 	lis     r11,4
   1401c:	3d 20 00 04 	lis     r9,4
   14020:	61 6b 1d 64 	ori     r11,r11,7524
   14024:	61 29 14 5c 	ori     r9,r9,5212
   14028:	91 61 00 f8 	stw     r11,248(r1)
   1402c:	91 21 01 08 	stw     r9,264(r1)
   14030:	3d 60 00 04 	lis     r11,4
   14034:	3d 20 00 40 	lis     r9,64
   14038:	61 6b 1f e0 	ori     r11,r11,8160
   1403c:	61 29 0b 00 	ori     r9,r9,2816
   14040:	91 61 01 18 	stw     r11,280(r1)
   14044:	91 21 01 1c 	stw     r9,284(r1)
   14048:	3d 60 00 10 	lis     r11,16
   1404c:	3d 20 00 10 	lis     r9,16
   14050:	61 6b 08 cc 	ori     r11,r11,2252
   14054:	61 29 02 40 	ori     r9,r9,576
   14058:	91 61 01 20 	stw     r11,288(r1)
   1405c:	91 21 01 24 	stw     r9,292(r1)
   14060:	39 60 00 00 	li      r11,0
   14064:	3d 20 00 c0 	lis     r9,192
   14068:	61 6b ff ff 	ori     r11,r11,65535
   1406c:	61 29 03 c0 	ori     r9,r9,960
   14070:	91 61 01 28 	stw     r11,296(r1)
   14074:	91 21 01 2c 	stw     r9,300(r1)
   14078:	81 61 01 30 	lwz     r11,304(r1)
   1407c:	3d 20 66 66 	lis     r9,26214
   14080:	38 9d 00 08 	addi    r4,r29,8
   14084:	61 6b aa 98 	ori     r11,r11,43672
   14088:	61 29 67 89 	ori     r9,r9,26505
   1408c:	91 61 01 30 	stw     r11,304(r1)
   14090:	91 21 01 34 	stw     r9,308(r1)
   14094:	81 61 01 38 	lwz     r11,312(r1)
   14098:	39 dd 00 48 	addi    r14,r29,72
   1409c:	81 21 01 3c 	lwz     r9,316(r1)
   140a0:	38 dd 00 50 	addi    r6,r29,80
   140a4:	61 6b 66 66 	ori     r11,r11,26214
   140a8:	61 29 ba a9 	ori     r9,r9,47785
   140ac:	91 61 01 38 	stw     r11,312(r1)
   140b0:	91 21 01 3c 	stw     r9,316(r1)
   140b4:	81 61 01 44 	lwz     r11,324(r1)
   140b8:	38 bd 00 a4 	addi    r5,r29,164
   140bc:	81 21 01 48 	lwz     r9,328(r1)
   140c0:	3a fd 01 1c 	addi    r23,r29,284
   140c4:	61 6b 88 89 	ori     r11,r11,34953
   140c8:	61 29 88 88 	ori     r9,r9,34952
   140cc:	91 61 01 44 	stw     r11,324(r1)
   140d0:	91 21 01 48 	stw     r9,328(r1)
   140d4:	3d 60 56 67 	lis     r11,22119
   140d8:	3d 20 33 33 	lis     r9,13107
   140dc:	61 6b 66 54 	ori     r11,r11,26196
   140e0:	61 29 33 45 	ori     r9,r9,13125
   140e4:	91 61 01 4c 	stw     r11,332(r1)
   140e8:	91 21 01 50 	stw     r9,336(r1)
   140ec:	3d 60 54 33 	lis     r11,21555
   140f0:	3d 20 45 66 	lis     r9,17766
   140f4:	61 6b 33 33 	ori     r11,r11,13107
   140f8:	61 29 76 65 	ori     r9,r9,30309
   140fc:	91 61 01 54 	stw     r11,340(r1)
   14100:	91 21 01 58 	stw     r9,344(r1)
   14104:	81 61 01 5c 	lwz     r11,348(r1)
   14108:	3d 20 66 66 	lis     r9,26214
   1410c:	3b 1d 01 38 	addi    r24,r29,312
   14110:	61 6b ba 99 	ori     r11,r11,47769
   14114:	61 29 78 99 	ori     r9,r9,30873
   14118:	91 61 01 5c 	stw     r11,348(r1)
   1411c:	91 21 01 60 	stw     r9,352(r1)
   14120:	81 61 01 64 	lwz     r11,356(r1)
   14124:	39 fd 01 6c 	addi    r15,r29,364
   14128:	81 21 01 68 	lwz     r9,360(r1)
   1412c:	3b 5d 01 c0 	addi    r26,r29,448
   14130:	3a bd 02 04 	addi    r21,r29,516
   14134:	39 1d 02 18 	addi    r8,r29,536
   14138:	61 6b 66 66 	ori     r11,r11,26214
   1413c:	61 29 bb aa 	ori     r9,r9,48042
   14140:	3b bd 03 04 	addi    r29,r29,772
   14144:	3c 00 31 33 	lis     r0,12595
   14148:	91 61 01 64 	stw     r11,356(r1)
   1414c:	60 00 70 00 	ori     r0,r0,28672
   14150:	91 21 01 68 	stw     r9,360(r1)
   14154:	93 a3 00 08 	stw     r29,8(r3)
   14158:	7f a8 02 a6 	mflr    r29
   1415c:	78 84 00 20 	clrldi  r4,r4,32
   14160:	90 1d 00 04 	stw     r0,4(r29)
   14164:	3c 00 00 04 	lis     r0,4
   14168:	3d 20 00 04 	lis     r9,4
   1416c:	90 1d 00 00 	stw     r0,0(r29)
   14170:	80 01 00 30 	lwz     r0,48(r1)
   14174:	78 c6 00 20 	clrldi  r6,r6,32
   14178:	79 ce 00 20 	clrldi  r14,r14,32
   1417c:	83 a1 00 34 	lwz     r29,52(r1)
   14180:	90 04 00 00 	stw     r0,0(r4)
   14184:	7c 09 02 a6 	mfctr   r0
   14188:	61 29 e0 00 	ori     r9,r9,57344
   1418c:	3e 80 66 62 	lis     r20,26210
   14190:	3e 20 00 04 	lis     r17,4
   14194:	3e 60 66 61 	lis     r19,26209
   14198:	3d 60 00 08 	lis     r11,8
   1419c:	39 40 00 00 	li      r10,0
   141a0:	93 a4 00 04 	stw     r29,4(r4)
   141a4:	90 04 00 24 	stw     r0,36(r4)
   141a8:	90 04 00 0c 	stw     r0,12(r4)
   141ac:	83 a1 00 38 	lwz     r29,56(r1)
   141b0:	62 94 66 60 	ori     r20,r20,26208
   141b4:	91 21 01 88 	stw     r9,392(r1)
   141b8:	62 31 00 60 	ori     r17,r17,96
   141bc:	3d 20 fe ed 	lis     r9,-275
   141c0:	62 73 66 61 	ori     r19,r19,26209
   141c4:	61 6b 17 38 	ori     r11,r11,5944
   141c8:	38 00 01 21 	li      r0,289
   141cc:	91 24 00 3c 	stw     r9,60(r4)
   141d0:	93 a4 00 28 	stw     r29,40(r4)
   141d4:	92 84 00 2c 	stw     r20,44(r4)
   141d8:	91 24 00 08 	stw     r9,8(r4)
   141dc:	91 24 00 10 	stw     r9,16(r4)
   141e0:	91 24 00 18 	stw     r9,24(r4)
   141e4:	91 24 00 1c 	stw     r9,28(r4)
   141e8:	91 24 00 20 	stw     r9,32(r4)
   141ec:	91 24 00 38 	stw     r9,56(r4)
   141f0:	91 44 00 14 	stw     r10,20(r4)
   141f4:	91 44 00 30 	stw     r10,48(r4)
   141f8:	91 44 00 34 	stw     r10,52(r4)
   141fc:	91 61 01 78 	stw     r11,376(r1)
   14200:	92 6e 00 04 	stw     r19,4(r14)
   14204:	92 2e 00 00 	stw     r17,0(r14)
   14208:	81 61 01 8c 	lwz     r11,396(r1)
   1420c:	3e 40 00 34 	lis     r18,52
   14210:	90 06 00 0c 	stw     r0,12(r6)
   14214:	38 00 01 00 	li      r0,256
   14218:	78 a5 00 20 	clrldi  r5,r5,32
   1421c:	62 52 02 00 	ori     r18,r18,512
   14220:	61 6b ba be 	ori     r11,r11,47806
   14224:	39 20 00 80 	li      r9,128
   14228:	90 06 00 2c 	stw     r0,44(r6)
   1422c:	3d 80 00 10 	lis     r12,16
   14230:	38 00 00 03 	li      r0,3
   14234:	3f e0 00 48 	lis     r31,72
   14238:	3f c0 00 08 	lis     r30,8
   1423c:	3b 20 00 40 	li      r25,64
   14240:	3a c0 00 01 	li      r22,1
   14244:	91 61 01 8c 	stw     r11,396(r1)
   14248:	63 ff 02 b8 	ori     r31,r31,696
   1424c:	3d 60 0f ff 	lis     r11,4095
   14250:	63 de 1d 98 	ori     r30,r30,7576
   14254:	92 46 00 00 	stw     r18,0(r6)
   14258:	91 26 00 28 	stw     r9,40(r6)
   1425c:	61 8c 02 80 	ori     r12,r12,640
   14260:	91 46 00 04 	stw     r10,4(r6)
   14264:	91 46 00 08 	stw     r10,8(r6)
   14268:	90 06 00 50 	stw     r0,80(r6)
   1426c:	80 01 00 3c 	lwz     r0,60(r1)
   14270:	7a f7 00 20 	clrldi  r23,r23,32
   14274:	93 26 00 10 	stw     r25,16(r6)
   14278:	93 26 00 20 	stw     r25,32(r6)
   1427c:	92 c6 00 24 	stw     r22,36(r6)
   14280:	93 26 00 30 	stw     r25,48(r6)
   14284:	93 26 00 40 	stw     r25,64(r6)
   14288:	90 06 00 4c 	stw     r0,76(r6)
   1428c:	93 26 00 3c 	stw     r25,60(r6)
   14290:	91 46 00 14 	stw     r10,20(r6)
   14294:	91 46 00 18 	stw     r10,24(r6)
   14298:	91 46 00 1c 	stw     r10,28(r6)
   1429c:	91 86 00 38 	stw     r12,56(r6)
   142a0:	91 46 00 34 	stw     r10,52(r6)
   142a4:	91 46 00 44 	stw     r10,68(r6)
   142a8:	91 46 00 48 	stw     r10,72(r6)
   142ac:	91 65 00 54 	stw     r11,84(r5)
   142b0:	93 e5 00 00 	stw     r31,0(r5)
   142b4:	93 c5 00 4c 	stw     r30,76(r5)
   142b8:	91 65 00 0c 	stw     r11,12(r5)
   142bc:	91 65 00 10 	stw     r11,16(r5)
   142c0:	91 65 00 14 	stw     r11,20(r5)
   142c4:	91 65 00 18 	stw     r11,24(r5)
   142c8:	91 65 00 1c 	stw     r11,28(r5)
   142cc:	91 65 00 20 	stw     r11,32(r5)
   142d0:	91 65 00 24 	stw     r11,36(r5)
   142d4:	91 65 00 28 	stw     r11,40(r5)
   142d8:	91 65 00 2c 	stw     r11,44(r5)
   142dc:	91 65 00 30 	stw     r11,48(r5)
   142e0:	91 65 00 34 	stw     r11,52(r5)
   142e4:	91 65 00 38 	stw     r11,56(r5)
   142e8:	91 45 00 04 	stw     r10,4(r5)
   142ec:	91 45 00 08 	stw     r10,8(r5)
   142f0:	91 65 00 3c 	stw     r11,60(r5)
   142f4:	e9 21 00 40 	ld      r9,64(r1)
   142f8:	7b 18 00 20 	clrldi  r24,r24,32
   142fc:	eb a1 00 50 	ld      r29,80(r1)
   14300:	79 ef 00 20 	clrldi  r15,r15,32
   14304:	91 65 00 40 	stw     r11,64(r5)
   14308:	91 65 00 44 	stw     r11,68(r5)
   1430c:	91 65 00 48 	stw     r11,72(r5)
   14310:	91 65 00 50 	stw     r11,80(r5)
   14314:	80 01 00 58 	lwz     r0,88(r1)
   14318:	7b 5a 00 20 	clrldi  r26,r26,32
   1431c:	81 61 00 48 	lwz     r11,72(r1)
   14320:	7a b5 00 20 	clrldi  r21,r21,32
   14324:	91 49 00 04 	stw     r10,4(r9)
   14328:	91 69 00 00 	stw     r11,0(r9)
   1432c:	90 1d 00 00 	stw     r0,0(r29)
   14330:	e9 21 00 60 	ld      r9,96(r1)
   14334:	3c 00 00 10 	lis     r0,16
   14338:	81 61 00 68 	lwz     r11,104(r1)
   1433c:	38 e0 2d c8 	li      r7,11720
   14340:	90 1d 00 04 	stw     r0,4(r29)
   14344:	eb a1 00 70 	ld      r29,112(r1)
   14348:	79 08 00 20 	clrldi  r8,r8,32
   1434c:	80 01 00 7c 	lwz     r0,124(r1)
   14350:	3f 60 00 01 	lis     r27,1
   14354:	91 69 00 00 	stw     r11,0(r9)
   14358:	91 49 00 04 	stw     r10,4(r9)
   1435c:	81 21 00 78 	lwz     r9,120(r1)
   14360:	63 7b 01 01 	ori     r27,r27,257
   14364:	90 1d 00 04 	stw     r0,4(r29)
   14368:	91 3d 00 00 	stw     r9,0(r29)
   1436c:	81 61 00 90 	lwz     r11,144(r1)
   14370:	3b 80 74 21 	li      r28,29729
   14374:	83 a1 00 80 	lwz     r29,128(r1)
   14378:	80 01 00 84 	lwz     r0,132(r1)
   1437c:	81 21 00 88 	lwz     r9,136(r1)
   14380:	91 77 00 18 	stw     r11,24(r23)
   14384:	93 b7 00 00 	stw     r29,0(r23)
   14388:	81 61 00 8c 	lwz     r11,140(r1)
   1438c:	90 17 00 08 	stw     r0,8(r23)
   14390:	83 a1 00 94 	lwz     r29,148(r1)
   14394:	38 00 00 6f 	li      r0,111
   14398:	91 37 00 0c 	stw     r9,12(r23)
   1439c:	90 17 00 10 	stw     r0,16(r23)
   143a0:	91 77 00 14 	stw     r11,20(r23)
   143a4:	91 57 00 04 	stw     r10,4(r23)
   143a8:	93 b8 00 00 	stw     r29,0(r24)
   143ac:	e9 21 00 98 	ld      r9,152(r1)
   143b0:	81 61 00 a0 	lwz     r11,160(r1)
   143b4:	83 a1 00 a4 	lwz     r29,164(r1)
   143b8:	91 58 00 28 	stw     r10,40(r24)
   143bc:	91 58 00 04 	stw     r10,4(r24)
   143c0:	91 58 00 08 	stw     r10,8(r24)
   143c4:	91 58 00 0c 	stw     r10,12(r24)
   143c8:	91 58 00 10 	stw     r10,16(r24)
   143cc:	91 58 00 14 	stw     r10,20(r24)
   143d0:	91 58 00 18 	stw     r10,24(r24)
   143d4:	91 58 00 1c 	stw     r10,28(r24)
   143d8:	91 58 00 20 	stw     r10,32(r24)
   143dc:	91 58 00 24 	stw     r10,36(r24)
   143e0:	91 69 00 00 	stw     r11,0(r9)
   143e4:	91 49 00 04 	stw     r10,4(r9)
   143e8:	e9 21 00 b0 	ld      r9,176(r1)
   143ec:	93 af 00 00 	stw     r29,0(r15)
   143f0:	eb a1 00 c0 	ld      r29,192(r1)
   143f4:	80 01 00 a8 	lwz     r0,168(r1)
   143f8:	81 61 00 b8 	lwz     r11,184(r1)
   143fc:	91 4f 00 0c 	stw     r10,12(r15)
   14400:	91 4f 00 04 	stw     r10,4(r15)
   14404:	91 4f 00 08 	stw     r10,8(r15)
   14408:	90 10 00 00 	stw     r0,0(r16)
   1440c:	80 01 00 c8 	lwz     r0,200(r1)
   14410:	91 50 00 08 	stw     r10,8(r16)
   14414:	91 50 00 04 	stw     r10,4(r16)
   14418:	91 69 00 00 	stw     r11,0(r9)
   1441c:	e9 61 00 d0 	ld      r11,208(r1)
   14420:	92 c9 00 04 	stw     r22,4(r9)
   14424:	90 1d 00 00 	stw     r0,0(r29)
   14428:	38 00 10 00 	li      r0,4096
   1442c:	39 20 00 11 	li      r9,17
   14430:	90 1d 00 04 	stw     r0,4(r29)
   14434:	83 a1 00 d8 	lwz     r29,216(r1)
   14438:	3c 00 02 00 	lis     r0,512
   1443c:	91 2b 00 04 	stw     r9,4(r11)
   14440:	93 ab 00 00 	stw     r29,0(r11)
   14444:	e9 21 00 e0 	ld      r9,224(r1)
   14448:	81 61 00 ec 	lwz     r11,236(r1)
   1444c:	83 a1 00 e8 	lwz     r29,232(r1)
   14450:	91 69 00 04 	stw     r11,4(r9)
   14454:	93 a9 00 00 	stw     r29,0(r9)
   14458:	e9 21 00 f0 	ld      r9,240(r1)
   1445c:	eb a1 01 00 	ld      r29,256(r1)
   14460:	81 61 00 f8 	lwz     r11,248(r1)
   14464:	90 09 00 04 	stw     r0,4(r9)
   14468:	91 69 00 00 	stw     r11,0(r9)
   1446c:	e9 21 01 10 	ld      r9,272(r1)
   14470:	80 01 01 08 	lwz     r0,264(r1)
   14474:	92 dd 00 04 	stw     r22,4(r29)
   14478:	90 1d 00 00 	stw     r0,0(r29)
   1447c:	81 61 01 18 	lwz     r11,280(r1)
   14480:	83 a1 01 1c 	lwz     r29,284(r1)
   14484:	92 c9 00 04 	stw     r22,4(r9)
   14488:	91 69 00 00 	stw     r11,0(r9)
   1448c:	93 ba 00 00 	stw     r29,0(r26)
   14490:	90 fa 00 40 	stw     r7,64(r26)
   14494:	90 fa 00 04 	stw     r7,4(r26)
   14498:	90 fa 00 08 	stw     r7,8(r26)
   1449c:	90 fa 00 0c 	stw     r7,12(r26)
   144a0:	90 fa 00 10 	stw     r7,16(r26)
   144a4:	90 fa 00 14 	stw     r7,20(r26)
   144a8:	90 fa 00 18 	stw     r7,24(r26)
   144ac:	90 fa 00 1c 	stw     r7,28(r26)
   144b0:	90 fa 00 20 	stw     r7,32(r26)
   144b4:	90 fa 00 24 	stw     r7,36(r26)
   144b8:	90 fa 00 28 	stw     r7,40(r26)
   144bc:	90 fa 00 2c 	stw     r7,44(r26)
   144c0:	90 fa 00 30 	stw     r7,48(r26)
   144c4:	90 fa 00 34 	stw     r7,52(r26)
   144c8:	90 fa 00 38 	stw     r7,56(r26)
   144cc:	80 01 01 20 	lwz     r0,288(r1)
   144d0:	90 fa 00 3c 	stw     r7,60(r26)
   144d4:	81 21 01 24 	lwz     r9,292(r1)
   144d8:	90 15 00 00 	stw     r0,0(r21)
   144dc:	81 61 01 28 	lwz     r11,296(r1)
   144e0:	38 00 08 00 	li      r0,2048
   144e4:	83 a1 01 2c 	lwz     r29,300(r1)
   144e8:	90 15 00 04 	stw     r0,4(r21)
   144ec:	91 55 00 10 	stw     r10,16(r21)
   144f0:	91 55 00 08 	stw     r10,8(r21)
   144f4:	91 55 00 0c 	stw     r10,12(r21)
   144f8:	91 28 00 00 	stw     r9,0(r8)
   144fc:	91 68 00 04 	stw     r11,4(r8)
   14500:	93 a8 00 14 	stw     r29,20(r8)
   14504:	93 68 00 54 	stw     r27,84(r8)
   14508:	93 68 00 18 	stw     r27,24(r8)
   1450c:	93 68 00 1c 	stw     r27,28(r8)
   14510:	93 68 00 20 	stw     r27,32(r8)
   14514:	93 68 00 24 	stw     r27,36(r8)
   14518:	93 68 00 28 	stw     r27,40(r8)
   1451c:	93 68 00 2c 	stw     r27,44(r8)
   14520:	93 68 00 30 	stw     r27,48(r8)
   14524:	93 68 00 34 	stw     r27,52(r8)
   14528:	93 68 00 38 	stw     r27,56(r8)
   1452c:	93 68 00 3c 	stw     r27,60(r8)
   14530:	93 68 00 40 	stw     r27,64(r8)
   14534:	93 68 00 44 	stw     r27,68(r8)
   14538:	93 68 00 48 	stw     r27,72(r8)
   1453c:	93 68 00 4c 	stw     r27,76(r8)
   14540:	93 68 00 50 	stw     r27,80(r8)
   14544:	93 88 00 58 	stw     r28,88(r8)
   14548:	91 48 00 08 	stw     r10,8(r8)
   1454c:	91 48 00 0c 	stw     r10,12(r8)
   14550:	91 48 00 10 	stw     r10,16(r8)
   14554:	93 88 00 5c 	stw     r28,92(r8)
   14558:	80 01 01 68 	lwz     r0,360(r1)
   1455c:	81 21 01 30 	lwz     r9,304(r1)
   14560:	81 61 01 34 	lwz     r11,308(r1)
   14564:	83 a1 01 38 	lwz     r29,312(r1)
   14568:	90 08 00 d4 	stw     r0,212(r8)
   1456c:	91 28 00 98 	stw     r9,152(r8)
   14570:	80 01 01 3c 	lwz     r0,316(r1)
   14574:	81 21 01 44 	lwz     r9,324(r1)
   14578:	91 68 00 9c 	stw     r11,156(r8)
   1457c:	81 61 01 48 	lwz     r11,328(r1)
   14580:	93 a8 00 a0 	stw     r29,160(r8)
   14584:	90 08 00 a4 	stw     r0,164(r8)
   14588:	83 a1 01 40 	lwz     r29,320(r1)
   1458c:	80 01 01 4c 	lwz     r0,332(r1)
   14590:	91 28 00 ac 	stw     r9,172(r8)
   14594:	91 68 00 b0 	stw     r11,176(r8)
   14598:	81 21 01 50 	lwz     r9,336(r1)
   1459c:	81 61 01 54 	lwz     r11,340(r1)
   145a0:	93 88 00 60 	stw     r28,96(r8)
   145a4:	93 88 00 64 	stw     r28,100(r8)
   145a8:	93 88 00 68 	stw     r28,104(r8)
   145ac:	93 88 00 6c 	stw     r28,108(r8)
   145b0:	93 88 00 70 	stw     r28,112(r8)
   145b4:	93 88 00 74 	stw     r28,116(r8)
   145b8:	93 88 00 78 	stw     r28,120(r8)
   145bc:	93 88 00 7c 	stw     r28,124(r8)
   145c0:	93 88 00 80 	stw     r28,128(r8)
   145c4:	93 88 00 84 	stw     r28,132(r8)
   145c8:	93 88 00 88 	stw     r28,136(r8)
   145cc:	93 88 00 94 	stw     r28,148(r8)
   145d0:	93 a8 00 b4 	stw     r29,180(r8)
   145d4:	90 08 00 b8 	stw     r0,184(r8)
   145d8:	91 28 00 bc 	stw     r9,188(r8)
   145dc:	91 68 00 c0 	stw     r11,192(r8)
   145e0:	83 a1 01 58 	lwz     r29,344(r1)
   145e4:	81 21 01 60 	lwz     r9,352(r1)
   145e8:	93 a8 00 c4 	stw     r29,196(r8)
   145ec:	83 a1 01 40 	lwz     r29,320(r1)
   145f0:	91 28 00 cc 	stw     r9,204(r8)
   145f4:	93 a8 00 a8 	stw     r29,168(r8)
   145f8:	e9 21 01 70 	ld      r9,368(r1)
   145fc:	eb a1 01 80 	ld      r29,384(r1)
   14600:	80 01 01 5c 	lwz     r0,348(r1)
   14604:	81 61 01 64 	lwz     r11,356(r1)
   14608:	90 08 00 c8 	stw     r0,200(r8)
   1460c:	91 68 00 d0 	stw     r11,208(r8)
   14610:	80 01 01 8c 	lwz     r0,396(r1)
   14614:	81 61 01 78 	lwz     r11,376(r1)
   14618:	93 88 00 8c 	stw     r28,140(r8)
   1461c:	93 88 00 90 	stw     r28,144(r8)
   14620:	91 49 00 08 	stw     r10,8(r9)
   14624:	91 69 00 00 	stw     r11,0(r9)
   14628:	91 49 00 04 	stw     r10,4(r9)
   1462c:	90 1d 00 04 	stw     r0,4(r29)
   14630:	81 21 01 88 	lwz     r9,392(r1)
   14634:	e8 01 02 30 	ld      r0,560(r1)
   14638:	91 3d 00 00 	stw     r9,0(r29)
   1463c:	e9 c1 01 90 	ld      r14,400(r1)
   14640:	7c 08 03 a6 	mtlr    r0
   14644:	e9 e1 01 98 	ld      r15,408(r1)
   14648:	ea 01 01 a0 	ld      r16,416(r1)
   1464c:	ea 21 01 a8 	ld      r17,424(r1)
   14650:	ea 41 01 b0 	ld      r18,432(r1)
   14654:	ea 61 01 b8 	ld      r19,440(r1)
   14658:	ea 81 01 c0 	ld      r20,448(r1)
   1465c:	ea a1 01 c8 	ld      r21,456(r1)
   14660:	ea c1 01 d0 	ld      r22,464(r1)
   14664:	ea e1 01 d8 	ld      r23,472(r1)
   14668:	eb 01 01 e0 	ld      r24,480(r1)
   1466c:	eb 21 01 e8 	ld      r25,488(r1)
   14670:	eb 41 01 f0 	ld      r26,496(r1)
   14674:	eb 61 01 f8 	ld      r27,504(r1)
   14678:	eb 81 02 00 	ld      r28,512(r1)
   1467c:	eb a1 02 08 	ld      r29,520(r1)
   14680:	eb c1 02 10 	ld      r30,528(r1)
   14684:	eb e1 02 18 	ld      r31,536(r1)
   14688:	38 21 02 20 	addi    r1,r1,544
   1468c:	4e 80 00 20 	blr
   14690:	f8 21 fe f1 	stdu    r1,-272(r1)
   14694:	7c 08 02 a6 	mflr    r0
   14698:	fb e1 01 08 	std     r31,264(r1)
   1469c:	7c 7f 1b 78 	mr      r31,r3
   146a0:	f8 01 01 20 	std     r0,288(r1)
   146a4:	f9 c1 00 80 	std     r14,128(r1)
   146a8:	f9 e1 00 88 	std     r15,136(r1)
   146ac:	fa 01 00 90 	std     r16,144(r1)
   146b0:	81 1f 00 08 	lwz     r8,8(r31)
   146b4:	80 1f 00 04 	lwz     r0,4(r31)
   146b8:	39 28 00 8c 	addi    r9,r8,140
   146bc:	fa 21 00 98 	std     r17,152(r1)
   146c0:	7f 89 00 40 	cmplw   cr7,r9,r0
   146c4:	fa 41 00 a0 	std     r18,160(r1)
   146c8:	fa 61 00 a8 	std     r19,168(r1)
   146cc:	fa 81 00 b0 	std     r20,176(r1)
   146d0:	fa a1 00 b8 	std     r21,184(r1)
   146d4:	fa c1 00 c0 	std     r22,192(r1)
   146d8:	fa e1 00 c8 	std     r23,200(r1)
   146dc:	fb 01 00 d0 	std     r24,208(r1)
   146e0:	fb 21 00 d8 	std     r25,216(r1)
   146e4:	fb 41 00 e0 	std     r26,224(r1)
   146e8:	fb 61 00 e8 	std     r27,232(r1)
   146ec:	fb 81 00 f0 	std     r28,240(r1)
   146f0:	fb a1 00 f8 	std     r29,248(r1)
   146f4:	fb c1 01 00 	std     r30,256(r1)
   146f8:	41 9d 02 08 	bgt-    cr7,0x14900
   146fc:	7d 0a 43 78 	mr      r10,r8
   14700:	79 0c 00 20 	clrldi  r12,r8,32
   14704:	39 08 00 08 	addi    r8,r8,8
   14708:	3d 20 00 04 	lis     r9,4
   1470c:	79 1b 00 20 	clrldi  r27,r8,32
   14710:	39 0a 00 18 	addi    r8,r10,24
   14714:	61 29 20 00 	ori     r9,r9,8192
   14718:	79 08 00 20 	clrldi  r8,r8,32
   1471c:	91 21 00 70 	stw     r9,112(r1)
   14720:	7d 08 03 a6 	mtlr    r8
   14724:	39 0a 00 20 	addi    r8,r10,32
   14728:	3e c0 31 33 	lis     r22,12595
   1472c:	79 1a 00 20 	clrldi  r26,r8,32
   14730:	39 0a 00 30 	addi    r8,r10,48
   14734:	3d 20 00 04 	lis     r9,4
   14738:	79 1e 00 20 	clrldi  r30,r8,32
   1473c:	39 0a 00 38 	addi    r8,r10,56
   14740:	62 d6 73 03 	ori     r22,r22,29443
   14744:	79 0b 00 20 	clrldi  r11,r8,32
   14748:	39 0a 00 5c 	addi    r8,r10,92
   1474c:	61 29 c0 00 	ori     r9,r9,49152
   14750:	79 0e 00 20 	clrldi  r14,r8,32
   14754:	39 0a 00 68 	addi    r8,r10,104
   14758:	3f a0 fe ed 	lis     r29,-275
   1475c:	79 12 00 20 	clrldi  r18,r8,32
   14760:	39 0a 00 70 	addi    r8,r10,112
   14764:	92 cc 00 04 	stw     r22,4(r12)
   14768:	79 0f 00 20 	clrldi  r15,r8,32
   1476c:	82 c1 00 70 	lwz     r22,112(r1)
   14770:	39 0a 00 7c 	addi    r8,r10,124
   14774:	63 bd 00 01 	ori     r29,r29,1
   14778:	79 11 00 20 	clrldi  r17,r8,32
   1477c:	91 21 00 74 	stw     r9,116(r1)
   14780:	39 0a 00 84 	addi    r8,r10,132
   14784:	3f 00 00 0c 	lis     r24,12
   14788:	3c e0 66 60 	lis     r7,26208
   1478c:	3f 80 00 04 	lis     r28,4
   14790:	3c c0 31 33 	lis     r6,12595
   14794:	3c 80 00 0c 	lis     r4,12
   14798:	3c 00 31 33 	lis     r0,12595
   1479c:	3d 20 00 04 	lis     r9,4
   147a0:	92 cc 00 00 	stw     r22,0(r12)
   147a4:	60 e7 42 00 	ori     r7,r7,16896
   147a8:	93 bb 00 08 	stw     r29,8(r27)
   147ac:	7f a8 02 a6 	mflr    r29
   147b0:	79 10 00 20 	clrldi  r16,r8,32
   147b4:	60 c6 71 c3 	ori     r6,r6,29123
   147b8:	3d 00 fe ed 	lis     r8,-275
   147bc:	60 00 78 08 	ori     r0,r0,30728
   147c0:	61 29 c1 80 	ori     r9,r9,49536
   147c4:	3c 60 00 04 	lis     r3,4
   147c8:	3c a0 00 20 	lis     r5,32
   147cc:	63 18 21 80 	ori     r24,r24,8576
   147d0:	63 9c 60 00 	ori     r28,r28,24576
   147d4:	60 84 61 80 	ori     r4,r4,24960
   147d8:	93 1b 00 00 	stw     r24,0(r27)
   147dc:	91 1b 00 0c 	stw     r8,12(r27)
   147e0:	90 fb 00 04 	stw     r7,4(r27)
   147e4:	91 21 00 78 	stw     r9,120(r1)
   147e8:	93 9d 00 00 	stw     r28,0(r29)
   147ec:	90 dd 00 04 	stw     r6,4(r29)
   147f0:	39 20 00 00 	li      r9,0
   147f4:	90 9a 00 00 	stw     r4,0(r26)
   147f8:	91 1a 00 0c 	stw     r8,12(r26)
   147fc:	90 fa 00 04 	stw     r7,4(r26)
   14800:	91 1a 00 08 	stw     r8,8(r26)
   14804:	3f 20 00 08 	lis     r25,8
   14808:	90 1e 00 04 	stw     r0,4(r30)
   1480c:	3e a0 00 04 	lis     r21,4
   14810:	38 00 00 04 	li      r0,4
   14814:	3e e0 31 33 	lis     r23,12595
   14818:	3e 80 00 08 	lis     r20,8
   1481c:	60 63 a0 00 	ori     r3,r3,40960
   14820:	60 a5 a1 80 	ori     r5,r5,41344
   14824:	90 7e 00 00 	stw     r3,0(r30)
   14828:	3e 60 31 37 	lis     r19,12599
   1482c:	91 2b 00 1c 	stw     r9,28(r11)
   14830:	91 2b 00 08 	stw     r9,8(r11)
   14834:	91 2b 00 0c 	stw     r9,12(r11)
   14838:	91 2b 00 10 	stw     r9,16(r11)
   1483c:	91 2b 00 14 	stw     r9,20(r11)
   14840:	91 2b 00 18 	stw     r9,24(r11)
   14844:	90 cb 00 20 	stw     r6,32(r11)
   14848:	90 ab 00 00 	stw     r5,0(r11)
   1484c:	90 eb 00 04 	stw     r7,4(r11)
   14850:	63 39 a2 fc 	ori     r25,r25,41724
   14854:	90 0e 00 08 	stw     r0,8(r14)
   14858:	62 b5 80 00 	ori     r21,r21,32768
   1485c:	38 00 00 03 	li      r0,3
   14860:	62 f7 7a 73 	ori     r23,r23,31347
   14864:	62 94 81 80 	ori     r20,r20,33152
   14868:	90 0e 00 04 	stw     r0,4(r14)
   1486c:	93 2e 00 00 	stw     r25,0(r14)
   14870:	62 73 af 00 	ori     r19,r19,44800
   14874:	92 f2 00 04 	stw     r23,4(r18)
   14878:	92 b2 00 00 	stw     r21,0(r18)
   1487c:	39 4a 00 8c 	addi    r10,r10,140
   14880:	91 0f 00 08 	stw     r8,8(r15)
   14884:	92 8f 00 00 	stw     r20,0(r15)
   14888:	80 01 00 74 	lwz     r0,116(r1)
   1488c:	81 21 00 78 	lwz     r9,120(r1)
   14890:	90 ef 00 04 	stw     r7,4(r15)
   14894:	91 5f 00 08 	stw     r10,8(r31)
   14898:	92 71 00 04 	stw     r19,4(r17)
   1489c:	90 11 00 00 	stw     r0,0(r17)
   148a0:	91 30 00 00 	stw     r9,0(r16)
   148a4:	90 f0 00 04 	stw     r7,4(r16)
   148a8:	e8 01 01 20 	ld      r0,288(r1)
   148ac:	e9 c1 00 80 	ld      r14,128(r1)
   148b0:	e9 e1 00 88 	ld      r15,136(r1)
   148b4:	7c 08 03 a6 	mtlr    r0
   148b8:	ea 01 00 90 	ld      r16,144(r1)
   148bc:	ea 21 00 98 	ld      r17,152(r1)
   148c0:	ea 41 00 a0 	ld      r18,160(r1)
   148c4:	ea 61 00 a8 	ld      r19,168(r1)
   148c8:	ea 81 00 b0 	ld      r20,176(r1)
   148cc:	ea a1 00 b8 	ld      r21,184(r1)
   148d0:	ea c1 00 c0 	ld      r22,192(r1)
   148d4:	ea e1 00 c8 	ld      r23,200(r1)
   148d8:	eb 01 00 d0 	ld      r24,208(r1)
   148dc:	eb 21 00 d8 	ld      r25,216(r1)
   148e0:	eb 41 00 e0 	ld      r26,224(r1)
   148e4:	eb 61 00 e8 	ld      r27,232(r1)
   148e8:	eb 81 00 f0 	ld      r28,240(r1)
   148ec:	eb a1 00 f8 	ld      r29,248(r1)
   148f0:	eb c1 01 00 	ld      r30,256(r1)
   148f4:	eb e1 01 08 	ld      r31,264(r1)
   148f8:	38 21 01 10 	addi    r1,r1,272
   148fc:	4e 80 00 20 	blr
   14900:	81 3f 00 0c 	lwz     r9,12(r31)
   14904:	38 80 00 23 	li      r4,35
   14908:	80 09 00 00 	lwz     r0,0(r9)
   1490c:	f8 41 00 28 	std     r2,40(r1)
   14910:	7c 09 03 a6 	mtctr   r0
   14914:	80 49 00 04 	lwz     r2,4(r9)
   14918:	4e 80 04 21 	bctrl
   1491c:	e8 41 00 28 	ld      r2,40(r1)
   14920:	2f 83 00 00 	cmpwi   cr7,r3,0
   14924:	40 9e ff 84 	bne+    cr7,0x148a8
   14928:	81 1f 00 08 	lwz     r8,8(r31)
   1492c:	4b ff fd d0 	b       0x146fc
   14930:	f8 21 fc 71 	stdu    r1,-912(r1)
   14934:	7c 08 02 a6 	mflr    r0
   14938:	f8 61 00 98 	std     r3,152(r1)
   1493c:	e9 41 00 98 	ld      r10,152(r1)
   14940:	f8 01 03 a0 	std     r0,928(r1)
   14944:	fb a1 03 78 	std     r29,888(r1)
   14948:	fb c1 03 80 	std     r30,896(r1)
   1494c:	fb e1 03 88 	std     r31,904(r1)
   14950:	81 2a 00 08 	lwz     r9,8(r10)
   14954:	fa 81 03 30 	std     r20,816(r1)
   14958:	3b a9 00 0c 	addi    r29,r9,12
   1495c:	38 09 00 80 	addi    r0,r9,128
   14960:	3b c9 00 3c 	addi    r30,r9,60
   14964:	3b e9 00 44 	addi    r31,r9,68
   14968:	38 c9 00 4c 	addi    r6,r9,76
   1496c:	38 89 00 54 	addi    r4,r9,84
   14970:	38 a9 00 5c 	addi    r5,r9,92
   14974:	38 e9 00 70 	addi    r7,r9,112
   14978:	39 49 00 78 	addi    r10,r9,120
   1497c:	7b bd 00 20 	clrldi  r29,r29,32
   14980:	78 14 00 20 	clrldi  r20,r0,32
   14984:	fa a1 03 38 	std     r21,824(r1)
   14988:	fb 21 03 58 	std     r25,856(r1)
   1498c:	79 35 00 20 	clrldi  r21,r9,32
   14990:	3b 29 00 88 	addi    r25,r9,136
   14994:	fb 81 03 70 	std     r28,880(r1)
   14998:	fb a1 00 b0 	std     r29,176(r1)
   1499c:	3b 89 00 90 	addi    r28,r9,144
   149a0:	3b a9 00 98 	addi    r29,r9,152
   149a4:	7b de 00 20 	clrldi  r30,r30,32
   149a8:	7b ff 00 20 	clrldi  r31,r31,32
   149ac:	78 c6 00 20 	clrldi  r6,r6,32
   149b0:	78 84 00 20 	clrldi  r4,r4,32
   149b4:	78 a5 00 20 	clrldi  r5,r5,32
   149b8:	78 e7 00 20 	clrldi  r7,r7,32
   149bc:	79 4a 00 20 	clrldi  r10,r10,32
   149c0:	f9 e1 03 08 	std     r15,776(r1)
   149c4:	fa 01 03 10 	std     r16,784(r1)
   149c8:	fa 21 03 18 	std     r17,792(r1)
   149cc:	fa 41 03 20 	std     r18,800(r1)
   149d0:	fa 61 03 28 	std     r19,808(r1)
   149d4:	fa c1 03 40 	std     r22,832(r1)
   149d8:	fa e1 03 48 	std     r23,840(r1)
   149dc:	fb 01 03 50 	std     r24,848(r1)
   149e0:	fb 41 03 60 	std     r26,864(r1)
   149e4:	fb 61 03 68 	std     r27,872(r1)
   149e8:	fb c1 00 c8 	std     r30,200(r1)
   149ec:	fb e1 00 d0 	std     r31,208(r1)
   149f0:	f8 c1 00 d8 	std     r6,216(r1)
   149f4:	f8 81 00 e0 	std     r4,224(r1)
   149f8:	f8 a1 00 e8 	std     r5,232(r1)
   149fc:	f8 e1 00 f8 	std     r7,248(r1)
   14a00:	f9 41 01 08 	std     r10,264(r1)
   14a04:	fa 81 01 18 	std     r20,280(r1)
   14a08:	fa a1 00 a0 	std     r21,160(r1)
   14a0c:	f9 c1 03 00 	std     r14,768(r1)
   14a10:	93 21 00 50 	stw     r25,80(r1)
   14a14:	93 81 00 90 	stw     r28,144(r1)
   14a18:	93 a1 00 8c 	stw     r29,140(r1)
   14a1c:	3b 89 00 dc 	addi    r28,r9,220
   14a20:	3b a9 00 e4 	addi    r29,r9,228
   14a24:	7f 88 03 a6 	mtlr    r28
   14a28:	3b e9 00 ac 	addi    r31,r9,172
   14a2c:	7f a9 03 a6 	mtctr   r29
   14a30:	3b c9 00 a0 	addi    r30,r9,160
   14a34:	93 e1 00 88 	stw     r31,136(r1)
   14a38:	3b e9 01 14 	addi    r31,r9,276
   14a3c:	39 49 00 bc 	addi    r10,r9,188
   14a40:	3a 89 00 c4 	addi    r20,r9,196
   14a44:	7b ff 00 20 	clrldi  r31,r31,32
   14a48:	38 09 00 b4 	addi    r0,r9,180
   14a4c:	91 41 00 80 	stw     r10,128(r1)
   14a50:	92 81 00 7c 	stw     r20,124(r1)
   14a54:	39 49 01 5c 	addi    r10,r9,348
   14a58:	7b d4 00 20 	clrldi  r20,r30,32
   14a5c:	83 c1 00 50 	lwz     r30,80(r1)
   14a60:	fb e1 02 00 	std     r31,512(r1)
   14a64:	83 e1 00 90 	lwz     r31,144(r1)
   14a68:	3a a9 00 cc 	addi    r21,r9,204
   14a6c:	90 01 00 84 	stw     r0,132(r1)
   14a70:	79 4a 00 20 	clrldi  r10,r10,32
   14a74:	fb c1 01 28 	std     r30,296(r1)
   14a78:	fb e1 01 30 	std     r31,304(r1)
   14a7c:	83 c1 00 88 	lwz     r30,136(r1)
   14a80:	3b 29 00 d4 	addi    r25,r9,212
   14a84:	83 e1 00 84 	lwz     r31,132(r1)
   14a88:	38 89 01 30 	addi    r4,r9,304
   14a8c:	92 a1 00 78 	stw     r21,120(r1)
   14a90:	f9 41 02 70 	std     r10,624(r1)
   14a94:	fb c1 01 40 	std     r30,320(r1)
   14a98:	81 41 00 8c 	lwz     r10,140(r1)
   14a9c:	3a a9 00 f4 	addi    r21,r9,244
   14aa0:	83 c1 00 7c 	lwz     r30,124(r1)
   14aa4:	38 a9 01 44 	addi    r5,r9,324
   14aa8:	fb e1 01 48 	std     r31,328(r1)
   14aac:	83 e1 00 78 	lwz     r31,120(r1)
   14ab0:	78 a5 00 20 	clrldi  r5,r5,32
   14ab4:	93 21 00 74 	stw     r25,116(r1)
   14ab8:	f9 41 01 38 	std     r10,312(r1)
   14abc:	3b 29 00 ec 	addi    r25,r9,236
   14ac0:	81 41 00 80 	lwz     r10,128(r1)
   14ac4:	fb c1 01 60 	std     r30,352(r1)
   14ac8:	7f c8 02 a6 	mflr    r30
   14acc:	fb e1 01 70 	std     r31,368(r1)
   14ad0:	78 84 00 20 	clrldi  r4,r4,32
   14ad4:	7f e9 02 a6 	mfctr   r31
   14ad8:	f9 41 01 50 	std     r10,336(r1)
   14adc:	7b de 00 20 	clrldi  r30,r30,32
   14ae0:	81 41 00 74 	lwz     r10,116(r1)
   14ae4:	7b ff 00 20 	clrldi  r31,r31,32
   14ae8:	7b 39 00 20 	clrldi  r25,r25,32
   14aec:	7a b5 00 20 	clrldi  r21,r21,32
   14af0:	f8 a1 02 50 	std     r5,592(r1)
   14af4:	f8 81 02 30 	std     r4,560(r1)
   14af8:	f9 41 01 80 	std     r10,384(r1)
   14afc:	fb c1 01 90 	std     r30,400(r1)
   14b00:	fb e1 01 a0 	std     r31,416(r1)
   14b04:	fb 21 01 b0 	std     r25,432(r1)
   14b08:	fa a1 01 c0 	std     r21,448(r1)
   14b0c:	3e a0 00 04 	lis     r21,4
   14b10:	3f 20 00 0c 	lis     r25,12
   14b14:	62 b5 03 04 	ori     r21,r21,772
   14b18:	63 39 03 50 	ori     r25,r25,848
   14b1c:	92 a1 00 b8 	stw     r21,184(r1)
   14b20:	3e a0 00 04 	lis     r21,4
   14b24:	3d 40 00 08 	lis     r10,8
   14b28:	62 b5 1d 8c 	ori     r21,r21,7564
   14b2c:	93 21 00 bc 	stw     r25,188(r1)
   14b30:	61 4a 03 08 	ori     r10,r10,776
   14b34:	3f 20 00 04 	lis     r25,4
   14b38:	92 a1 01 00 	stw     r21,256(r1)
   14b3c:	ea a1 00 a0 	ld      r21,160(r1)
   14b40:	63 39 1d 94 	ori     r25,r25,7572
   14b44:	91 41 00 a8 	stw     r10,168(r1)
   14b48:	3d 40 00 01 	lis     r10,1
   14b4c:	93 21 01 10 	stw     r25,272(r1)
   14b50:	61 4a 00 01 	ori     r10,r10,1
   14b54:	83 21 00 a8 	lwz     r25,168(r1)
   14b58:	39 69 00 14 	addi    r11,r9,20
   14b5c:	93 35 00 00 	stw     r25,0(r21)
   14b60:	91 41 00 f0 	stw     r10,240(r1)
   14b64:	3b 20 02 07 	li      r25,519
   14b68:	39 40 00 00 	li      r10,0
   14b6c:	93 35 00 04 	stw     r25,4(r21)
   14b70:	91 55 00 08 	stw     r10,8(r21)
   14b74:	ea a1 00 b0 	ld      r21,176(r1)
   14b78:	79 6b 00 20 	clrldi  r11,r11,32
   14b7c:	83 21 00 b8 	lwz     r25,184(r1)
   14b80:	3f c0 00 04 	lis     r30,4
   14b84:	39 89 00 24 	addi    r12,r9,36
   14b88:	63 de 03 4c 	ori     r30,r30,844
   14b8c:	79 8c 00 20 	clrldi  r12,r12,32
   14b90:	93 35 00 00 	stw     r25,0(r21)
   14b94:	91 55 00 04 	stw     r10,4(r21)
   14b98:	82 a1 00 bc 	lwz     r21,188(r1)
   14b9c:	3a 69 00 fc 	addi    r19,r9,252
   14ba0:	93 c1 00 c0 	stw     r30,192(r1)
   14ba4:	92 ab 00 00 	stw     r21,0(r11)
   14ba8:	39 e9 01 04 	addi    r15,r9,260
   14bac:	3a 09 01 0c 	addi    r16,r9,268
   14bb0:	3a 29 01 20 	addi    r17,r9,288
   14bb4:	3a 49 01 28 	addi    r18,r9,296
   14bb8:	3a c9 01 3c 	addi    r22,r9,316
   14bbc:	3a e9 01 54 	addi    r23,r9,340
   14bc0:	3b 09 01 6c 	addi    r24,r9,364
   14bc4:	3b 20 00 ff 	li      r25,255
   14bc8:	3a a0 02 07 	li      r21,519
   14bcc:	3f e0 00 0c 	lis     r31,12
   14bd0:	3f c0 00 04 	lis     r30,4
   14bd4:	93 2b 00 0c 	stw     r25,12(r11)
   14bd8:	92 ab 00 04 	stw     r21,4(r11)
   14bdc:	91 4b 00 08 	stw     r10,8(r11)
   14be0:	7a 73 00 20 	clrldi  r19,r19,32
   14be4:	83 21 00 c0 	lwz     r25,192(r1)
   14be8:	79 ef 00 20 	clrldi  r15,r15,32
   14bec:	39 09 00 2c 	addi    r8,r9,44
   14bf0:	7a 10 00 20 	clrldi  r16,r16,32
   14bf4:	7a 31 00 20 	clrldi  r17,r17,32
   14bf8:	7a 52 00 20 	clrldi  r18,r18,32
   14bfc:	7a d6 00 20 	clrldi  r22,r22,32
   14c00:	7a f7 00 20 	clrldi  r23,r23,32
   14c04:	7b 18 00 20 	clrldi  r24,r24,32
   14c08:	63 ff 03 5c 	ori     r31,r31,860
   14c0c:	63 de 01 00 	ori     r30,r30,256
   14c10:	39 60 00 ff 	li      r11,255
   14c14:	79 08 00 20 	clrldi  r8,r8,32
   14c18:	93 2c 00 00 	stw     r25,0(r12)
   14c1c:	fa 01 01 f0 	std     r16,496(r1)
   14c20:	fa 21 02 10 	std     r17,528(r1)
   14c24:	fa 41 02 20 	std     r18,544(r1)
   14c28:	fa c1 02 40 	std     r22,576(r1)
   14c2c:	fa e1 02 60 	std     r23,608(r1)
   14c30:	fb 01 02 80 	std     r24,640(r1)
   14c34:	93 e1 00 c4 	stw     r31,196(r1)
   14c38:	93 c1 01 20 	stw     r30,288(r1)
   14c3c:	fa 61 01 d0 	std     r19,464(r1)
   14c40:	f9 e1 01 e0 	std     r15,480(r1)
   14c44:	91 6c 00 04 	stw     r11,4(r12)
   14c48:	eb 21 00 c8 	ld      r25,200(r1)
   14c4c:	3c 00 00 04 	lis     r0,4
   14c50:	38 a0 1e 00 	li      r5,7680
   14c54:	82 a1 00 c4 	lwz     r21,196(r1)
   14c58:	60 00 03 1c 	ori     r0,r0,796
   14c5c:	e9 61 00 d0 	ld      r11,208(r1)
   14c60:	92 a8 00 00 	stw     r21,0(r8)
   14c64:	90 a8 00 0c 	stw     r5,12(r8)
   14c68:	90 a8 00 04 	stw     r5,4(r8)
   14c6c:	90 a8 00 08 	stw     r5,8(r8)
   14c70:	ea a1 00 d8 	ld      r21,216(r1)
   14c74:	3c e0 00 04 	lis     r7,4
   14c78:	90 19 00 00 	stw     r0,0(r25)
   14c7c:	91 59 00 04 	stw     r10,4(r25)
   14c80:	eb 21 00 e0 	ld      r25,224(r1)
   14c84:	3c c0 00 04 	lis     r6,4
   14c88:	3f a0 00 04 	lis     r29,4
   14c8c:	80 01 00 f0 	lwz     r0,240(r1)
   14c90:	38 69 00 64 	addi    r3,r9,100
   14c94:	60 e7 03 7c 	ori     r7,r7,892
   14c98:	60 c6 03 10 	ori     r6,r6,784
   14c9c:	63 bd 03 6c 	ori     r29,r29,876
   14ca0:	90 eb 00 00 	stw     r7,0(r11)
   14ca4:	91 4b 00 04 	stw     r10,4(r11)
   14ca8:	78 63 00 20 	clrldi  r3,r3,32
   14cac:	81 61 01 00 	lwz     r11,256(r1)
   14cb0:	90 d5 00 00 	stw     r6,0(r21)
   14cb4:	91 55 00 04 	stw     r10,4(r21)
   14cb8:	93 b9 00 00 	stw     r29,0(r25)
   14cbc:	eb a1 00 e8 	ld      r29,232(r1)
   14cc0:	3f 80 00 04 	lis     r28,4
   14cc4:	3f 60 80 06 	lis     r27,-32762
   14cc8:	ea a1 01 08 	ld      r21,264(r1)
   14ccc:	3f 40 00 08 	lis     r26,8
   14cd0:	63 9c 03 20 	ori     r28,r28,800
   14cd4:	63 7b 80 06 	ori     r27,r27,32774
   14cd8:	63 5a 03 14 	ori     r26,r26,788
   14cdc:	91 59 00 04 	stw     r10,4(r25)
   14ce0:	93 7d 00 04 	stw     r27,4(r29)
   14ce4:	93 9d 00 00 	stw     r28,0(r29)
   14ce8:	93 43 00 00 	stw     r26,0(r3)
   14cec:	90 03 00 04 	stw     r0,4(r3)
   14cf0:	91 43 00 08 	stw     r10,8(r3)
   14cf4:	e8 61 00 f8 	ld      r3,248(r1)
   14cf8:	38 00 ff 00 	li      r0,-256
   14cfc:	83 21 01 10 	lwz     r25,272(r1)
   14d00:	39 89 01 74 	addi    r12,r9,372
   14d04:	eb 81 01 18 	ld      r28,280(r1)
   14d08:	3f 00 00 04 	lis     r24,4
   14d0c:	83 a1 01 20 	lwz     r29,288(r1)
   14d10:	3c 80 01 01 	lis     r4,257
   14d14:	3e e0 00 04 	lis     r23,4
   14d18:	90 03 00 04 	stw     r0,4(r3)
   14d1c:	91 63 00 00 	stw     r11,0(r3)
   14d20:	93 35 00 00 	stw     r25,0(r21)
   14d24:	91 55 00 04 	stw     r10,4(r21)
   14d28:	3f 20 00 04 	lis     r25,4
   14d2c:	3e a0 00 04 	lis     r21,4
   14d30:	3c 00 00 04 	lis     r0,4
   14d34:	62 b5 1f ec 	ori     r21,r21,8172
   14d38:	63 39 1f c0 	ori     r25,r25,8128
   14d3c:	60 00 0a 70 	ori     r0,r0,2672
   14d40:	3d 60 00 04 	lis     r11,4
   14d44:	93 bc 00 00 	stw     r29,0(r28)
   14d48:	92 a1 01 88 	stw     r21,392(r1)
   14d4c:	93 21 01 98 	stw     r25,408(r1)
   14d50:	3e a0 00 04 	lis     r21,4
   14d54:	e9 21 01 18 	ld      r9,280(r1)
   14d58:	3f 20 00 08 	lis     r25,8
   14d5c:	80 e2 85 24 	lwz     r7,-31452(r2)
   14d60:	90 01 01 58 	stw     r0,344(r1)
   14d64:	61 6b 03 00 	ori     r11,r11,768
   14d68:	3c 60 00 04 	lis     r3,4
   14d6c:	3f 80 00 04 	lis     r28,4
   14d70:	3c 00 00 04 	lis     r0,4
   14d74:	62 b5 0a 68 	ori     r21,r21,2664
   14d78:	63 39 0a 78 	ori     r25,r25,2680
   14d7c:	60 63 0a 74 	ori     r3,r3,2676
   14d80:	91 61 01 78 	stw     r11,376(r1)
   14d84:	63 9c 18 34 	ori     r28,r28,6196
   14d88:	60 00 03 74 	ori     r0,r0,884
   14d8c:	3d 60 00 04 	lis     r11,4
   14d90:	92 a1 01 f8 	stw     r21,504(r1)
   14d94:	93 21 02 08 	stw     r25,520(r1)
   14d98:	3e a0 00 04 	lis     r21,4
   14d9c:	3f 20 00 0c 	lis     r25,12
   14da0:	90 61 01 68 	stw     r3,360(r1)
   14da4:	93 81 01 a8 	stw     r28,424(r1)
   14da8:	90 01 01 c8 	stw     r0,456(r1)
   14dac:	61 6b 1e e0 	ori     r11,r11,7904
   14db0:	3f a0 00 04 	lis     r29,4
   14db4:	3c 60 00 04 	lis     r3,4
   14db8:	3f 80 00 04 	lis     r28,4
   14dbc:	3c 00 00 08 	lis     r0,8
   14dc0:	62 b5 03 2c 	ori     r21,r21,812
   14dc4:	63 39 03 3c 	ori     r25,r25,828
   14dc8:	63 bd 03 b8 	ori     r29,r29,952
   14dcc:	60 63 03 78 	ori     r3,r3,888
   14dd0:	91 61 01 e8 	stw     r11,488(r1)
   14dd4:	63 9c 1d ac 	ori     r28,r28,7596
   14dd8:	60 00 08 c0 	ori     r0,r0,2240
   14ddc:	3d 60 00 0c 	lis     r11,12
   14de0:	91 49 00 04 	stw     r10,4(r9)
   14de4:	92 a1 02 68 	stw     r21,616(r1)
   14de8:	e9 21 01 38 	ld      r9,312(r1)
   14dec:	61 6b 03 30 	ori     r11,r11,816
   14df0:	ea a1 01 28 	ld      r21,296(r1)
   14df4:	3e c0 00 04 	lis     r22,4
   14df8:	93 21 02 78 	stw     r25,632(r1)
   14dfc:	eb 21 01 30 	ld      r25,304(r1)
   14e00:	3e 40 00 08 	lis     r18,8
   14e04:	93 a1 01 b8 	stw     r29,440(r1)
   14e08:	90 61 01 d8 	stw     r3,472(r1)
   14e0c:	93 81 02 18 	stw     r28,536(r1)
   14e10:	90 01 02 38 	stw     r0,568(r1)
   14e14:	3f a0 00 04 	lis     r29,4
   14e18:	38 00 00 10 	li      r0,16
   14e1c:	3c 60 00 04 	lis     r3,4
   14e20:	3f 80 00 04 	lis     r28,4
   14e24:	7c 09 03 a6 	mtctr   r0
   14e28:	63 bd 1d b0 	ori     r29,r29,7600
   14e2c:	60 63 03 68 	ori     r3,r3,872
   14e30:	91 61 02 58 	stw     r11,600(r1)
   14e34:	63 9c 03 28 	ori     r28,r28,808
   14e38:	39 60 00 00 	li      r11,0
   14e3c:	38 00 04 05 	li      r0,1029
   14e40:	63 18 03 24 	ori     r24,r24,804
   14e44:	60 84 01 01 	ori     r4,r4,257
   14e48:	62 f7 18 3c 	ori     r23,r23,6204
   14e4c:	62 d6 18 30 	ori     r22,r22,6192
   14e50:	62 52 03 84 	ori     r18,r18,900
   14e54:	90 95 00 04 	stw     r4,4(r21)
   14e58:	93 15 00 00 	stw     r24,0(r21)
   14e5c:	93 a1 02 28 	stw     r29,552(r1)
   14e60:	91 59 00 04 	stw     r10,4(r25)
   14e64:	92 f9 00 00 	stw     r23,0(r25)
   14e68:	83 a2 85 24 	lwz     r29,-31452(r2)
   14e6c:	3e 20 00 04 	lis     r17,4
   14e70:	90 09 00 04 	stw     r0,4(r9)
   14e74:	90 61 02 48 	stw     r3,584(r1)
   14e78:	93 81 02 88 	stw     r28,648(r1)
   14e7c:	92 c9 00 00 	stw     r22,0(r9)
   14e80:	90 f4 00 08 	stw     r7,8(r20)
   14e84:	91 74 00 04 	stw     r11,4(r20)
   14e88:	92 54 00 00 	stw     r18,0(r20)
   14e8c:	e9 41 01 40 	ld      r10,320(r1)
   14e90:	3e 00 00 04 	lis     r16,4
   14e94:	ea 81 01 48 	ld      r20,328(r1)
   14e98:	38 00 02 01 	li      r0,513
   14e9c:	ea a1 01 50 	ld      r21,336(r1)
   14ea0:	62 31 03 80 	ori     r17,r17,896
   14ea4:	62 10 0a 6c 	ori     r16,r16,2668
   14ea8:	e9 21 01 60 	ld      r9,352(r1)
   14eac:	83 21 01 58 	lwz     r25,344(r1)
   14eb0:	38 c0 00 01 	li      r6,1
   14eb4:	91 6a 00 04 	stw     r11,4(r10)
   14eb8:	92 2a 00 00 	stw     r17,0(r10)
   14ebc:	90 14 00 04 	stw     r0,4(r20)
   14ec0:	92 14 00 00 	stw     r16,0(r20)
   14ec4:	ea 81 01 70 	ld      r20,368(r1)
   14ec8:	7d 68 5b 78 	mr      r8,r11
   14ecc:	93 35 00 00 	stw     r25,0(r21)
   14ed0:	eb 21 01 80 	ld      r25,384(r1)
   14ed4:	3c 60 10 00 	lis     r3,4096
   14ed8:	90 d5 00 04 	stw     r6,4(r21)
   14edc:	81 41 01 68 	lwz     r10,360(r1)
   14ee0:	3f c0 00 03 	lis     r30,3
   14ee4:	82 a1 01 78 	lwz     r21,376(r1)
   14ee8:	3f e0 02 05 	lis     r31,517
   14eec:	91 49 00 00 	stw     r10,0(r9)
   14ef0:	91 69 00 04 	stw     r11,4(r9)
   14ef4:	80 01 01 88 	lwz     r0,392(r1)
   14ef8:	63 de 01 01 	ori     r30,r30,257
   14efc:	92 b4 00 00 	stw     r21,0(r20)
   14f00:	90 d4 00 04 	stw     r6,4(r20)
   14f04:	e9 21 01 90 	ld      r9,400(r1)
   14f08:	63 ff 20 00 	ori     r31,r31,8192
   14f0c:	ea 81 01 a0 	ld      r20,416(r1)
   14f10:	3b 80 00 00 	li      r28,0
   14f14:	90 19 00 00 	stw     r0,0(r25)
   14f18:	91 79 00 04 	stw     r11,4(r25)
   14f1c:	eb 21 01 b0 	ld      r25,432(r1)
   14f20:	38 00 09 01 	li      r0,2305
   14f24:	81 41 01 98 	lwz     r10,408(r1)
   14f28:	3b 40 00 00 	li      r26,0
   14f2c:	91 69 00 04 	stw     r11,4(r9)
   14f30:	91 49 00 00 	stw     r10,0(r9)
   14f34:	82 a1 01 a8 	lwz     r21,424(r1)
   14f38:	3f 60 00 06 	lis     r27,6
   14f3c:	90 14 00 04 	stw     r0,4(r20)
   14f40:	38 00 00 08 	li      r0,8
   14f44:	92 b4 00 00 	stw     r21,0(r20)
   14f48:	90 19 00 04 	stw     r0,4(r25)
   14f4c:	e9 21 01 c0 	ld      r9,448(r1)
   14f50:	80 01 01 b8 	lwz     r0,440(r1)
   14f54:	81 41 01 c8 	lwz     r10,456(r1)
   14f58:	90 19 00 00 	stw     r0,0(r25)
   14f5c:	38 00 15 03 	li      r0,5379
   14f60:	82 a1 01 d8 	lwz     r21,472(r1)
   14f64:	91 49 00 00 	stw     r10,0(r9)
   14f68:	91 69 00 04 	stw     r11,4(r9)
   14f6c:	e9 21 01 f0 	ld      r9,496(r1)
   14f70:	90 13 00 04 	stw     r0,4(r19)
   14f74:	80 01 01 e8 	lwz     r0,488(r1)
   14f78:	92 b3 00 00 	stw     r21,0(r19)
   14f7c:	81 41 01 f8 	lwz     r10,504(r1)
   14f80:	90 0f 00 00 	stw     r0,0(r15)
   14f84:	93 af 00 04 	stw     r29,4(r15)
   14f88:	ea a1 02 10 	ld      r21,528(r1)
   14f8c:	38 00 ff ff 	li      r0,-1
   14f90:	91 69 00 04 	stw     r11,4(r9)
   14f94:	eb a1 02 20 	ld      r29,544(r1)
   14f98:	e9 61 02 00 	ld      r11,512(r1)
   14f9c:	91 49 00 00 	stw     r10,0(r9)
   14fa0:	e9 21 02 30 	ld      r9,560(r1)
   14fa4:	82 81 02 08 	lwz     r20,520(r1)
   14fa8:	83 21 02 18 	lwz     r25,536(r1)
   14fac:	92 8b 00 00 	stw     r20,0(r11)
   14fb0:	91 0b 00 08 	stw     r8,8(r11)
   14fb4:	91 0b 00 04 	stw     r8,4(r11)
   14fb8:	81 41 02 38 	lwz     r10,568(r1)
   14fbc:	93 35 00 00 	stw     r25,0(r21)
   14fc0:	91 15 00 04 	stw     r8,4(r21)
   14fc4:	90 1d 00 04 	stw     r0,4(r29)
   14fc8:	80 01 02 28 	lwz     r0,552(r1)
   14fcc:	90 1d 00 00 	stw     r0,0(r29)
   14fd0:	90 69 00 08 	stw     r3,8(r9)
   14fd4:	91 49 00 00 	stw     r10,0(r9)
   14fd8:	90 69 00 04 	stw     r3,4(r9)
   14fdc:	e9 61 02 40 	ld      r11,576(r1)
   14fe0:	38 00 1d 01 	li      r0,7425
   14fe4:	ea a1 02 50 	ld      r21,592(r1)
   14fe8:	3b a0 02 07 	li      r29,519
   14fec:	82 81 02 48 	lwz     r20,584(r1)
   14ff0:	e9 41 02 70 	ld      r10,624(r1)
   14ff4:	e8 61 02 60 	ld      r3,608(r1)
   14ff8:	92 8b 00 00 	stw     r20,0(r11)
   14ffc:	ea 81 02 80 	ld      r20,640(r1)
   15000:	90 0b 00 04 	stw     r0,4(r11)
   15004:	83 21 02 58 	lwz     r25,600(r1)
   15008:	38 00 00 ff 	li      r0,255
   1500c:	93 b5 00 04 	stw     r29,4(r21)
   15010:	93 35 00 00 	stw     r25,0(r21)
   15014:	90 15 00 0c 	stw     r0,12(r21)
   15018:	91 15 00 08 	stw     r8,8(r21)
   1501c:	81 21 02 68 	lwz     r9,616(r1)
   15020:	81 61 02 78 	lwz     r11,632(r1)
   15024:	82 a1 02 88 	lwz     r21,648(r1)
   15028:	90 03 00 04 	stw     r0,4(r3)
   1502c:	91 23 00 00 	stw     r9,0(r3)
   15030:	90 aa 00 0c 	stw     r5,12(r10)
   15034:	91 6a 00 00 	stw     r11,0(r10)
   15038:	90 aa 00 04 	stw     r5,4(r10)
   1503c:	90 aa 00 08 	stw     r5,8(r10)
   15040:	91 14 00 04 	stw     r8,4(r20)
   15044:	92 b4 00 00 	stw     r21,0(r20)
   15048:	7d 3c 62 14 	add     r9,r28,r12
   1504c:	39 1c 1a 08 	addi    r8,r28,6664
   15050:	79 29 00 20 	clrldi  r9,r9,32
   15054:	38 1c 1a 1c 	addi    r0,r28,6684
   15058:	39 7c 1a 0c 	addi    r11,r28,6668
   1505c:	39 5c 1a 14 	addi    r10,r28,6676
   15060:	65 08 00 04 	oris    r8,r8,4
   15064:	64 00 00 04 	oris    r0,r0,4
   15068:	65 6b 00 04 	oris    r11,r11,4
   1506c:	65 4a 00 04 	oris    r10,r10,4
   15070:	91 09 00 00 	stw     r8,0(r9)
   15074:	90 09 00 08 	stw     r0,8(r9)
   15078:	91 69 00 10 	stw     r11,16(r9)
   1507c:	91 49 00 18 	stw     r10,24(r9)
   15080:	93 e9 00 1c 	stw     r31,28(r9)
   15084:	93 c9 00 04 	stw     r30,4(r9)
   15088:	93 49 00 0c 	stw     r26,12(r9)
   1508c:	93 69 00 14 	stw     r27,20(r9)
   15090:	3b 9c 00 20 	addi    r28,r28,32
   15094:	42 00 ff b4 	bdnz+   0x15048
   15098:	39 2c 02 00 	addi    r9,r12,512
   1509c:	3c 00 00 04 	lis     r0,4
   150a0:	79 29 00 20 	clrldi  r9,r9,32
   150a4:	3b ec 02 08 	addi    r31,r12,520
   150a8:	60 00 03 48 	ori     r0,r0,840
   150ac:	3b 20 00 10 	li      r25,16
   150b0:	7f ea fb 78 	mr      r10,r31
   150b4:	39 00 17 40 	li      r8,5952
   150b8:	7f 29 03 a6 	mtctr   r25
   150bc:	38 c0 00 02 	li      r6,2
   150c0:	38 e0 00 00 	li      r7,0
   150c4:	93 49 00 04 	stw     r26,4(r9)
   150c8:	90 09 00 00 	stw     r0,0(r9)
   150cc:	79 49 00 20 	clrldi  r9,r10,32
   150d0:	38 08 ff 40 	addi    r0,r8,-192
   150d4:	65 0b 00 04 	oris    r11,r8,4
   150d8:	64 00 00 04 	oris    r0,r0,4
   150dc:	39 4a 00 10 	addi    r10,r10,16
   150e0:	91 69 00 00 	stw     r11,0(r9)
   150e4:	90 09 00 08 	stw     r0,8(r9)
   150e8:	90 e9 00 0c 	stw     r7,12(r9)
   150ec:	90 c9 00 04 	stw     r6,4(r9)
   150f0:	39 08 00 04 	addi    r8,r8,4
   150f4:	42 00 ff d8 	bdnz+   0x150cc
   150f8:	39 3f 01 00 	addi    r9,r31,256
   150fc:	80 82 85 24 	lwz     r4,-31452(r2)
   15100:	39 7f 01 0c 	addi    r11,r31,268
   15104:	c0 02 85 28 	lfs     f0,-31448(r2)
   15108:	38 ff 01 18 	addi    r7,r31,280
   1510c:	c1 a2 85 2c 	lfs     f13,-31444(r2)
   15110:	79 29 00 20 	clrldi  r9,r9,32
   15114:	d0 01 00 30 	stfs    f0,48(r1)
   15118:	78 e7 00 20 	clrldi  r7,r7,32
   1511c:	d0 01 00 34 	stfs    f0,52(r1)
   15120:	79 6b 00 20 	clrldi  r11,r11,32
   15124:	d1 a1 00 38 	stfs    f13,56(r1)
   15128:	3c 00 00 08 	lis     r0,8
   1512c:	d0 01 00 40 	stfs    f0,64(r1)
   15130:	3d 00 00 08 	lis     r8,8
   15134:	d0 01 00 44 	stfs    f0,68(r1)
   15138:	3f 80 00 20 	lis     r28,32
   1513c:	d1 a1 00 48 	stfs    f13,72(r1)
   15140:	38 a0 00 00 	li      r5,0
   15144:	63 9c 0a 20 	ori     r28,r28,2592
   15148:	3c c0 10 00 	lis     r6,4096
   1514c:	60 00 0a 00 	ori     r0,r0,2560
   15150:	61 08 03 94 	ori     r8,r8,916
   15154:	90 a1 00 3c 	stw     r5,60(r1)
   15158:	90 a1 00 4c 	stw     r5,76(r1)
   1515c:	90 c9 00 08 	stw     r6,8(r9)
   15160:	90 c9 00 04 	stw     r6,4(r9)
   15164:	90 09 00 00 	stw     r0,0(r9)
   15168:	90 8b 00 08 	stw     r4,8(r11)
   1516c:	91 0b 00 00 	stw     r8,0(r11)
   15170:	90 ab 00 04 	stw     r5,4(r11)
   15174:	93 87 00 00 	stw     r28,0(r7)
   15178:	83 a1 00 30 	lwz     r29,48(r1)
   1517c:	38 7f 01 68 	addi    r3,r31,360
   15180:	93 81 02 8c 	stw     r28,652(r1)
   15184:	93 a7 00 04 	stw     r29,4(r7)
   15188:	83 c1 00 34 	lwz     r30,52(r1)
   1518c:	39 3f 01 3c 	addi    r9,r31,316
   15190:	93 a1 00 5c 	stw     r29,92(r1)
   15194:	93 c7 00 08 	stw     r30,8(r7)
   15198:	80 01 00 38 	lwz     r0,56(r1)
   1519c:	3b bf 01 60 	addi    r29,r31,352
   151a0:	93 c1 00 60 	stw     r30,96(r1)
   151a4:	90 07 00 0c 	stw     r0,12(r7)
   151a8:	81 41 00 3c 	lwz     r10,60(r1)
   151ac:	7b bd 00 20 	clrldi  r29,r29,32
   151b0:	90 01 00 64 	stw     r0,100(r1)
   151b4:	91 47 00 10 	stw     r10,16(r7)
   151b8:	81 61 00 40 	lwz     r11,64(r1)
   151bc:	38 1f 01 a8 	addi    r0,r31,424
   151c0:	90 61 00 58 	stw     r3,88(r1)
   151c4:	91 41 00 68 	stw     r10,104(r1)
   151c8:	91 61 00 6c 	stw     r11,108(r1)
   151cc:	91 67 00 14 	stw     r11,20(r7)
   151d0:	82 81 00 44 	lwz     r20,68(r1)
   151d4:	3b df 01 70 	addi    r30,r31,368
   151d8:	fb a1 02 90 	std     r29,656(r1)
   151dc:	92 87 00 18 	stw     r20,24(r7)
   151e0:	78 1d 00 20 	clrldi  r29,r0,32
   151e4:	81 e1 00 48 	lwz     r15,72(r1)
   151e8:	3c 00 00 04 	lis     r0,4
   151ec:	83 21 00 58 	lwz     r25,88(r1)
   151f0:	79 29 00 20 	clrldi  r9,r9,32
   151f4:	3a bf 01 98 	addi    r21,r31,408
   151f8:	92 81 00 70 	stw     r20,112(r1)
   151fc:	7b de 00 20 	clrldi  r30,r30,32
   15200:	60 00 1f f0 	ori     r0,r0,8176
   15204:	3e 80 00 04 	lis     r20,4
   15208:	91 e7 00 1c 	stw     r15,28(r7)
   1520c:	7a bc 00 20 	clrldi  r28,r21,32
   15210:	92 a1 00 54 	stw     r21,84(r1)
   15214:	38 7f 01 a0 	addi    r3,r31,416
   15218:	38 9f 01 b0 	addi    r4,r31,432
   1521c:	38 df 01 b8 	addi    r6,r31,440
   15220:	39 1f 01 c0 	addi    r8,r31,448
   15224:	39 5f 01 c8 	addi    r10,r31,456
   15228:	39 7f 01 d0 	addi    r11,r31,464
   1522c:	fb 21 02 98 	std     r25,664(r1)
   15230:	fb c1 02 a0 	std     r30,672(r1)
   15234:	83 21 02 8c 	lwz     r25,652(r1)
   15238:	62 94 17 cc 	ori     r20,r20,6092
   1523c:	90 01 02 e8 	stw     r0,744(r1)
   15240:	3a a0 00 04 	li      r21,4
   15244:	80 01 00 4c 	lwz     r0,76(r1)
   15248:	3f c0 00 04 	lis     r30,4
   1524c:	90 07 00 20 	stw     r0,32(r7)
   15250:	7e a9 03 a6 	mtctr   r21
   15254:	90 09 00 20 	stw     r0,32(r9)
   15258:	93 29 00 00 	stw     r25,0(r9)
   1525c:	80 01 00 5c 	lwz     r0,92(r1)
   15260:	78 63 00 20 	clrldi  r3,r3,32
   15264:	82 a1 00 64 	lwz     r21,100(r1)
   15268:	78 84 00 20 	clrldi  r4,r4,32
   1526c:	78 c6 00 20 	clrldi  r6,r6,32
   15270:	83 21 00 68 	lwz     r25,104(r1)
   15274:	79 08 00 20 	clrldi  r8,r8,32
   15278:	79 4a 00 20 	clrldi  r10,r10,32
   1527c:	79 6b 00 20 	clrldi  r11,r11,32
   15280:	63 de 14 7c 	ori     r30,r30,5244
   15284:	92 81 02 f8 	stw     r20,760(r1)
   15288:	82 81 00 60 	lwz     r20,96(r1)
   1528c:	3a 5f 01 78 	addi    r18,r31,376
   15290:	90 09 00 04 	stw     r0,4(r9)
   15294:	92 89 00 08 	stw     r20,8(r9)
   15298:	92 a9 00 0c 	stw     r21,12(r9)
   1529c:	fb 81 02 a8 	std     r28,680(r1)
   152a0:	f8 61 02 b0 	std     r3,688(r1)
   152a4:	fb a1 02 b8 	std     r29,696(r1)
   152a8:	f8 81 02 c0 	std     r4,704(r1)
   152ac:	f8 c1 02 d0 	std     r6,720(r1)
   152b0:	f9 01 02 d8 	std     r8,728(r1)
   152b4:	f9 41 02 e0 	std     r10,736(r1)
   152b8:	f9 61 02 f0 	std     r11,752(r1)
   152bc:	93 c1 02 c8 	stw     r30,712(r1)
   152c0:	93 29 00 10 	stw     r25,16(r9)
   152c4:	ea a1 02 90 	ld      r21,656(r1)
   152c8:	3d 60 00 04 	lis     r11,4
   152cc:	eb 21 02 98 	ld      r25,664(r1)
   152d0:	3d 40 00 04 	lis     r10,4
   152d4:	80 01 00 6c 	lwz     r0,108(r1)
   152d8:	3a 3f 01 80 	addi    r17,r31,384
   152dc:	82 81 00 70 	lwz     r20,112(r1)
   152e0:	3a 1f 01 88 	addi    r16,r31,392
   152e4:	90 09 00 14 	stw     r0,20(r9)
   152e8:	39 9f 01 90 	addi    r12,r31,400
   152ec:	61 6b 1d 7c 	ori     r11,r11,7548
   152f0:	61 4a 18 2c 	ori     r10,r10,6188
   152f4:	3c 00 ff ff 	lis     r0,-1
   152f8:	92 89 00 18 	stw     r20,24(r9)
   152fc:	91 e9 00 1c 	stw     r15,28(r9)
   15300:	ea 81 02 b8 	ld      r20,696(r1)
   15304:	7a 52 00 20 	clrldi  r18,r18,32
   15308:	90 15 00 04 	stw     r0,4(r21)
   1530c:	91 75 00 00 	stw     r11,0(r21)
   15310:	e9 21 02 a0 	ld      r9,672(r1)
   15314:	7a 31 00 20 	clrldi  r17,r17,32
   15318:	91 59 00 00 	stw     r10,0(r25)
   1531c:	e9 61 02 b0 	ld      r11,688(r1)
   15320:	7a 10 00 20 	clrldi  r16,r16,32
   15324:	e9 41 02 a8 	ld      r10,680(r1)
   15328:	79 8c 00 20 	clrldi  r12,r12,32
   1532c:	ea a1 02 c0 	ld      r21,704(r1)
   15330:	38 00 1b 02 	li      r0,6914
   15334:	3d 00 00 04 	lis     r8,4
   15338:	3c c0 00 04 	lis     r6,4
   1533c:	3c 80 00 04 	lis     r4,4
   15340:	3c 60 00 04 	lis     r3,4
   15344:	3f a0 00 04 	lis     r29,4
   15348:	3f 80 00 04 	lis     r28,4
   1534c:	3f 60 00 04 	lis     r27,4
   15350:	3f 40 00 04 	lis     r26,4
   15354:	90 19 00 04 	stw     r0,4(r25)
   15358:	60 63 03 bc 	ori     r3,r3,956
   1535c:	83 21 02 c8 	lwz     r25,712(r1)
   15360:	63 bd 1d b4 	ori     r29,r29,7604
   15364:	63 9c 1e e4 	ori     r28,r28,7908
   15368:	61 08 1d 90 	ori     r8,r8,7568
   1536c:	60 c6 03 70 	ori     r6,r6,880
   15370:	60 84 18 28 	ori     r4,r4,6184
   15374:	63 7b 1e e8 	ori     r27,r27,7912
   15378:	63 5a 18 38 	ori     r26,r26,6200
   1537c:	91 09 00 00 	stw     r8,0(r9)
   15380:	90 a9 00 04 	stw     r5,4(r9)
   15384:	90 d2 00 00 	stw     r6,0(r18)
   15388:	90 b2 00 04 	stw     r5,4(r18)
   1538c:	90 11 00 04 	stw     r0,4(r17)
   15390:	90 91 00 00 	stw     r4,0(r17)
   15394:	90 70 00 00 	stw     r3,0(r16)
   15398:	90 b0 00 04 	stw     r5,4(r16)
   1539c:	93 ac 00 00 	stw     r29,0(r12)
   153a0:	90 ac 00 04 	stw     r5,4(r12)
   153a4:	93 8a 00 00 	stw     r28,0(r10)
   153a8:	90 aa 00 04 	stw     r5,4(r10)
   153ac:	93 6b 00 00 	stw     r27,0(r11)
   153b0:	90 ab 00 04 	stw     r5,4(r11)
   153b4:	93 54 00 00 	stw     r26,0(r20)
   153b8:	90 b4 00 04 	stw     r5,4(r20)
   153bc:	93 35 00 00 	stw     r25,0(r21)
   153c0:	eb 81 02 d0 	ld      r28,720(r1)
   153c4:	3f 00 00 04 	lis     r24,4
   153c8:	eb a1 02 d8 	ld      r29,728(r1)
   153cc:	3e e0 00 04 	lis     r23,4
   153d0:	e8 61 02 e0 	ld      r3,736(r1)
   153d4:	3a c0 00 00 	li      r22,0
   153d8:	e9 41 02 f0 	ld      r10,752(r1)
   153dc:	63 18 1e 98 	ori     r24,r24,7832
   153e0:	62 f7 14 78 	ori     r23,r23,5240
   153e4:	81 21 02 e8 	lwz     r9,744(r1)
   153e8:	62 d6 ff ff 	ori     r22,r22,65535
   153ec:	81 61 02 f8 	lwz     r11,760(r1)
   153f0:	3c 00 01 00 	lis     r0,256
   153f4:	3b df 01 d8 	addi    r30,r31,472
   153f8:	39 c0 00 00 	li      r14,0
   153fc:	3b e0 00 00 	li      r31,0
   15400:	90 b5 00 04 	stw     r5,4(r21)
   15404:	90 1c 00 04 	stw     r0,4(r28)
   15408:	93 1c 00 00 	stw     r24,0(r28)
   1540c:	92 fd 00 00 	stw     r23,0(r29)
   15410:	90 bd 00 04 	stw     r5,4(r29)
   15414:	92 c3 00 04 	stw     r22,4(r3)
   15418:	91 23 00 00 	stw     r9,0(r3)
   1541c:	90 aa 00 04 	stw     r5,4(r10)
   15420:	91 6a 00 00 	stw     r11,0(r10)
   15424:	7d 3f f2 14 	add     r9,r31,r30
   15428:	39 1f 09 08 	addi    r8,r31,2312
   1542c:	79 29 00 20 	clrldi  r9,r9,32
   15430:	38 1f 09 1c 	addi    r0,r31,2332
   15434:	39 7f 09 0c 	addi    r11,r31,2316
   15438:	39 5f 09 14 	addi    r10,r31,2324
   1543c:	65 08 00 04 	oris    r8,r8,4
   15440:	64 00 00 04 	oris    r0,r0,4
   15444:	65 6b 00 04 	oris    r11,r11,4
   15448:	65 4a 00 04 	oris    r10,r10,4
   1544c:	3a 80 01 01 	li      r20,257
   15450:	3e a0 00 06 	lis     r21,6
   15454:	91 09 00 00 	stw     r8,0(r9)
   15458:	90 09 00 08 	stw     r0,8(r9)
   1545c:	91 69 00 10 	stw     r11,16(r9)
   15460:	91 49 00 18 	stw     r10,24(r9)
   15464:	91 c9 00 1c 	stw     r14,28(r9)
   15468:	92 89 00 04 	stw     r20,4(r9)
   1546c:	91 c9 00 0c 	stw     r14,12(r9)
   15470:	92 a9 00 14 	stw     r21,20(r9)
   15474:	3b ff 00 20 	addi    r31,r31,32
   15478:	42 00 ff ac 	bdnz+   0x15424
   1547c:	eb 21 00 98 	ld      r25,152(r1)
   15480:	38 de 00 80 	addi    r6,r30,128
   15484:	38 be 00 88 	addi    r5,r30,136
   15488:	e9 e1 03 08 	ld      r15,776(r1)
   1548c:	38 9e 00 90 	addi    r4,r30,144
   15490:	ea 01 03 10 	ld      r16,784(r1)
   15494:	38 7e 00 98 	addi    r3,r30,152
   15498:	ea 21 03 18 	ld      r17,792(r1)
   1549c:	3b be 00 a0 	addi    r29,r30,160
   154a0:	ea 41 03 20 	ld      r18,800(r1)
   154a4:	78 c6 00 20 	clrldi  r6,r6,32
   154a8:	ea 61 03 28 	ld      r19,808(r1)
   154ac:	78 a5 00 20 	clrldi  r5,r5,32
   154b0:	ea 81 03 30 	ld      r20,816(r1)
   154b4:	38 1e 00 a8 	addi    r0,r30,168
   154b8:	ea a1 03 38 	ld      r21,824(r1)
   154bc:	3d 20 00 04 	lis     r9,4
   154c0:	ea c1 03 40 	ld      r22,832(r1)
   154c4:	7b bd 00 20 	clrldi  r29,r29,32
   154c8:	ea e1 03 48 	ld      r23,840(r1)
   154cc:	78 84 00 20 	clrldi  r4,r4,32
   154d0:	eb 01 03 50 	ld      r24,848(r1)
   154d4:	78 63 00 20 	clrldi  r3,r3,32
   154d8:	eb 41 03 60 	ld      r26,864(r1)
   154dc:	90 19 00 08 	stw     r0,8(r25)
   154e0:	3d 60 00 04 	lis     r11,4
   154e4:	eb 21 03 58 	ld      r25,856(r1)
   154e8:	38 00 00 01 	li      r0,1
   154ec:	eb 61 03 68 	ld      r27,872(r1)
   154f0:	3d 40 00 04 	lis     r10,4
   154f4:	eb 81 03 70 	ld      r28,880(r1)
   154f8:	3d 00 00 04 	lis     r8,4
   154fc:	eb c1 03 80 	ld      r30,896(r1)
   15500:	3c e0 00 04 	lis     r7,4
   15504:	eb e1 03 88 	ld      r31,904(r1)
   15508:	61 29 02 38 	ori     r9,r9,568
   1550c:	91 c6 00 04 	stw     r14,4(r6)
   15510:	91 26 00 00 	stw     r9,0(r6)
   15514:	61 6b 1d 78 	ori     r11,r11,7544
   15518:	90 05 00 04 	stw     r0,4(r5)
   1551c:	61 4a 14 2c 	ori     r10,r10,5164
   15520:	e8 01 03 a0 	ld      r0,928(r1)
   15524:	61 08 1f f8 	ori     r8,r8,8184
   15528:	60 e7 1f e8 	ori     r7,r7,8168
   1552c:	7c 08 03 a6 	mtlr    r0
   15530:	91 65 00 00 	stw     r11,0(r5)
   15534:	91 c4 00 04 	stw     r14,4(r4)
   15538:	91 44 00 00 	stw     r10,0(r4)
   1553c:	91 c3 00 04 	stw     r14,4(r3)
   15540:	91 03 00 00 	stw     r8,0(r3)
   15544:	91 dd 00 04 	stw     r14,4(r29)
   15548:	90 fd 00 00 	stw     r7,0(r29)
   1554c:	e9 c1 03 00 	ld      r14,768(r1)
   15550:	eb a1 03 78 	ld      r29,888(r1)
   15554:	38 21 03 90 	addi    r1,r1,912
   15558:	4e 80 00 20 	blr
   1555c:	f8 21 ff 81 	stdu    r1,-128(r1)
   15560:	7c 08 02 a6 	mflr    r0
   15564:	fb e1 00 78 	std     r31,120(r1)
   15568:	7c 7f 1b 78 	mr      r31,r3
   1556c:	f8 01 00 90 	std     r0,144(r1)
   15570:	38 80 00 08 	li      r4,8
   15574:	81 9f 00 08 	lwz     r12,8(r31)
   15578:	81 3f 00 04 	lwz     r9,4(r31)
   1557c:	38 0c 00 20 	addi    r0,r12,32
   15580:	7f 80 48 40 	cmplw   cr7,r0,r9
   15584:	41 9d 00 88 	bgt-    cr7,0x1560c
   15588:	39 0c 00 08 	addi    r8,r12,8
   1558c:	79 83 00 20 	clrldi  r3,r12,32
   15590:	39 68 00 08 	addi    r11,r8,8
   15594:	79 08 00 20 	clrldi  r8,r8,32
   15598:	38 00 00 03 	li      r0,3
   1559c:	3c e0 00 04 	lis     r7,4
   155a0:	79 6b 00 20 	clrldi  r11,r11,32
   155a4:	90 03 00 04 	stw     r0,4(r3)
   155a8:	3c a0 00 04 	lis     r5,4
   155ac:	38 00 00 00 	li      r0,0
   155b0:	3c c0 00 0c 	lis     r6,12
   155b4:	3c 80 01 00 	lis     r4,256
   155b8:	3d 40 ff 00 	lis     r10,-256
   155bc:	60 e7 1d 84 	ori     r7,r7,7556
   155c0:	60 a5 18 04 	ori     r5,r5,6148
   155c4:	90 e3 00 00 	stw     r7,0(r3)
   155c8:	60 c6 1e a4 	ori     r6,r6,7844
   155cc:	90 08 00 04 	stw     r0,4(r8)
   155d0:	60 84 01 00 	ori     r4,r4,256
   155d4:	61 4a 00 02 	ori     r10,r10,2
   155d8:	39 2c 00 20 	addi    r9,r12,32
   155dc:	38 00 00 10 	li      r0,16
   155e0:	90 a8 00 00 	stw     r5,0(r8)
   155e4:	91 3f 00 08 	stw     r9,8(r31)
   155e8:	91 4b 00 0c 	stw     r10,12(r11)
   155ec:	90 cb 00 00 	stw     r6,0(r11)
   155f0:	90 0b 00 04 	stw     r0,4(r11)
   155f4:	90 8b 00 08 	stw     r4,8(r11)
   155f8:	e8 01 00 90 	ld      r0,144(r1)
   155fc:	eb e1 00 78 	ld      r31,120(r1)
   15600:	38 21 00 80 	addi    r1,r1,128
   15604:	7c 08 03 a6 	mtlr    r0
   15608:	4e 80 00 20 	blr
   1560c:	81 3f 00 0c 	lwz     r9,12(r31)
   15610:	80 09 00 00 	lwz     r0,0(r9)
   15614:	f8 41 00 28 	std     r2,40(r1)
   15618:	7c 09 03 a6 	mtctr   r0
   1561c:	80 49 00 04 	lwz     r2,4(r9)
   15620:	4e 80 04 21 	bctrl
   15624:	e8 41 00 28 	ld      r2,40(r1)
   15628:	2f 83 00 00 	cmpwi   cr7,r3,0
   1562c:	40 9e ff cc 	bne+    cr7,0x155f8
   15630:	81 9f 00 08 	lwz     r12,8(r31)
   15634:	4b ff ff 54 	b       0x15588
   15638:	fb 81 ff e0 	std     r28,-32(r1)
   1563c:	7c 7c 1b 78 	mr      r28,r3
   15640:	fb a1 ff e8 	std     r29,-24(r1)
   15644:	fb e1 ff f8 	std     r31,-8(r1)
   15648:	3c 60 00 01 	lis     r3,1
   1564c:	3f e0 00 08 	lis     r31,8
   15650:	3d 80 00 10 	lis     r12,16
   15654:	83 bc 00 08 	lwz     r29,8(r28)
   15658:	38 80 00 00 	li      r4,0
   1565c:	38 00 00 10 	li      r0,16
   15660:	fb c1 ff f0 	std     r30,-16(r1)
   15664:	60 63 84 29 	ori     r3,r3,33833
   15668:	7c 09 03 a6 	mtctr   r0
   1566c:	63 ff 00 08 	ori     r31,r31,8
   15670:	61 8c 00 08 	ori     r12,r12,8
   15674:	60 84 aa e4 	ori     r4,r4,43748
   15678:	7f a7 eb 78 	mr      r7,r29
   1567c:	38 c0 1a 00 	li      r6,6656
   15680:	38 a0 18 40 	li      r5,6208
   15684:	3b c0 00 00 	li      r30,0
   15688:	78 e9 00 20 	clrldi  r9,r7,32
   1568c:	38 06 00 18 	addi    r0,r6,24
   15690:	39 66 00 10 	addi    r11,r6,16
   15694:	64 ca 00 08 	oris    r10,r6,8
   15698:	64 a8 00 04 	oris    r8,r5,4
   1569c:	64 00 00 04 	oris    r0,r0,4
   156a0:	65 6b 00 04 	oris    r11,r11,4
   156a4:	91 49 00 00 	stw     r10,0(r9)
   156a8:	90 09 00 0c 	stw     r0,12(r9)
   156ac:	91 09 00 14 	stw     r8,20(r9)
   156b0:	91 69 00 1c 	stw     r11,28(r9)
   156b4:	90 89 00 20 	stw     r4,32(r9)
   156b8:	93 c9 00 04 	stw     r30,4(r9)
   156bc:	90 69 00 08 	stw     r3,8(r9)
   156c0:	93 e9 00 10 	stw     r31,16(r9)
   156c4:	91 89 00 18 	stw     r12,24(r9)
   156c8:	38 e7 00 24 	addi    r7,r7,36
   156cc:	38 c6 00 20 	addi    r6,r6,32
   156d0:	38 a5 00 04 	addi    r5,r5,4
   156d4:	42 00 ff b4 	bdnz+   0x15688
   156d8:	3b dd 02 40 	addi    r30,r29,576
   156dc:	3c c0 00 01 	lis     r6,1
   156e0:	38 00 00 04 	li      r0,4
   156e4:	60 c6 bc 21 	ori     r6,r6,48161
   156e8:	7f c8 f3 78 	mr      r8,r30
   156ec:	7c 09 03 a6 	mtctr   r0
   156f0:	38 e0 09 00 	li      r7,2304
   156f4:	38 80 00 00 	li      r4,0
   156f8:	38 a0 00 08 	li      r5,8
   156fc:	79 09 00 20 	clrldi  r9,r8,32
   15700:	38 07 00 10 	addi    r0,r7,16
   15704:	39 67 00 18 	addi    r11,r7,24
   15708:	64 ea 00 08 	oris    r10,r7,8
   1570c:	64 00 00 04 	oris    r0,r0,4
   15710:	65 6b 00 04 	oris    r11,r11,4
   15714:	90 09 00 0c 	stw     r0,12(r9)
   15718:	91 49 00 00 	stw     r10,0(r9)
   1571c:	91 69 00 14 	stw     r11,20(r9)
   15720:	93 e9 00 18 	stw     r31,24(r9)
   15724:	90 89 00 04 	stw     r4,4(r9)
   15728:	90 c9 00 08 	stw     r6,8(r9)
   1572c:	90 a9 00 10 	stw     r5,16(r9)
   15730:	39 08 00 1c 	addi    r8,r8,28
   15734:	38 e7 00 20 	addi    r7,r7,32
   15738:	42 00 ff c4 	bdnz+   0x156fc
   1573c:	38 1e 00 70 	addi    r0,r30,112
   15740:	eb a1 ff e8 	ld      r29,-24(r1)
   15744:	eb c1 ff f0 	ld      r30,-16(r1)
   15748:	90 1c 00 08 	stw     r0,8(r28)
   1574c:	eb e1 ff f8 	ld      r31,-8(r1)
   15750:	eb 81 ff e0 	ld      r28,-32(r1)
   15754:	4e 80 00 20 	blr
   15758:	81 03 00 08 	lwz     r8,8(r3)
   1575c:	7c 08 02 a6 	mflr    r0
   15760:	fa 81 ff a0 	std     r20,-96(r1)
   15764:	38 a8 00 08 	addi    r5,r8,8
   15768:	79 0c 00 20 	clrldi  r12,r8,32
   1576c:	39 45 00 08 	addi    r10,r5,8
   15770:	f8 01 00 10 	std     r0,16(r1)
   15774:	3c 00 00 04 	lis     r0,4
   15778:	79 4a 00 20 	clrldi  r10,r10,32
   1577c:	38 e8 00 28 	addi    r7,r8,40
   15780:	78 a5 00 20 	clrldi  r5,r5,32
   15784:	60 00 23 0c 	ori     r0,r0,8972
   15788:	3e 80 00 04 	lis     r20,4
   1578c:	78 e7 00 20 	clrldi  r7,r7,32
   15790:	fa c1 ff b0 	std     r22,-80(r1)
   15794:	38 88 00 3c 	addi    r4,r8,60
   15798:	3a c8 00 48 	addi    r22,r8,72
   1579c:	39 20 00 00 	li      r9,0
   157a0:	90 0c 00 00 	stw     r0,0(r12)
   157a4:	fa 61 ff 98 	std     r19,-104(r1)
   157a8:	62 94 23 10 	ori     r20,r20,8976
   157ac:	38 00 01 01 	li      r0,257
   157b0:	3e 60 00 14 	lis     r19,20
   157b4:	78 84 00 20 	clrldi  r4,r4,32
   157b8:	7a d6 00 20 	clrldi  r22,r22,32
   157bc:	fa a1 ff a8 	std     r21,-88(r1)
   157c0:	39 68 00 58 	addi    r11,r8,88
   157c4:	3a a8 00 50 	addi    r21,r8,80
   157c8:	91 2c 00 04 	stw     r9,4(r12)
   157cc:	f9 e1 ff 78 	std     r15,-136(r1)
   157d0:	92 85 00 00 	stw     r20,0(r5)
   157d4:	91 25 00 04 	stw     r9,4(r5)
   157d8:	fa 01 ff 80 	std     r16,-128(r1)
   157dc:	90 0a 00 14 	stw     r0,20(r10)
   157e0:	fb 81 ff e0 	std     r28,-32(r1)
   157e4:	fb a1 ff e8 	std     r29,-24(r1)
   157e8:	62 73 23 14 	ori     r19,r19,8980
   157ec:	38 00 00 0a 	li      r0,10
   157f0:	3e 00 00 10 	lis     r16,16
   157f4:	3d e0 00 40 	lis     r15,64
   157f8:	3f a0 00 08 	lis     r29,8
   157fc:	3f 80 00 01 	lis     r28,1
   15800:	79 6b 00 20 	clrldi  r11,r11,32
   15804:	7a b5 00 20 	clrldi  r21,r21,32
   15808:	38 c8 00 80 	addi    r6,r8,128
   1580c:	92 6a 00 00 	stw     r19,0(r10)
   15810:	91 2a 00 04 	stw     r9,4(r10)
   15814:	91 2a 00 08 	stw     r9,8(r10)
   15818:	91 2a 00 0c 	stw     r9,12(r10)
   1581c:	91 2a 00 10 	stw     r9,16(r10)
   15820:	fb 01 ff c0 	std     r24,-64(r1)
   15824:	fb 41 ff d0 	std     r26,-48(r1)
   15828:	fb 61 ff d8 	std     r27,-40(r1)
   1582c:	62 10 63 00 	ori     r16,r16,25344
   15830:	61 ef 00 40 	ori     r15,r15,64
   15834:	63 bd 83 00 	ori     r29,r29,33536
   15838:	63 9c 00 0a 	ori     r28,r28,10
   1583c:	90 07 00 04 	stw     r0,4(r7)
   15840:	3f 40 00 04 	lis     r26,4
   15844:	3c 00 fe ed 	lis     r0,-275
   15848:	3f 00 00 04 	lis     r24,4
   1584c:	3f 60 31 33 	lis     r27,12595
   15850:	78 c6 00 20 	clrldi  r6,r6,32
   15854:	fa e1 ff b8 	std     r23,-72(r1)
   15858:	3a e8 00 94 	addi    r23,r8,148
   1585c:	f9 c1 ff 70 	std     r14,-144(r1)
   15860:	fa 21 ff 88 	std     r17,-120(r1)
   15864:	fa 41 ff 90 	std     r18,-112(r1)
   15868:	fb 21 ff c8 	std     r25,-56(r1)
   1586c:	fb e1 ff f8 	std     r31,-8(r1)
   15870:	63 5a c1 84 	ori     r26,r26,49540
   15874:	63 18 c1 98 	ori     r24,r24,49560
   15878:	63 7b 71 c3 	ori     r27,r27,29123
   1587c:	92 07 00 00 	stw     r16,0(r7)
   15880:	91 e7 00 08 	stw     r15,8(r7)
   15884:	3f 20 00 24 	lis     r25,36
   15888:	91 27 00 10 	stw     r9,16(r7)
   1588c:	91 27 00 0c 	stw     r9,12(r7)
   15890:	93 a4 00 00 	stw     r29,0(r4)
   15894:	93 84 00 04 	stw     r28,4(r4)
   15898:	91 24 00 08 	stw     r9,8(r4)
   1589c:	90 16 00 04 	stw     r0,4(r22)
   158a0:	38 00 00 01 	li      r0,1
   158a4:	e9 e1 ff 78 	ld      r15,-136(r1)
   158a8:	7a f7 00 20 	clrldi  r23,r23,32
   158ac:	ea 01 ff 80 	ld      r16,-128(r1)
   158b0:	93 56 00 00 	stw     r26,0(r22)
   158b4:	3b e0 00 03 	li      r31,3
   158b8:	ea 61 ff 98 	ld      r19,-104(r1)
   158bc:	93 75 00 04 	stw     r27,4(r21)
   158c0:	93 15 00 00 	stw     r24,0(r21)
   158c4:	63 39 c2 fc 	ori     r25,r25,49916
   158c8:	ea 81 ff a0 	ld      r20,-96(r1)
   158cc:	90 0b 00 04 	stw     r0,4(r11)
   158d0:	3e 40 00 10 	lis     r18,16
   158d4:	ea a1 ff a8 	ld      r21,-88(r1)
   158d8:	3c 00 00 01 	lis     r0,1
   158dc:	ea c1 ff b0 	ld      r22,-80(r1)
   158e0:	3e 20 00 01 	lis     r17,1
   158e4:	eb 01 ff c0 	ld      r24,-64(r1)
   158e8:	3d c0 00 0c 	lis     r14,12
   158ec:	eb 41 ff d0 	ld      r26,-48(r1)
   158f0:	93 2b 00 00 	stw     r25,0(r11)
   158f4:	93 eb 00 0c 	stw     r31,12(r11)
   158f8:	93 eb 00 08 	stw     r31,8(r11)
   158fc:	91 2b 00 24 	stw     r9,36(r11)
   15900:	91 2b 00 10 	stw     r9,16(r11)
   15904:	91 2b 00 14 	stw     r9,20(r11)
   15908:	91 2b 00 18 	stw     r9,24(r11)
   1590c:	91 2b 00 1c 	stw     r9,28(r11)
   15910:	91 2b 00 20 	stw     r9,32(r11)
   15914:	62 52 c4 00 	ori     r18,r18,50176
   15918:	eb 21 ff c8 	ld      r25,-56(r1)
   1591c:	90 06 00 08 	stw     r0,8(r6)
   15920:	62 31 00 02 	ori     r17,r17,2
   15924:	e8 01 00 10 	ld      r0,16(r1)
   15928:	61 ce a3 04 	ori     r14,r14,41732
   1592c:	eb 61 ff d8 	ld      r27,-40(r1)
   15930:	92 46 00 00 	stw     r18,0(r6)
   15934:	7c 08 03 a6 	mtlr    r0
   15938:	92 26 00 04 	stw     r17,4(r6)
   1593c:	91 26 00 10 	stw     r9,16(r6)
   15940:	91 26 00 0c 	stw     r9,12(r6)
   15944:	39 08 00 a4 	addi    r8,r8,164
   15948:	ea 21 ff 88 	ld      r17,-120(r1)
   1594c:	91 d7 00 00 	stw     r14,0(r23)
   15950:	91 37 00 0c 	stw     r9,12(r23)
   15954:	91 37 00 04 	stw     r9,4(r23)
   15958:	91 37 00 08 	stw     r9,8(r23)
   1595c:	e9 c1 ff 70 	ld      r14,-144(r1)
   15960:	ea 41 ff 90 	ld      r18,-112(r1)
   15964:	ea e1 ff b8 	ld      r23,-72(r1)
   15968:	eb 81 ff e0 	ld      r28,-32(r1)
   1596c:	eb a1 ff e8 	ld      r29,-24(r1)
   15970:	eb e1 ff f8 	ld      r31,-8(r1)
   15974:	91 03 00 08 	stw     r8,8(r3)
   15978:	4e 80 00 20 	blr
   1597c:	f8 21 ff 61 	stdu    r1,-160(r1)
   15980:	7c 08 02 a6 	mflr    r0
   15984:	fb 81 00 80 	std     r28,128(r1)
   15988:	fb a1 00 88 	std     r29,136(r1)
   1598c:	f8 01 00 b0 	std     r0,176(r1)
   15990:	7c 7d 1b 78 	mr      r29,r3
   15994:	4b ff d6 dd 	bl      0x13070
   15998:	60 00 00 00 	nop
   1599c:	7c 7c 1b 78 	mr      r28,r3
   159a0:	7c 00 04 ac 	sync    
   159a4:	80 7d 00 08 	lwz     r3,8(r29)
   159a8:	38 81 00 70 	addi    r4,r1,112
   159ac:	4b ff dd 79 	bl      0x13724
   159b0:	60 00 00 00 	nop
   159b4:	80 01 00 70 	lwz     r0,112(r1)
   159b8:	eb a1 00 88 	ld      r29,136(r1)
   159bc:	90 1c 00 00 	stw     r0,0(r28)
   159c0:	e8 01 00 b0 	ld      r0,176(r1)
   159c4:	eb 81 00 80 	ld      r28,128(r1)
   159c8:	38 21 00 a0 	addi    r1,r1,160
   159cc:	7c 08 03 a6 	mtlr    r0
   159d0:	4e 80 00 20 	blr
   159d4:	f8 21 ff 71 	stdu    r1,-144(r1)
   159d8:	7c 08 02 a6 	mflr    r0
   159dc:	fb a1 00 78 	std     r29,120(r1)
   159e0:	fb e1 00 88 	std     r31,136(r1)
   159e4:	7c 7d 1b 78 	mr      r29,r3
   159e8:	7c 9f 23 78 	mr      r31,r4
   159ec:	78 84 00 20 	clrldi  r4,r4,32
   159f0:	f8 01 00 a0 	std     r0,160(r1)
   159f4:	fb c1 00 80 	std     r30,128(r1)
   159f8:	4b ff e1 4d 	bl      0x13b44
   159fc:	7f a3 eb 78 	mr      r3,r29
   15a00:	4b ff ff 7d 	bl      0x1597c
   15a04:	4b ff d6 6d 	bl      0x13070
   15a08:	60 00 00 00 	nop
   15a0c:	80 03 00 08 	lwz     r0,8(r3)
   15a10:	7c 7e 1b 78 	mr      r30,r3
   15a14:	7f 9f 00 00 	cmpw    cr7,r31,r0
   15a18:	41 9e 00 1c 	beq-    cr7,0x15a34
   15a1c:	38 60 00 1e 	li      r3,30
   15a20:	39 60 00 8d 	li      r11,141
   15a24:	44 00 00 02 	sc      
   15a28:	83 be 00 08 	lwz     r29,8(r30)
   15a2c:	7f 9f e8 00 	cmpw    cr7,r31,r29
   15a30:	40 9e ff ec 	bne+    cr7,0x15a1c
   15a34:	e8 01 00 a0 	ld      r0,160(r1)
   15a38:	eb a1 00 78 	ld      r29,120(r1)
   15a3c:	eb c1 00 80 	ld      r30,128(r1)
   15a40:	7c 08 03 a6 	mtlr    r0
   15a44:	eb e1 00 88 	ld      r31,136(r1)
   15a48:	38 21 00 90 	addi    r1,r1,144
   15a4c:	4e 80 00 20 	blr
   15a50:	81 62 85 30 	lwz     r11,-31440(r2)
   15a54:	38 00 ff ff 	li      r0,-1
   15a58:	3c 60 80 21 	lis     r3,-32735
   15a5c:	78 00 00 20 	clrldi  r0,r0,32
   15a60:	60 63 00 ff 	ori     r3,r3,255
   15a64:	81 2b 00 04 	lwz     r9,4(r11)
   15a68:	2f 89 00 00 	cmpwi   cr7,r9,0
   15a6c:	41 9e 00 0c 	beq-    cr7,0x15a78
   15a70:	7c 63 07 b4 	extsw   r3,r3
   15a74:	4e 80 00 20 	blr
   15a78:	81 02 85 34 	lwz     r8,-31436(r2)
   15a7c:	e9 48 00 08 	ld      r10,8(r8)
   15a80:	7f aa 00 00 	cmpd    cr7,r10,r0
   15a84:	40 9e ff ec 	bne+    cr7,0x15a70
   15a88:	38 00 00 01 	li      r0,1
   15a8c:	38 60 00 00 	li      r3,0
   15a90:	90 0b 00 04 	stw     r0,4(r11)
   15a94:	91 2b 00 28 	stw     r9,40(r11)
   15a98:	91 2b 00 08 	stw     r9,8(r11)
   15a9c:	91 2b 00 0c 	stw     r9,12(r11)
   15aa0:	91 2b 00 10 	stw     r9,16(r11)
   15aa4:	91 2b 00 14 	stw     r9,20(r11)
   15aa8:	91 2b 00 00 	stw     r9,0(r11)
   15aac:	91 2b 00 18 	stw     r9,24(r11)
   15ab0:	91 2b 00 1c 	stw     r9,28(r11)
   15ab4:	91 2b 00 20 	stw     r9,32(r11)
   15ab8:	91 2b 00 24 	stw     r9,36(r11)
   15abc:	4b ff ff b4 	b       0x15a70
   15ac0:	81 22 85 34 	lwz     r9,-31436(r2)
   15ac4:	80 69 00 10 	lwz     r3,16(r9)
   15ac8:	4e 80 00 20 	blr
   15acc:	81 22 85 30 	lwz     r9,-31440(r2)
   15ad0:	7c 08 02 a6 	mflr    r0
   15ad4:	f8 21 ff 81 	stdu    r1,-128(r1)
   15ad8:	f8 01 00 90 	std     r0,144(r1)
   15adc:	fb e1 00 78 	std     r31,120(r1)
   15ae0:	80 09 00 04 	lwz     r0,4(r9)
   15ae4:	2f 80 00 01 	cmpwi   cr7,r0,1
   15ae8:	41 de 00 24 	beq-    cr7,0x15b0c
   15aec:	3f e0 80 21 	lis     r31,-32735
   15af0:	63 ff 00 ff 	ori     r31,r31,255
   15af4:	e8 01 00 90 	ld      r0,144(r1)
   15af8:	7f e3 07 b4 	extsw   r3,r31
   15afc:	eb e1 00 78 	ld      r31,120(r1)
   15b00:	38 21 00 80 	addi    r1,r1,128
   15b04:	7c 08 03 a6 	mtlr    r0
   15b08:	4e 80 00 20 	blr
   15b0c:	83 e2 85 34 	lwz     r31,-31436(r2)
   15b10:	38 00 ff ff 	li      r0,-1
   15b14:	78 00 00 20 	clrldi  r0,r0,32
   15b18:	e9 3f 00 08 	ld      r9,8(r31)
   15b1c:	7f a9 00 00 	cmpd    cr7,r9,r0
   15b20:	40 9e ff cc 	bne+    cr7,0x15aec
   15b24:	4b ff c6 89 	bl      0x121ac
   15b28:	60 00 00 00 	nop
   15b2c:	2f 83 00 00 	cmpwi   cr7,r3,0
   15b30:	41 9e 00 54 	beq-    cr7,0x15b84
   15b34:	2f 83 00 02 	cmpwi   cr7,r3,2
   15b38:	41 9e 00 54 	beq-    cr7,0x15b8c
   15b3c:	81 22 85 3c 	lwz     r9,-31428(r2)
   15b40:	38 7f 00 08 	addi    r3,r31,8
   15b44:	80 82 85 44 	lwz     r4,-31420(r2)
   15b48:	79 29 00 20 	clrldi  r9,r9,32
   15b4c:	38 a0 00 00 	li      r5,0
   15b50:	38 c0 00 01 	li      r6,1
   15b54:	38 e0 40 00 	li      r7,16384
   15b58:	39 00 00 01 	li      r8,1
   15b5c:	48 04 63 71 	bl      0x5becc
   15b60:	60 00 00 00 	nop
   15b64:	2f 83 00 00 	cmpwi   cr7,r3,0
   15b68:	7c 7f 1b 78 	mr      r31,r3
   15b6c:	40 9e ff 88 	bne+    cr7,0x15af4
   15b70:	4b ff c6 49 	bl      0x121b8
   15b74:	60 00 00 00 	nop
   15b78:	38 00 00 04 	li      r0,4
   15b7c:	90 03 12 c0 	stw     r0,4800(r3)
   15b80:	4b ff ff 74 	b       0x15af4
   15b84:	81 22 85 40 	lwz     r9,-31424(r2)
   15b88:	4b ff ff b8 	b       0x15b40
   15b8c:	81 22 85 38 	lwz     r9,-31432(r2)
   15b90:	4b ff ff b0 	b       0x15b40
   15b94:	f8 21 ff 71 	stdu    r1,-144(r1)
   15b98:	7c 08 02 a6 	mflr    r0
   15b9c:	fb a1 00 78 	std     r29,120(r1)
   15ba0:	fb c1 00 80 	std     r30,128(r1)
   15ba4:	fb e1 00 88 	std     r31,136(r1)
   15ba8:	7c 9d 23 78 	mr      r29,r4
   15bac:	54 7e 30 32 	rlwinm  r30,r3,6,0,25
   15bb0:	3b e0 00 00 	li      r31,0
   15bb4:	f8 01 00 a0 	std     r0,160(r1)
   15bb8:	48 00 00 10 	b       0x15bc8
   15bbc:	2f 9f 00 3f 	cmpwi   cr7,r31,63
   15bc0:	3b ff 00 01 	addi    r31,r31,1
   15bc4:	41 de 00 30 	beq-    cr7,0x15bf4
   15bc8:	7f a0 fc 36 	srd     r0,r29,r31
   15bcc:	7c 7e fa 14 	add     r3,r30,r31
   15bd0:	54 00 07 fe 	clrlwi  r0,r0,31
   15bd4:	78 63 00 20 	clrldi  r3,r3,32
   15bd8:	2f 80 00 00 	cmpwi   cr7,r0,0
   15bdc:	41 9e ff e0 	beq+    cr7,0x15bbc
   15be0:	4b ff db a1 	bl      0x13780
   15be4:	60 00 00 00 	nop
   15be8:	2f 9f 00 3f 	cmpwi   cr7,r31,63
   15bec:	3b ff 00 01 	addi    r31,r31,1
   15bf0:	40 fe ff d8 	bne-    cr7,0x15bc8
   15bf4:	e8 01 00 a0 	ld      r0,160(r1)
   15bf8:	eb a1 00 78 	ld      r29,120(r1)
   15bfc:	eb c1 00 80 	ld      r30,128(r1)
   15c00:	7c 08 03 a6 	mtlr    r0
   15c04:	eb e1 00 88 	ld      r31,136(r1)
   15c08:	38 21 00 90 	addi    r1,r1,144
   15c0c:	4e 80 00 20 	blr
   15c10:	7d 80 00 26 	mfcr    r12
   15c14:	f8 21 ff 31 	stdu    r1,-208(r1)
   15c18:	fb 21 00 98 	std     r25,152(r1)
   15c1c:	fb 41 00 a0 	std     r26,160(r1)
   15c20:	fb 61 00 a8 	std     r27,168(r1)
   15c24:	fb 81 00 b0 	std     r28,176(r1)
   15c28:	fb a1 00 b8 	std     r29,184(r1)
   15c2c:	fb c1 00 c0 	std     r30,192(r1)
   15c30:	fb e1 00 c8 	std     r31,200(r1)
   15c34:	3b 41 00 70 	addi    r26,r1,112
   15c38:	91 81 00 d8 	stw     r12,216(r1)
   15c3c:	7c 08 02 a6 	mflr    r0
   15c40:	f8 01 00 e0 	std     r0,224(r1)
   15c44:	4b ff c5 75 	bl      0x121b8
   15c48:	60 00 00 00 	nop
   15c4c:	83 a2 85 30 	lwz     r29,-31440(r2)
   15c50:	7c 7c 1b 78 	mr      r28,r3
   15c54:	7c 7b 1b 78 	mr      r27,r3
   15c58:	3b 23 23 48 	addi    r25,r3,9032
   15c5c:	38 00 00 00 	li      r0,0
   15c60:	80 7c 12 d0 	lwz     r3,4816(r28)
   15c64:	7f 44 d3 78 	mr      r4,r26
   15c68:	f8 01 00 78 	std     r0,120(r1)
   15c6c:	38 a0 00 00 	li      r5,0
   15c70:	39 60 00 82 	li      r11,130
   15c74:	44 00 00 02 	sc      
   15c78:	2e 03 00 00 	cmpwi   cr4,r3,0
   15c7c:	7c df 33 78 	mr      r31,r6
   15c80:	f8 81 00 70 	std     r4,112(r1)
   15c84:	f8 e1 00 88 	std     r7,136(r1)
   15c88:	f8 a1 00 78 	std     r5,120(r1)
   15c8c:	f8 c1 00 80 	std     r6,128(r1)
   15c90:	40 92 03 68 	bne-    cr4,0x15ff8
   15c94:	2f a5 00 01 	cmpdi   cr7,r5,1
   15c98:	41 9e 03 60 	beq-    cr7,0x15ff8
   15c9c:	2f a5 00 00 	cmpdi   cr7,r5,0
   15ca0:	40 9e ff bc 	bne+    cr7,0x15c5c
   15ca4:	54 c0 06 30 	rlwinm  r0,r6,0,24,24
   15ca8:	2f a0 00 00 	cmpdi   cr7,r0,0
   15cac:	41 9e 00 34 	beq-    cr7,0x15ce0
   15cb0:	81 3d 00 28 	lwz     r9,40(r29)
   15cb4:	2f 89 00 00 	cmpwi   cr7,r9,0
   15cb8:	91 3d 00 2c 	stw     r9,44(r29)
   15cbc:	41 9e 00 24 	beq-    cr7,0x15ce0
   15cc0:	79 29 00 20 	clrldi  r9,r9,32
   15cc4:	80 7c 12 cc 	lwz     r3,4812(r28)
   15cc8:	80 09 00 00 	lwz     r0,0(r9)
   15ccc:	f8 41 00 28 	std     r2,40(r1)
   15cd0:	7c 09 03 a6 	mtctr   r0
   15cd4:	80 49 00 04 	lwz     r2,4(r9)
   15cd8:	4e 80 04 21 	bctrl
   15cdc:	e8 41 00 28 	ld      r2,40(r1)
   15ce0:	57 e0 07 fe 	clrlwi  r0,r31,31
   15ce4:	2f 80 00 00 	cmpwi   cr7,r0,0
   15ce8:	41 9e 00 34 	beq-    cr7,0x15d1c
   15cec:	81 3d 00 08 	lwz     r9,8(r29)
   15cf0:	2f 89 00 00 	cmpwi   cr7,r9,0
   15cf4:	91 3d 00 2c 	stw     r9,44(r29)
   15cf8:	41 9e 00 24 	beq-    cr7,0x15d1c
   15cfc:	79 29 00 20 	clrldi  r9,r9,32
   15d00:	38 60 00 00 	li      r3,0
   15d04:	80 09 00 00 	lwz     r0,0(r9)
   15d08:	f8 41 00 28 	std     r2,40(r1)
   15d0c:	7c 09 03 a6 	mtctr   r0
   15d10:	80 49 00 04 	lwz     r2,4(r9)
   15d14:	4e 80 04 21 	bctrl
   15d18:	e8 41 00 28 	ld      r2,40(r1)
   15d1c:	57 e0 07 bc 	rlwinm  r0,r31,0,30,30
   15d20:	2f a0 00 00 	cmpdi   cr7,r0,0
   15d24:	41 9e 00 34 	beq-    cr7,0x15d58
   15d28:	81 3d 00 0c 	lwz     r9,12(r29)
   15d2c:	2f 89 00 00 	cmpwi   cr7,r9,0
   15d30:	91 3d 00 2c 	stw     r9,44(r29)
   15d34:	41 9e 00 24 	beq-    cr7,0x15d58
   15d38:	79 29 00 20 	clrldi  r9,r9,32
   15d3c:	38 60 00 01 	li      r3,1
   15d40:	80 09 00 00 	lwz     r0,0(r9)
   15d44:	f8 41 00 28 	std     r2,40(r1)
   15d48:	7c 09 03 a6 	mtctr   r0
   15d4c:	80 49 00 04 	lwz     r2,4(r9)
   15d50:	4e 80 04 21 	bctrl
   15d54:	e8 41 00 28 	ld      r2,40(r1)
   15d58:	57 e0 05 6a 	rlwinm  r0,r31,0,21,21
   15d5c:	2f a0 00 00 	cmpdi   cr7,r0,0
   15d60:	41 9e 00 34 	beq-    cr7,0x15d94
   15d64:	81 3d 00 10 	lwz     r9,16(r29)
   15d68:	2f 89 00 00 	cmpwi   cr7,r9,0
   15d6c:	91 3d 00 2c 	stw     r9,44(r29)
   15d70:	41 9e 00 24 	beq-    cr7,0x15d94
   15d74:	79 29 00 20 	clrldi  r9,r9,32
   15d78:	38 60 00 00 	li      r3,0
   15d7c:	80 09 00 00 	lwz     r0,0(r9)
   15d80:	f8 41 00 28 	std     r2,40(r1)
   15d84:	7c 09 03 a6 	mtctr   r0
   15d88:	80 49 00 04 	lwz     r2,4(r9)
   15d8c:	4e 80 04 21 	bctrl
   15d90:	e8 41 00 28 	ld      r2,40(r1)
   15d94:	57 e0 05 28 	rlwinm  r0,r31,0,20,20
   15d98:	2f a0 00 00 	cmpdi   cr7,r0,0
   15d9c:	41 9e 00 34 	beq-    cr7,0x15dd0
   15da0:	81 3d 00 14 	lwz     r9,20(r29)
   15da4:	2f 89 00 00 	cmpwi   cr7,r9,0
   15da8:	91 3d 00 2c 	stw     r9,44(r29)
   15dac:	41 9e 00 24 	beq-    cr7,0x15dd0
   15db0:	79 29 00 20 	clrldi  r9,r9,32
   15db4:	38 60 00 01 	li      r3,1
   15db8:	80 09 00 00 	lwz     r0,0(r9)
   15dbc:	f8 41 00 28 	std     r2,40(r1)
   15dc0:	7c 09 03 a6 	mtctr   r0
   15dc4:	80 49 00 04 	lwz     r2,4(r9)
   15dc8:	4e 80 04 21 	bctrl
   15dcc:	e8 41 00 28 	ld      r2,40(r1)
   15dd0:	57 e0 06 b4 	rlwinm  r0,r31,0,26,26
   15dd4:	2f a0 00 00 	cmpdi   cr7,r0,0
   15dd8:	41 9e 00 34 	beq-    cr7,0x15e0c
   15ddc:	81 3d 00 20 	lwz     r9,32(r29)
   15de0:	2f 89 00 00 	cmpwi   cr7,r9,0
   15de4:	91 3d 00 2c 	stw     r9,44(r29)
   15de8:	41 9e 00 24 	beq-    cr7,0x15e0c
   15dec:	79 29 00 20 	clrldi  r9,r9,32
   15df0:	38 60 00 00 	li      r3,0
   15df4:	80 09 00 00 	lwz     r0,0(r9)
   15df8:	f8 41 00 28 	std     r2,40(r1)
   15dfc:	7c 09 03 a6 	mtctr   r0
   15e00:	80 49 00 04 	lwz     r2,4(r9)
   15e04:	4e 80 04 21 	bctrl
   15e08:	e8 41 00 28 	ld      r2,40(r1)
   15e0c:	57 e0 06 72 	rlwinm  r0,r31,0,25,25
   15e10:	2f a0 00 00 	cmpdi   cr7,r0,0
   15e14:	41 9e 00 34 	beq-    cr7,0x15e48
   15e18:	81 3d 00 24 	lwz     r9,36(r29)
   15e1c:	2f 89 00 00 	cmpwi   cr7,r9,0
   15e20:	91 3d 00 2c 	stw     r9,44(r29)
   15e24:	41 9e 00 24 	beq-    cr7,0x15e48
   15e28:	79 29 00 20 	clrldi  r9,r9,32
   15e2c:	38 60 00 01 	li      r3,1
   15e30:	80 09 00 00 	lwz     r0,0(r9)
   15e34:	f8 41 00 28 	std     r2,40(r1)
   15e38:	7c 09 03 a6 	mtctr   r0
   15e3c:	80 49 00 04 	lwz     r2,4(r9)
   15e40:	4e 80 04 21 	bctrl
   15e44:	e8 41 00 28 	ld      r2,40(r1)
   15e48:	57 e0 07 38 	rlwinm  r0,r31,0,28,28
   15e4c:	2f a0 00 00 	cmpdi   cr7,r0,0
   15e50:	41 9e 00 34 	beq-    cr7,0x15e84
   15e54:	81 3d 00 18 	lwz     r9,24(r29)
   15e58:	2f 89 00 00 	cmpwi   cr7,r9,0
   15e5c:	91 3d 00 2c 	stw     r9,44(r29)
   15e60:	41 9e 00 24 	beq-    cr7,0x15e84
   15e64:	79 29 00 20 	clrldi  r9,r9,32
   15e68:	38 60 00 00 	li      r3,0
   15e6c:	80 09 00 00 	lwz     r0,0(r9)
   15e70:	f8 41 00 28 	std     r2,40(r1)
   15e74:	7c 09 03 a6 	mtctr   r0
   15e78:	80 49 00 04 	lwz     r2,4(r9)
   15e7c:	4e 80 04 21 	bctrl
   15e80:	e8 41 00 28 	ld      r2,40(r1)
   15e84:	57 e0 06 f6 	rlwinm  r0,r31,0,27,27
   15e88:	2f a0 00 00 	cmpdi   cr7,r0,0
   15e8c:	41 9e 00 34 	beq-    cr7,0x15ec0
   15e90:	81 3d 00 1c 	lwz     r9,28(r29)
   15e94:	2f 89 00 00 	cmpwi   cr7,r9,0
   15e98:	91 3d 00 2c 	stw     r9,44(r29)
   15e9c:	41 9e 00 24 	beq-    cr7,0x15ec0
   15ea0:	79 29 00 20 	clrldi  r9,r9,32
   15ea4:	38 60 00 01 	li      r3,1
   15ea8:	80 09 00 00 	lwz     r0,0(r9)
   15eac:	f8 41 00 28 	std     r2,40(r1)
   15eb0:	7c 09 03 a6 	mtctr   r0
   15eb4:	80 49 00 04 	lwz     r2,4(r9)
   15eb8:	4e 80 04 21 	bctrl
   15ebc:	e8 41 00 28 	ld      r2,40(r1)
   15ec0:	57 e0 07 7a 	rlwinm  r0,r31,0,29,29
   15ec4:	2f a0 00 00 	cmpdi   cr7,r0,0
   15ec8:	41 9e 00 6c 	beq-    cr7,0x15f34
   15ecc:	81 3d 00 00 	lwz     r9,0(r29)
   15ed0:	3b db 12 f0 	addi    r30,r27,4848
   15ed4:	2f 89 00 00 	cmpwi   cr7,r9,0
   15ed8:	91 3d 00 2c 	stw     r9,44(r29)
   15edc:	41 9e 00 24 	beq-    cr7,0x15f00
   15ee0:	79 29 00 20 	clrldi  r9,r9,32
   15ee4:	80 7e 00 04 	lwz     r3,4(r30)
   15ee8:	80 09 00 00 	lwz     r0,0(r9)
   15eec:	f8 41 00 28 	std     r2,40(r1)
   15ef0:	7c 09 03 a6 	mtctr   r0
   15ef4:	80 49 00 04 	lwz     r2,4(r9)
   15ef8:	4e 80 04 21 	bctrl
   15efc:	e8 41 00 28 	ld      r2,40(r1)
   15f00:	4b ff c2 b9 	bl      0x121b8
   15f04:	60 00 00 00 	nop
   15f08:	38 63 12 f0 	addi    r3,r3,4848
   15f0c:	80 03 00 04 	lwz     r0,4(r3)
   15f10:	2f 80 00 03 	cmpwi   cr7,r0,3
   15f14:	41 9e 01 d4 	beq-    cr7,0x160e8
   15f18:	80 1e 00 04 	lwz     r0,4(r30)
   15f1c:	2f 80 01 01 	cmpwi   cr7,r0,257
   15f20:	41 9e 01 88 	beq-    cr7,0x160a8
   15f24:	2f 80 02 00 	cmpwi   cr7,r0,512
   15f28:	41 9e 01 8c 	beq-    cr7,0x160b4
   15f2c:	2f 80 01 00 	cmpwi   cr7,r0,256
   15f30:	41 9e 01 98 	beq-    cr7,0x160c8
   15f34:	7b e0 f8 24 	rldicr  r0,r31,31,32
   15f38:	78 00 0f c6 	rldicr  r0,r0,33,31
   15f3c:	2f a0 00 00 	cmpdi   cr7,r0,0
   15f40:	40 9e 01 58 	bne-    cr7,0x16098
   15f44:	7b e0 f0 64 	rldicr  r0,r31,30,33
   15f48:	78 00 17 86 	rldicr  r0,r0,34,30
   15f4c:	2f a0 00 00 	cmpdi   cr7,r0,0
   15f50:	40 9e 01 38 	bne-    cr7,0x16088
   15f54:	7b e0 e8 a4 	rldicr  r0,r31,29,34
   15f58:	78 00 1f 46 	rldicr  r0,r0,35,29
   15f5c:	2f a0 00 00 	cmpdi   cr7,r0,0
   15f60:	40 9e 01 18 	bne-    cr7,0x16078
   15f64:	7b e0 e0 e4 	rldicr  r0,r31,28,35
   15f68:	78 00 27 06 	rldicr  r0,r0,36,28
   15f6c:	2f a0 00 00 	cmpdi   cr7,r0,0
   15f70:	40 9e 00 f8 	bne-    cr7,0x16068
   15f74:	7b e0 d9 24 	rldicr  r0,r31,27,36
   15f78:	78 00 2e c6 	rldicr  r0,r0,37,27
   15f7c:	2f a0 00 00 	cmpdi   cr7,r0,0
   15f80:	40 9e 00 d8 	bne-    cr7,0x16058
   15f84:	7b e0 d1 64 	rldicr  r0,r31,26,37
   15f88:	78 00 36 86 	rldicr  r0,r0,38,26
   15f8c:	2f a0 00 00 	cmpdi   cr7,r0,0
   15f90:	40 9e 00 b8 	bne-    cr7,0x16048
   15f94:	7b e0 c9 a4 	rldicr  r0,r31,25,38
   15f98:	78 00 3e 46 	rldicr  r0,r0,39,25
   15f9c:	2f a0 00 00 	cmpdi   cr7,r0,0
   15fa0:	40 9e 00 98 	bne-    cr7,0x16038
   15fa4:	7b e0 c1 e4 	rldicr  r0,r31,24,39
   15fa8:	78 00 46 06 	rldicr  r0,r0,40,24
   15fac:	2f a0 00 00 	cmpdi   cr7,r0,0
   15fb0:	41 9e fc ac 	beq+    cr7,0x15c5c
   15fb4:	e8 81 00 88 	ld      r4,136(r1)
   15fb8:	38 60 00 07 	li      r3,7
   15fbc:	4b ff fb d9 	bl      0x15b94
   15fc0:	38 00 00 00 	li      r0,0
   15fc4:	80 7c 12 d0 	lwz     r3,4816(r28)
   15fc8:	7f 44 d3 78 	mr      r4,r26
   15fcc:	f8 01 00 78 	std     r0,120(r1)
   15fd0:	38 a0 00 00 	li      r5,0
   15fd4:	39 60 00 82 	li      r11,130
   15fd8:	44 00 00 02 	sc      
   15fdc:	2e 03 00 00 	cmpwi   cr4,r3,0
   15fe0:	7c df 33 78 	mr      r31,r6
   15fe4:	f8 81 00 70 	std     r4,112(r1)
   15fe8:	f8 e1 00 88 	std     r7,136(r1)
   15fec:	f8 a1 00 78 	std     r5,120(r1)
   15ff0:	f8 c1 00 80 	std     r6,128(r1)
   15ff4:	41 92 fc a0 	beq+    cr4,0x15c94
   15ff8:	38 60 00 00 	li      r3,0
   15ffc:	48 04 5f ed 	bl      0x5bfe8
   16000:	60 00 00 00 	nop
   16004:	e8 01 00 e0 	ld      r0,224(r1)
   16008:	81 81 00 d8 	lwz     r12,216(r1)
   1600c:	eb 21 00 98 	ld      r25,152(r1)
   16010:	7c 08 03 a6 	mtlr    r0
   16014:	eb 41 00 a0 	ld      r26,160(r1)
   16018:	7d 90 81 20 	mtocrf  8,r12
   1601c:	eb 61 00 a8 	ld      r27,168(r1)
   16020:	eb 81 00 b0 	ld      r28,176(r1)
   16024:	eb a1 00 b8 	ld      r29,184(r1)
   16028:	eb c1 00 c0 	ld      r30,192(r1)
   1602c:	eb e1 00 c8 	ld      r31,200(r1)
   16030:	38 21 00 d0 	addi    r1,r1,208
   16034:	4e 80 00 20 	blr
   16038:	38 60 00 06 	li      r3,6
   1603c:	e8 81 00 88 	ld      r4,136(r1)
   16040:	4b ff fb 55 	bl      0x15b94
   16044:	4b ff ff 60 	b       0x15fa4
   16048:	38 60 00 05 	li      r3,5
   1604c:	e8 81 00 88 	ld      r4,136(r1)
   16050:	4b ff fb 45 	bl      0x15b94
   16054:	4b ff ff 40 	b       0x15f94
   16058:	38 60 00 04 	li      r3,4
   1605c:	e8 81 00 88 	ld      r4,136(r1)
   16060:	4b ff fb 35 	bl      0x15b94
   16064:	4b ff ff 20 	b       0x15f84
   16068:	38 60 00 03 	li      r3,3
   1606c:	e8 81 00 88 	ld      r4,136(r1)
   16070:	4b ff fb 25 	bl      0x15b94
   16074:	4b ff ff 00 	b       0x15f74
   16078:	38 60 00 02 	li      r3,2
   1607c:	e8 81 00 88 	ld      r4,136(r1)
   16080:	4b ff fb 15 	bl      0x15b94
   16084:	4b ff fe e0 	b       0x15f64
   16088:	38 60 00 01 	li      r3,1
   1608c:	e8 81 00 88 	ld      r4,136(r1)
   16090:	4b ff fb 05 	bl      0x15b94
   16094:	4b ff fe c0 	b       0x15f54
   16098:	38 60 00 00 	li      r3,0
   1609c:	e8 81 00 88 	ld      r4,136(r1)
   160a0:	4b ff fa f5 	bl      0x15b94
   160a4:	4b ff fe a0 	b       0x15f44
   160a8:	80 19 00 20 	lwz     r0,32(r25)
   160ac:	2f 80 00 00 	cmpwi   cr7,r0,0
   160b0:	41 9e 00 24 	beq-    cr7,0x160d4
   160b4:	80 1e 00 0c 	lwz     r0,12(r30)
   160b8:	81 3c 2b 60 	lwz     r9,11104(r28)
   160bc:	7c 09 00 50 	subf    r0,r9,r0
   160c0:	90 1e 00 0c 	stw     r0,12(r30)
   160c4:	4b ff fe 70 	b       0x15f34
   160c8:	80 19 00 24 	lwz     r0,36(r25)
   160cc:	2f 80 00 00 	cmpwi   cr7,r0,0
   160d0:	40 9e ff e4 	bne+    cr7,0x160b4
   160d4:	80 1e 00 0c 	lwz     r0,12(r30)
   160d8:	81 3c 2b 5c 	lwz     r9,11100(r28)
   160dc:	7c 09 00 50 	subf    r0,r9,r0
   160e0:	90 1e 00 0c 	stw     r0,12(r30)
   160e4:	4b ff fe 50 	b       0x15f34
   160e8:	80 62 85 48 	lwz     r3,-31416(r2)
   160ec:	48 04 8b 65 	bl      0x5ec50
   160f0:	60 00 00 00 	nop
   160f4:	4b ff fe 24 	b       0x15f18
   160f8:	80 62 85 4c 	lwz     r3,-31412(r2)
   160fc:	7c 08 02 a6 	mflr    r0
   16100:	f8 21 ff 91 	stdu    r1,-112(r1)
   16104:	f8 01 00 80 	std     r0,128(r1)
   16108:	48 04 62 1d 	bl      0x5c324
   1610c:	60 00 00 00 	nop
   16110:	e8 01 00 80 	ld      r0,128(r1)
   16114:	78 63 00 20 	clrldi  r3,r3,32
   16118:	7c 08 03 a6 	mtlr    r0
   1611c:	38 21 00 70 	addi    r1,r1,112
   16120:	4e 80 00 20 	blr
   16124:	80 62 85 4c 	lwz     r3,-31412(r2)
   16128:	38 80 00 00 	li      r4,0
   1612c:	f8 21 ff 91 	stdu    r1,-112(r1)
   16130:	7c 08 02 a6 	mflr    r0
   16134:	f8 01 00 80 	std     r0,128(r1)
   16138:	48 04 66 ed 	bl      0x5c824
   1613c:	60 00 00 00 	nop
   16140:	e8 01 00 80 	ld      r0,128(r1)
   16144:	78 63 00 20 	clrldi  r3,r3,32
   16148:	7c 08 03 a6 	mtlr    r0
   1614c:	38 21 00 70 	addi    r1,r1,112
   16150:	4e 80 00 20 	blr
   16154:	f8 21 ff 71 	stdu    r1,-144(r1)
   16158:	7c 08 02 a6 	mflr    r0
   1615c:	fb e1 00 88 	std     r31,136(r1)
   16160:	83 e2 85 4c 	lwz     r31,-31412(r2)
   16164:	3c 60 80 21 	lis     r3,-32735
   16168:	f8 01 00 a0 	std     r0,160(r1)
   1616c:	39 41 00 78 	addi    r10,r1,120
   16170:	60 63 00 ff 	ori     r3,r3,255
   16174:	81 7f 00 18 	lwz     r11,24(r31)
   16178:	2f 8b 00 00 	cmpwi   cr7,r11,0
   1617c:	41 9e 00 1c 	beq-    cr7,0x16198
   16180:	e8 01 00 a0 	ld      r0,160(r1)
   16184:	78 63 00 20 	clrldi  r3,r3,32
   16188:	eb e1 00 88 	ld      r31,136(r1)
   1618c:	38 21 00 90 	addi    r1,r1,144
   16190:	7c 08 03 a6 	mtlr    r0
   16194:	4e 80 00 20 	blr
   16198:	38 00 00 02 	li      r0,2
   1619c:	39 20 00 20 	li      r9,32
   161a0:	90 01 00 70 	stw     r0,112(r1)
   161a4:	91 21 00 74 	stw     r9,116(r1)
   161a8:	99 61 00 78 	stb     r11,120(r1)
   161ac:	81 22 85 50 	lwz     r9,-31408(r2)
   161b0:	e8 09 00 00 	ld      r0,0(r9)
   161b4:	f8 0a 00 00 	std     r0,0(r10)
   161b8:	38 00 00 00 	li      r0,0
   161bc:	39 6a 00 07 	addi    r11,r10,7
   161c0:	98 0b 00 00 	stb     r0,0(r11)
   161c4:	7f e3 fb 78 	mr      r3,r31
   161c8:	38 81 00 70 	addi    r4,r1,112
   161cc:	48 04 5f 31 	bl      0x5c0fc
   161d0:	60 00 00 00 	nop
   161d4:	2f 83 00 00 	cmpwi   cr7,r3,0
   161d8:	40 9e ff a8 	bne+    cr7,0x16180
